
a.out:     file format elf64-x86-64


Disassembly of section .init:

0000000000000c28 <_init>:
 c28:	48 83 ec 08          	sub    $0x8,%rsp
 c2c:	48 8b 05 bd 83 20 00 	mov    0x2083bd(%rip),%rax        # 208ff0 <__gmon_start__>
 c33:	48 85 c0             	test   %rax,%rax
 c36:	74 02                	je     c3a <_init+0x12>
 c38:	ff d0                	callq  *%rax
 c3a:	48 83 c4 08          	add    $0x8,%rsp
 c3e:	c3                   	retq   

Disassembly of section .plt:

0000000000000c40 <.plt>:
 c40:	ff 35 b2 82 20 00    	pushq  0x2082b2(%rip)        # 208ef8 <_GLOBAL_OFFSET_TABLE_+0x8>
 c46:	ff 25 b4 82 20 00    	jmpq   *0x2082b4(%rip)        # 208f00 <_GLOBAL_OFFSET_TABLE_+0x10>
 c4c:	0f 1f 40 00          	nopl   0x0(%rax)

0000000000000c50 <__printf_chk@plt>:
 c50:	ff 25 b2 82 20 00    	jmpq   *0x2082b2(%rip)        # 208f08 <__printf_chk@GLIBC_2.3.4>
 c56:	68 00 00 00 00       	pushq  $0x0
 c5b:	e9 e0 ff ff ff       	jmpq   c40 <.plt>

0000000000000c60 <_Znam@plt>:
 c60:	ff 25 aa 82 20 00    	jmpq   *0x2082aa(%rip)        # 208f10 <_Znam@GLIBCXX_3.4>
 c66:	68 01 00 00 00       	pushq  $0x1
 c6b:	e9 d0 ff ff ff       	jmpq   c40 <.plt>

0000000000000c70 <__stpcpy_chk@plt>:
 c70:	ff 25 a2 82 20 00    	jmpq   *0x2082a2(%rip)        # 208f18 <__stpcpy_chk@GLIBC_2.3.4>
 c76:	68 02 00 00 00       	pushq  $0x2
 c7b:	e9 c0 ff ff ff       	jmpq   c40 <.plt>

0000000000000c80 <strchr@plt>:
 c80:	ff 25 9a 82 20 00    	jmpq   *0x20829a(%rip)        # 208f20 <strchr@GLIBC_2.2.5>
 c86:	68 03 00 00 00       	pushq  $0x3
 c8b:	e9 b0 ff ff ff       	jmpq   c40 <.plt>

0000000000000c90 <strlen@plt>:
 c90:	ff 25 92 82 20 00    	jmpq   *0x208292(%rip)        # 208f28 <strlen@GLIBC_2.2.5>
 c96:	68 04 00 00 00       	pushq  $0x4
 c9b:	e9 a0 ff ff ff       	jmpq   c40 <.plt>

0000000000000ca0 <memset@plt>:
 ca0:	ff 25 8a 82 20 00    	jmpq   *0x20828a(%rip)        # 208f30 <memset@GLIBC_2.2.5>
 ca6:	68 05 00 00 00       	pushq  $0x5
 cab:	e9 90 ff ff ff       	jmpq   c40 <.plt>

0000000000000cb0 <__assert_fail@plt>:
 cb0:	ff 25 82 82 20 00    	jmpq   *0x208282(%rip)        # 208f38 <__assert_fail@GLIBC_2.2.5>
 cb6:	68 06 00 00 00       	pushq  $0x6
 cbb:	e9 80 ff ff ff       	jmpq   c40 <.plt>

0000000000000cc0 <clock@plt>:
 cc0:	ff 25 7a 82 20 00    	jmpq   *0x20827a(%rip)        # 208f40 <clock@GLIBC_2.2.5>
 cc6:	68 07 00 00 00       	pushq  $0x7
 ccb:	e9 70 ff ff ff       	jmpq   c40 <.plt>

0000000000000cd0 <strtod@plt>:
 cd0:	ff 25 72 82 20 00    	jmpq   *0x208272(%rip)        # 208f48 <strtod@GLIBC_2.2.5>
 cd6:	68 08 00 00 00       	pushq  $0x8
 cdb:	e9 60 ff ff ff       	jmpq   c40 <.plt>

0000000000000ce0 <memcpy@plt>:
 ce0:	ff 25 6a 82 20 00    	jmpq   *0x20826a(%rip)        # 208f50 <memcpy@GLIBC_2.14>
 ce6:	68 09 00 00 00       	pushq  $0x9
 ceb:	e9 50 ff ff ff       	jmpq   c40 <.plt>

0000000000000cf0 <__strcpy_chk@plt>:
 cf0:	ff 25 62 82 20 00    	jmpq   *0x208262(%rip)        # 208f58 <__strcpy_chk@GLIBC_2.3.4>
 cf6:	68 0a 00 00 00       	pushq  $0xa
 cfb:	e9 40 ff ff ff       	jmpq   c40 <.plt>

0000000000000d00 <strcpy@plt>:
 d00:	ff 25 5a 82 20 00    	jmpq   *0x20825a(%rip)        # 208f60 <strcpy@GLIBC_2.2.5>
 d06:	68 0b 00 00 00       	pushq  $0xb
 d0b:	e9 30 ff ff ff       	jmpq   c40 <.plt>

0000000000000d10 <fclose@plt>:
 d10:	ff 25 52 82 20 00    	jmpq   *0x208252(%rip)        # 208f68 <fclose@GLIBC_2.2.5>
 d16:	68 0c 00 00 00       	pushq  $0xc
 d1b:	e9 20 ff ff ff       	jmpq   c40 <.plt>

0000000000000d20 <_Znwm@plt>:
 d20:	ff 25 4a 82 20 00    	jmpq   *0x20824a(%rip)        # 208f70 <_Znwm@GLIBCXX_3.4>
 d26:	68 0d 00 00 00       	pushq  $0xd
 d2b:	e9 10 ff ff ff       	jmpq   c40 <.plt>

0000000000000d30 <_ZdlPvm@plt>:
 d30:	ff 25 42 82 20 00    	jmpq   *0x208242(%rip)        # 208f78 <_ZdlPvm@CXXABI_1.3.9>
 d36:	68 0e 00 00 00       	pushq  $0xe
 d3b:	e9 00 ff ff ff       	jmpq   c40 <.plt>

0000000000000d40 <strrchr@plt>:
 d40:	ff 25 3a 82 20 00    	jmpq   *0x20823a(%rip)        # 208f80 <strrchr@GLIBC_2.2.5>
 d46:	68 0f 00 00 00       	pushq  $0xf
 d4b:	e9 f0 fe ff ff       	jmpq   c40 <.plt>

0000000000000d50 <__stack_chk_fail@plt>:
 d50:	ff 25 32 82 20 00    	jmpq   *0x208232(%rip)        # 208f88 <__stack_chk_fail@GLIBC_2.4>
 d56:	68 10 00 00 00       	pushq  $0x10
 d5b:	e9 e0 fe ff ff       	jmpq   c40 <.plt>

0000000000000d60 <fopen@plt>:
 d60:	ff 25 2a 82 20 00    	jmpq   *0x20822a(%rip)        # 208f90 <fopen@GLIBC_2.2.5>
 d66:	68 11 00 00 00       	pushq  $0x11
 d6b:	e9 d0 fe ff ff       	jmpq   c40 <.plt>

0000000000000d70 <_ZdaPv@plt>:
 d70:	ff 25 22 82 20 00    	jmpq   *0x208222(%rip)        # 208f98 <_ZdaPv@GLIBCXX_3.4>
 d76:	68 12 00 00 00       	pushq  $0x12
 d7b:	e9 c0 fe ff ff       	jmpq   c40 <.plt>

0000000000000d80 <strcmp@plt>:
 d80:	ff 25 1a 82 20 00    	jmpq   *0x20821a(%rip)        # 208fa0 <strcmp@GLIBC_2.2.5>
 d86:	68 13 00 00 00       	pushq  $0x13
 d8b:	e9 b0 fe ff ff       	jmpq   c40 <.plt>

0000000000000d90 <strtol@plt>:
 d90:	ff 25 12 82 20 00    	jmpq   *0x208212(%rip)        # 208fa8 <strtol@GLIBC_2.2.5>
 d96:	68 14 00 00 00       	pushq  $0x14
 d9b:	e9 a0 fe ff ff       	jmpq   c40 <.plt>

0000000000000da0 <puts@plt>:
 da0:	ff 25 0a 82 20 00    	jmpq   *0x20820a(%rip)        # 208fb0 <puts@GLIBC_2.2.5>
 da6:	68 15 00 00 00       	pushq  $0x15
 dab:	e9 90 fe ff ff       	jmpq   c40 <.plt>

0000000000000db0 <fgets@plt>:
 db0:	ff 25 02 82 20 00    	jmpq   *0x208202(%rip)        # 208fb8 <fgets@GLIBC_2.2.5>
 db6:	68 16 00 00 00       	pushq  $0x16
 dbb:	e9 80 fe ff ff       	jmpq   c40 <.plt>

0000000000000dc0 <__memcpy_chk@plt>:
 dc0:	ff 25 fa 81 20 00    	jmpq   *0x2081fa(%rip)        # 208fc0 <__memcpy_chk@GLIBC_2.3.4>
 dc6:	68 17 00 00 00       	pushq  $0x17
 dcb:	e9 70 fe ff ff       	jmpq   c40 <.plt>

0000000000000dd0 <_Unwind_Resume@plt>:
 dd0:	ff 25 f2 81 20 00    	jmpq   *0x2081f2(%rip)        # 208fc8 <_Unwind_Resume@GCC_3.0>
 dd6:	68 18 00 00 00       	pushq  $0x18
 ddb:	e9 60 fe ff ff       	jmpq   c40 <.plt>

0000000000000de0 <fscanf@plt>:
 de0:	ff 25 ea 81 20 00    	jmpq   *0x2081ea(%rip)        # 208fd0 <fscanf@GLIBC_2.2.5>
 de6:	68 19 00 00 00       	pushq  $0x19
 deb:	e9 50 fe ff ff       	jmpq   c40 <.plt>

Disassembly of section .plt.got:

0000000000000df0 <__cxa_finalize@plt>:
 df0:	ff 25 e2 81 20 00    	jmpq   *0x2081e2(%rip)        # 208fd8 <__cxa_finalize@GLIBC_2.2.5>
 df6:	66 90                	xchg   %ax,%ax

Disassembly of section .text:

0000000000000e00 <main>:
     e00:	41 54                	push   %r12
     e02:	55                   	push   %rbp
     e03:	48 89 f5             	mov    %rsi,%rbp
     e06:	53                   	push   %rbx
     e07:	89 fb                	mov    %edi,%ebx
     e09:	bf 20 00 00 00       	mov    $0x20,%edi
     e0e:	48 83 ec 50          	sub    $0x50,%rsp
     e12:	64 48 8b 04 25 28 00 	mov    %fs:0x28,%rax
     e19:	00 00 
     e1b:	48 89 44 24 48       	mov    %rax,0x48(%rsp)
     e20:	31 c0                	xor    %eax,%eax
     e22:	48 c7 44 24 08 00 00 	movq   $0x0,0x8(%rsp)
     e29:	00 00 
     e2b:	48 c7 04 24 00 00 00 	movq   $0x0,(%rsp)
     e32:	00 
     e33:	c7 44 24 10 00 00 00 	movl   $0x0,0x10(%rsp)
     e3a:	00 
     e3b:	c7 44 24 30 00 00 00 	movl   $0x0,0x30(%rsp)
     e42:	00 
     e43:	48 c7 44 24 20 00 00 	movq   $0x0,0x20(%rsp)
     e4a:	00 00 
     e4c:	48 c7 44 24 18 00 00 	movq   $0x0,0x18(%rsp)
     e53:	00 00 
     e55:	e8 c6 fe ff ff       	callq  d20 <_Znwm@plt>
     e5a:	83 fb 01             	cmp    $0x1,%ebx
     e5d:	48 c7 40 10 00 00 00 	movq   $0x0,0x10(%rax)
     e64:	00 
     e65:	48 c7 40 08 00 00 00 	movq   $0x0,0x8(%rax)
     e6c:	00 
     e6d:	c7 40 18 00 00 00 00 	movl   $0x0,0x18(%rax)
     e74:	48 c7 00 00 00 00 00 	movq   $0x0,(%rax)
     e7b:	48 89 44 24 28       	mov    %rax,0x28(%rsp)
     e80:	c7 44 24 30 00 00 00 	movl   $0x0,0x30(%rsp)
     e87:	00 
     e88:	7e 3f                	jle    ec9 <main+0xc9>
     e8a:	e8 31 fe ff ff       	callq  cc0 <clock@plt>
     e8f:	48 8b 75 08          	mov    0x8(%rbp),%rsi
     e93:	48 89 e3             	mov    %rsp,%rbx
     e96:	48 89 df             	mov    %rbx,%rdi
     e99:	e8 c2 15 00 00       	callq  2460 <_ZN8DatabaseI6recordE14init_from_fileEPKc>
     e9e:	48 89 df             	mov    %rbx,%rdi
     ea1:	e8 7a 3b 00 00       	callq  4a20 <_ZN8DatabaseI6recordE9run_shellEv>
     ea6:	48 89 df             	mov    %rbx,%rdi
     ea9:	e8 42 0d 00 00       	callq  1bf0 <_ZN8DatabaseI6recordED1Ev>
     eae:	31 c0                	xor    %eax,%eax
     eb0:	48 8b 54 24 48       	mov    0x48(%rsp),%rdx
     eb5:	64 48 33 14 25 28 00 	xor    %fs:0x28,%rdx
     ebc:	00 00 
     ebe:	75 0e                	jne    ece <main+0xce>
     ec0:	48 83 c4 50          	add    $0x50,%rsp
     ec4:	5b                   	pop    %rbx
     ec5:	5d                   	pop    %rbp
     ec6:	41 5c                	pop    %r12
     ec8:	c3                   	retq   
     ec9:	48 89 e3             	mov    %rsp,%rbx
     ecc:	eb d0                	jmp    e9e <main+0x9e>
     ece:	e8 7d fe ff ff       	callq  d50 <__stack_chk_fail@plt>
     ed3:	48 8b 1c 24          	mov    (%rsp),%rbx
     ed7:	48 89 c5             	mov    %rax,%rbp
     eda:	48 85 db             	test   %rbx,%rbx
     edd:	74 3e                	je     f1d <main+0x11d>
     edf:	48 8b 3b             	mov    (%rbx),%rdi
     ee2:	4c 8b 63 20          	mov    0x20(%rbx),%r12
     ee6:	48 c7 43 28 00 00 00 	movq   $0x0,0x28(%rbx)
     eed:	00 
     eee:	48 c7 43 20 00 00 00 	movq   $0x0,0x20(%rbx)
     ef5:	00 
     ef6:	48 85 ff             	test   %rdi,%rdi
     ef9:	74 05                	je     f00 <main+0x100>
     efb:	e8 70 fe ff ff       	callq  d70 <_ZdaPv@plt>
     f00:	48 89 df             	mov    %rbx,%rdi
     f03:	be 30 00 00 00       	mov    $0x30,%esi
     f08:	4c 89 e3             	mov    %r12,%rbx
     f0b:	e8 20 fe ff ff       	callq  d30 <_ZdlPvm@plt>
     f10:	eb c8                	jmp    eda <main+0xda>
     f12:	48 89 df             	mov    %rbx,%rdi
     f15:	48 89 c5             	mov    %rax,%rbp
     f18:	e8 d3 0c 00 00       	callq  1bf0 <_ZN8DatabaseI6recordED1Ev>
     f1d:	48 89 ef             	mov    %rbp,%rdi
     f20:	e8 ab fe ff ff       	callq  dd0 <_Unwind_Resume@plt>
     f25:	66 2e 0f 1f 84 00 00 	nopw   %cs:0x0(%rax,%rax,1)
     f2c:	00 00 00 
     f2f:	90                   	nop

0000000000000f30 <_start>:
     f30:	31 ed                	xor    %ebp,%ebp
     f32:	49 89 d1             	mov    %rdx,%r9
     f35:	5e                   	pop    %rsi
     f36:	48 89 e2             	mov    %rsp,%rdx
     f39:	48 83 e4 f0          	and    $0xfffffffffffffff0,%rsp
     f3d:	50                   	push   %rax
     f3e:	54                   	push   %rsp
     f3f:	4c 8d 05 aa 6b 00 00 	lea    0x6baa(%rip),%r8        # 7af0 <__libc_csu_fini>
     f46:	48 8d 0d 33 6b 00 00 	lea    0x6b33(%rip),%rcx        # 7a80 <__libc_csu_init>
     f4d:	48 8d 3d ac fe ff ff 	lea    -0x154(%rip),%rdi        # e00 <main>
     f54:	ff 15 8e 80 20 00    	callq  *0x20808e(%rip)        # 208fe8 <__libc_start_main@GLIBC_2.2.5>
     f5a:	f4                   	hlt    
     f5b:	0f 1f 44 00 00       	nopl   0x0(%rax,%rax,1)

0000000000000f60 <deregister_tm_clones>:
     f60:	48 8d 3d b1 80 20 00 	lea    0x2080b1(%rip),%rdi        # 209018 <__TMC_END__>
     f67:	55                   	push   %rbp
     f68:	48 8d 05 a9 80 20 00 	lea    0x2080a9(%rip),%rax        # 209018 <__TMC_END__>
     f6f:	48 39 f8             	cmp    %rdi,%rax
     f72:	48 89 e5             	mov    %rsp,%rbp
     f75:	74 19                	je     f90 <deregister_tm_clones+0x30>
     f77:	48 8b 05 62 80 20 00 	mov    0x208062(%rip),%rax        # 208fe0 <_ITM_deregisterTMCloneTable>
     f7e:	48 85 c0             	test   %rax,%rax
     f81:	74 0d                	je     f90 <deregister_tm_clones+0x30>
     f83:	5d                   	pop    %rbp
     f84:	ff e0                	jmpq   *%rax
     f86:	66 2e 0f 1f 84 00 00 	nopw   %cs:0x0(%rax,%rax,1)
     f8d:	00 00 00 
     f90:	5d                   	pop    %rbp
     f91:	c3                   	retq   
     f92:	0f 1f 40 00          	nopl   0x0(%rax)
     f96:	66 2e 0f 1f 84 00 00 	nopw   %cs:0x0(%rax,%rax,1)
     f9d:	00 00 00 

0000000000000fa0 <register_tm_clones>:
     fa0:	48 8d 3d 71 80 20 00 	lea    0x208071(%rip),%rdi        # 209018 <__TMC_END__>
     fa7:	48 8d 35 6a 80 20 00 	lea    0x20806a(%rip),%rsi        # 209018 <__TMC_END__>
     fae:	55                   	push   %rbp
     faf:	48 29 fe             	sub    %rdi,%rsi
     fb2:	48 89 e5             	mov    %rsp,%rbp
     fb5:	48 c1 fe 03          	sar    $0x3,%rsi
     fb9:	48 89 f0             	mov    %rsi,%rax
     fbc:	48 c1 e8 3f          	shr    $0x3f,%rax
     fc0:	48 01 c6             	add    %rax,%rsi
     fc3:	48 d1 fe             	sar    %rsi
     fc6:	74 18                	je     fe0 <register_tm_clones+0x40>
     fc8:	48 8b 05 29 80 20 00 	mov    0x208029(%rip),%rax        # 208ff8 <_ITM_registerTMCloneTable>
     fcf:	48 85 c0             	test   %rax,%rax
     fd2:	74 0c                	je     fe0 <register_tm_clones+0x40>
     fd4:	5d                   	pop    %rbp
     fd5:	ff e0                	jmpq   *%rax
     fd7:	66 0f 1f 84 00 00 00 	nopw   0x0(%rax,%rax,1)
     fde:	00 00 
     fe0:	5d                   	pop    %rbp
     fe1:	c3                   	retq   
     fe2:	0f 1f 40 00          	nopl   0x0(%rax)
     fe6:	66 2e 0f 1f 84 00 00 	nopw   %cs:0x0(%rax,%rax,1)
     fed:	00 00 00 

0000000000000ff0 <__do_global_dtors_aux>:
     ff0:	80 3d 31 80 20 00 00 	cmpb   $0x0,0x208031(%rip)        # 209028 <completed.7696>
     ff7:	75 2f                	jne    1028 <__do_global_dtors_aux+0x38>
     ff9:	48 83 3d d7 7f 20 00 	cmpq   $0x0,0x207fd7(%rip)        # 208fd8 <__cxa_finalize@GLIBC_2.2.5>
    1000:	00 
    1001:	55                   	push   %rbp
    1002:	48 89 e5             	mov    %rsp,%rbp
    1005:	74 0c                	je     1013 <__do_global_dtors_aux+0x23>
    1007:	48 8b 3d fa 7f 20 00 	mov    0x207ffa(%rip),%rdi        # 209008 <__dso_handle>
    100e:	e8 dd fd ff ff       	callq  df0 <__cxa_finalize@plt>
    1013:	e8 48 ff ff ff       	callq  f60 <deregister_tm_clones>
    1018:	c6 05 09 80 20 00 01 	movb   $0x1,0x208009(%rip)        # 209028 <completed.7696>
    101f:	5d                   	pop    %rbp
    1020:	c3                   	retq   
    1021:	0f 1f 80 00 00 00 00 	nopl   0x0(%rax)
    1028:	f3 c3                	repz retq 
    102a:	66 0f 1f 44 00 00    	nopw   0x0(%rax,%rax,1)

0000000000001030 <frame_dummy>:
    1030:	55                   	push   %rbp
    1031:	48 89 e5             	mov    %rsp,%rbp
    1034:	5d                   	pop    %rbp
    1035:	e9 66 ff ff ff       	jmpq   fa0 <register_tm_clones>
    103a:	66 0f 1f 44 00 00    	nopw   0x0(%rax,%rax,1)

0000000000001040 <_Z7task_6mPKciS0_i>:
    1040:	41 55                	push   %r13
    1042:	41 54                	push   %r12
    1044:	49 89 fc             	mov    %rdi,%r12
    1047:	55                   	push   %rbp
    1048:	53                   	push   %rbx
    1049:	48 89 d3             	mov    %rdx,%rbx
    104c:	89 f5                	mov    %esi,%ebp
    104e:	ba b0 04 00 00       	mov    $0x4b0,%edx
    1053:	48 89 de             	mov    %rbx,%rsi
    1056:	48 81 ec c8 04 00 00 	sub    $0x4c8,%rsp
    105d:	4c 63 e9             	movslq %ecx,%r13
    1060:	49 89 e0             	mov    %rsp,%r8
    1063:	4c 89 c7             	mov    %r8,%rdi
    1066:	64 48 8b 04 25 28 00 	mov    %fs:0x28,%rax
    106d:	00 00 
    106f:	48 89 84 24 b8 04 00 	mov    %rax,0x4b8(%rsp)
    1076:	00 
    1077:	31 c0                	xor    %eax,%eax
    1079:	e8 72 fc ff ff       	callq  cf0 <__strcpy_chk@plt>
    107e:	85 ed                	test   %ebp,%ebp
    1080:	42 c6 04 2c 00       	movb   $0x0,(%rsp,%r13,1)
    1085:	0f 8e c9 00 00 00    	jle    1154 <_Z7task_6mPKciS0_i+0x114>
    108b:	49 89 c0             	mov    %rax,%r8
    108e:	31 c9                	xor    %ecx,%ecx
    1090:	31 d2                	xor    %edx,%edx
    1092:	66 0f 1f 44 00 00    	nopw   0x0(%rax,%rax,1)
    1098:	48 63 c2             	movslq %edx,%rax
    109b:	48 63 f9             	movslq %ecx,%rdi
    109e:	31 f6                	xor    %esi,%esi
    10a0:	4d 8d 1c 00          	lea    (%r8,%rax,1),%r11
    10a4:	8d 41 01             	lea    0x1(%rcx),%eax
    10a7:	4c 01 e7             	add    %r12,%rdi
    10aa:	44 8d 0c 31          	lea    (%rcx,%rsi,1),%r9d
    10ae:	29 d0                	sub    %edx,%eax
    10b0:	41 89 c2             	mov    %eax,%r10d
    10b3:	0f b6 04 37          	movzbl (%rdi,%rsi,1),%eax
    10b7:	3c 5c                	cmp    $0x5c,%al
    10b9:	74 2e                	je     10e9 <_Z7task_6mPKciS0_i+0xa9>
    10bb:	3c 5f                	cmp    $0x5f,%al
    10bd:	45 0f b6 0c 33       	movzbl (%r11,%rsi,1),%r9d
    10c2:	74 74                	je     1138 <_Z7task_6mPKciS0_i+0xf8>
    10c4:	44 38 c8             	cmp    %r9b,%al
    10c7:	0f 85 83 00 00 00    	jne    1150 <_Z7task_6mPKciS0_i+0x110>
    10cd:	8d 42 01             	lea    0x1(%rdx),%eax
    10d0:	44 01 d2             	add    %r10d,%edx
    10d3:	39 ea                	cmp    %ebp,%edx
    10d5:	7d 70                	jge    1147 <_Z7task_6mPKciS0_i+0x107>
    10d7:	48 83 c6 01          	add    $0x1,%rsi
    10db:	89 c2                	mov    %eax,%edx
    10dd:	0f b6 04 37          	movzbl (%rdi,%rsi,1),%eax
    10e1:	44 8d 0c 31          	lea    (%rcx,%rsi,1),%r9d
    10e5:	3c 5c                	cmp    $0x5c,%al
    10e7:	75 d2                	jne    10bb <_Z7task_6mPKciS0_i+0x7b>
    10e9:	41 8d 49 01          	lea    0x1(%r9),%ecx
    10ed:	39 cd                	cmp    %ecx,%ebp
    10ef:	7e 1b                	jle    110c <_Z7task_6mPKciS0_i+0xcc>
    10f1:	48 63 c2             	movslq %edx,%rax
    10f4:	48 63 c9             	movslq %ecx,%rcx
    10f7:	0f b6 04 04          	movzbl (%rsp,%rax,1),%eax
    10fb:	41 38 04 0c          	cmp    %al,(%r12,%rcx,1)
    10ff:	75 4f                	jne    1150 <_Z7task_6mPKciS0_i+0x110>
    1101:	41 8d 49 02          	lea    0x2(%r9),%ecx
    1105:	83 c2 01             	add    $0x1,%edx
    1108:	39 cd                	cmp    %ecx,%ebp
    110a:	7f 8c                	jg     1098 <_Z7task_6mPKciS0_i+0x58>
    110c:	48 63 d2             	movslq %edx,%rdx
    110f:	48 8d 04 13          	lea    (%rbx,%rdx,1),%rax
    1113:	48 8b 9c 24 b8 04 00 	mov    0x4b8(%rsp),%rbx
    111a:	00 
    111b:	64 48 33 1c 25 28 00 	xor    %fs:0x28,%rbx
    1122:	00 00 
    1124:	75 33                	jne    1159 <_Z7task_6mPKciS0_i+0x119>
    1126:	48 81 c4 c8 04 00 00 	add    $0x4c8,%rsp
    112d:	5b                   	pop    %rbx
    112e:	5d                   	pop    %rbp
    112f:	41 5c                	pop    %r12
    1131:	41 5d                	pop    %r13
    1133:	c3                   	retq   
    1134:	0f 1f 40 00          	nopl   0x0(%rax)
    1138:	45 84 c9             	test   %r9b,%r9b
    113b:	74 13                	je     1150 <_Z7task_6mPKciS0_i+0x110>
    113d:	8d 42 01             	lea    0x1(%rdx),%eax
    1140:	44 01 d2             	add    %r10d,%edx
    1143:	39 d5                	cmp    %edx,%ebp
    1145:	7f 90                	jg     10d7 <_Z7task_6mPKciS0_i+0x97>
    1147:	48 98                	cltq   
    1149:	48 01 d8             	add    %rbx,%rax
    114c:	eb c5                	jmp    1113 <_Z7task_6mPKciS0_i+0xd3>
    114e:	66 90                	xchg   %ax,%ax
    1150:	31 c0                	xor    %eax,%eax
    1152:	eb bf                	jmp    1113 <_Z7task_6mPKciS0_i+0xd3>
    1154:	48 89 d8             	mov    %rbx,%rax
    1157:	eb ba                	jmp    1113 <_Z7task_6mPKciS0_i+0xd3>
    1159:	e8 f2 fb ff ff       	callq  d50 <__stack_chk_fail@plt>
    115e:	66 90                	xchg   %ax,%ax

0000000000001160 <_Z15find_first_nextPKciS0_iPS0_>:
    1160:	85 c9                	test   %ecx,%ecx
    1162:	7e 7c                	jle    11e0 <_Z15find_first_nextPKciS0_iPS0_+0x80>
    1164:	41 57                	push   %r15
    1166:	8d 41 ff             	lea    -0x1(%rcx),%eax
    1169:	41 56                	push   %r14
    116b:	41 55                	push   %r13
    116d:	41 54                	push   %r12
    116f:	4d 89 c5             	mov    %r8,%r13
    1172:	55                   	push   %rbp
    1173:	53                   	push   %rbx
    1174:	89 cd                	mov    %ecx,%ebp
    1176:	41 89 f6             	mov    %esi,%r14d
    1179:	49 89 fc             	mov    %rdi,%r12
    117c:	48 89 d3             	mov    %rdx,%rbx
    117f:	48 83 ec 08          	sub    $0x8,%rsp
    1183:	4c 8d 7c 02 01       	lea    0x1(%rdx,%rax,1),%r15
    1188:	eb 0f                	jmp    1199 <_Z15find_first_nextPKciS0_iPS0_+0x39>
    118a:	66 0f 1f 44 00 00    	nopw   0x0(%rax,%rax,1)
    1190:	48 83 c3 01          	add    $0x1,%rbx
    1194:	4c 39 fb             	cmp    %r15,%rbx
    1197:	74 2f                	je     11c8 <_Z15find_first_nextPKciS0_iPS0_+0x68>
    1199:	89 e9                	mov    %ebp,%ecx
    119b:	48 89 da             	mov    %rbx,%rdx
    119e:	44 89 f6             	mov    %r14d,%esi
    11a1:	4c 89 e7             	mov    %r12,%rdi
    11a4:	e8 97 fe ff ff       	callq  1040 <_Z7task_6mPKciS0_i>
    11a9:	48 85 c0             	test   %rax,%rax
    11ac:	74 e2                	je     1190 <_Z15find_first_nextPKciS0_iPS0_+0x30>
    11ae:	49 89 5d 00          	mov    %rbx,0x0(%r13)
    11b2:	48 83 c4 08          	add    $0x8,%rsp
    11b6:	5b                   	pop    %rbx
    11b7:	5d                   	pop    %rbp
    11b8:	41 5c                	pop    %r12
    11ba:	41 5d                	pop    %r13
    11bc:	41 5e                	pop    %r14
    11be:	41 5f                	pop    %r15
    11c0:	c3                   	retq   
    11c1:	0f 1f 80 00 00 00 00 	nopl   0x0(%rax)
    11c8:	48 83 c4 08          	add    $0x8,%rsp
    11cc:	31 c0                	xor    %eax,%eax
    11ce:	5b                   	pop    %rbx
    11cf:	5d                   	pop    %rbp
    11d0:	41 5c                	pop    %r12
    11d2:	41 5d                	pop    %r13
    11d4:	41 5e                	pop    %r14
    11d6:	41 5f                	pop    %r15
    11d8:	c3                   	retq   
    11d9:	0f 1f 80 00 00 00 00 	nopl   0x0(%rax)
    11e0:	31 c0                	xor    %eax,%eax
    11e2:	c3                   	retq   
    11e3:	0f 1f 00             	nopl   (%rax)
    11e6:	66 2e 0f 1f 84 00 00 	nopw   %cs:0x0(%rax,%rax,1)
    11ed:	00 00 00 

00000000000011f0 <_Z14find_last_nextPKciS0_iPS0_>:
    11f0:	89 c8                	mov    %ecx,%eax
    11f2:	29 f0                	sub    %esi,%eax
    11f4:	78 7a                	js     1270 <_Z14find_last_nextPKciS0_iPS0_+0x80>
    11f6:	41 57                	push   %r15
    11f8:	41 56                	push   %r14
    11fa:	48 98                	cltq   
    11fc:	41 55                	push   %r13
    11fe:	41 54                	push   %r12
    1200:	4c 8d 74 02 01       	lea    0x1(%rdx,%rax,1),%r14
    1205:	55                   	push   %rbp
    1206:	53                   	push   %rbx
    1207:	4d 89 c5             	mov    %r8,%r13
    120a:	89 cd                	mov    %ecx,%ebp
    120c:	89 f3                	mov    %esi,%ebx
    120e:	49 89 fc             	mov    %rdi,%r12
    1211:	48 83 ec 18          	sub    $0x18,%rsp
    1215:	49 89 d7             	mov    %rdx,%r15
    1218:	48 c7 44 24 08 00 00 	movq   $0x0,0x8(%rsp)
    121f:	00 00 
    1221:	0f 1f 80 00 00 00 00 	nopl   0x0(%rax)
    1228:	89 e9                	mov    %ebp,%ecx
    122a:	4c 89 fa             	mov    %r15,%rdx
    122d:	89 de                	mov    %ebx,%esi
    122f:	4c 89 e7             	mov    %r12,%rdi
    1232:	e8 09 fe ff ff       	callq  1040 <_Z7task_6mPKciS0_i>
    1237:	48 85 c0             	test   %rax,%rax
    123a:	74 14                	je     1250 <_Z14find_last_nextPKciS0_iPS0_+0x60>
    123c:	4d 89 7d 00          	mov    %r15,0x0(%r13)
    1240:	49 83 c7 01          	add    $0x1,%r15
    1244:	4d 39 f7             	cmp    %r14,%r15
    1247:	74 15                	je     125e <_Z14find_last_nextPKciS0_iPS0_+0x6e>
    1249:	48 89 44 24 08       	mov    %rax,0x8(%rsp)
    124e:	eb d8                	jmp    1228 <_Z14find_last_nextPKciS0_iPS0_+0x38>
    1250:	49 83 c7 01          	add    $0x1,%r15
    1254:	4d 39 f7             	cmp    %r14,%r15
    1257:	75 cf                	jne    1228 <_Z14find_last_nextPKciS0_iPS0_+0x38>
    1259:	48 8b 44 24 08       	mov    0x8(%rsp),%rax
    125e:	48 83 c4 18          	add    $0x18,%rsp
    1262:	5b                   	pop    %rbx
    1263:	5d                   	pop    %rbp
    1264:	41 5c                	pop    %r12
    1266:	41 5d                	pop    %r13
    1268:	41 5e                	pop    %r14
    126a:	41 5f                	pop    %r15
    126c:	c3                   	retq   
    126d:	0f 1f 00             	nopl   (%rax)
    1270:	31 c0                	xor    %eax,%eax
    1272:	c3                   	retq   
    1273:	0f 1f 00             	nopl   (%rax)
    1276:	66 2e 0f 1f 84 00 00 	nopw   %cs:0x0(%rax,%rax,1)
    127d:	00 00 00 

0000000000001280 <_Z11isProtectedPKcS0_>:
    1280:	48 8d 56 ff          	lea    -0x1(%rsi),%rdx
    1284:	48 39 fa             	cmp    %rdi,%rdx
    1287:	72 2f                	jb     12b8 <_Z11isProtectedPKcS0_+0x38>
    1289:	48 83 ef 01          	sub    $0x1,%rdi
    128d:	31 c0                	xor    %eax,%eax
    128f:	80 7e ff 5c          	cmpb   $0x5c,-0x1(%rsi)
    1293:	74 10                	je     12a5 <_Z11isProtectedPKcS0_+0x25>
    1295:	eb 21                	jmp    12b8 <_Z11isProtectedPKcS0_+0x38>
    1297:	66 0f 1f 84 00 00 00 	nopw   0x0(%rax,%rax,1)
    129e:	00 00 
    12a0:	80 3a 5c             	cmpb   $0x5c,(%rdx)
    12a3:	75 0c                	jne    12b1 <_Z11isProtectedPKcS0_+0x31>
    12a5:	48 83 ea 01          	sub    $0x1,%rdx
    12a9:	83 c0 01             	add    $0x1,%eax
    12ac:	48 39 d7             	cmp    %rdx,%rdi
    12af:	75 ef                	jne    12a0 <_Z11isProtectedPKcS0_+0x20>
    12b1:	83 e0 01             	and    $0x1,%eax
    12b4:	c3                   	retq   
    12b5:	0f 1f 00             	nopl   (%rax)
    12b8:	31 c0                	xor    %eax,%eax
    12ba:	c3                   	retq   
    12bb:	0f 1f 44 00 00       	nopl   0x0(%rax,%rax,1)

00000000000012c0 <_Z13isUnprotectedPKcS0_>:
    12c0:	48 8d 56 ff          	lea    -0x1(%rsi),%rdx
    12c4:	48 39 d7             	cmp    %rdx,%rdi
    12c7:	77 37                	ja     1300 <_Z13isUnprotectedPKcS0_+0x40>
    12c9:	48 83 ef 01          	sub    $0x1,%rdi
    12cd:	31 c0                	xor    %eax,%eax
    12cf:	80 7e ff 5c          	cmpb   $0x5c,-0x1(%rsi)
    12d3:	74 10                	je     12e5 <_Z13isUnprotectedPKcS0_+0x25>
    12d5:	eb 29                	jmp    1300 <_Z13isUnprotectedPKcS0_+0x40>
    12d7:	66 0f 1f 84 00 00 00 	nopw   0x0(%rax,%rax,1)
    12de:	00 00 
    12e0:	80 3a 5c             	cmpb   $0x5c,(%rdx)
    12e3:	75 0c                	jne    12f1 <_Z13isUnprotectedPKcS0_+0x31>
    12e5:	48 83 ea 01          	sub    $0x1,%rdx
    12e9:	83 c0 01             	add    $0x1,%eax
    12ec:	48 39 fa             	cmp    %rdi,%rdx
    12ef:	75 ef                	jne    12e0 <_Z13isUnprotectedPKcS0_+0x20>
    12f1:	f7 d0                	not    %eax
    12f3:	83 e0 01             	and    $0x1,%eax
    12f6:	c3                   	retq   
    12f7:	66 0f 1f 84 00 00 00 	nopw   0x0(%rax,%rax,1)
    12fe:	00 00 
    1300:	b8 01 00 00 00       	mov    $0x1,%eax
    1305:	c3                   	retq   
    1306:	66 2e 0f 1f 84 00 00 	nopw   %cs:0x0(%rax,%rax,1)
    130d:	00 00 00 

0000000000001310 <_Z4likePKcS0_>:
    1310:	41 57                	push   %r15
    1312:	41 56                	push   %r14
    1314:	ba b0 04 00 00       	mov    $0x4b0,%edx
    1319:	41 55                	push   %r13
    131b:	41 54                	push   %r12
    131d:	49 89 fe             	mov    %rdi,%r14
    1320:	55                   	push   %rbp
    1321:	53                   	push   %rbx
    1322:	48 81 ec 88 0e 00 00 	sub    $0xe88,%rsp
    1329:	4c 8d 7c 24 60       	lea    0x60(%rsp),%r15
    132e:	48 89 7c 24 28       	mov    %rdi,0x28(%rsp)
    1333:	64 48 8b 04 25 28 00 	mov    %fs:0x28,%rax
    133a:	00 00 
    133c:	48 89 84 24 78 0e 00 	mov    %rax,0xe78(%rsp)
    1343:	00 
    1344:	31 c0                	xor    %eax,%eax
    1346:	4c 89 ff             	mov    %r15,%rdi
    1349:	4c 89 7c 24 20       	mov    %r15,0x20(%rsp)
    134e:	e8 1d f9 ff ff       	callq  c70 <__stpcpy_chk@plt>
    1353:	4c 89 f7             	mov    %r14,%rdi
    1356:	4c 29 f8             	sub    %r15,%rax
    1359:	48 89 c3             	mov    %rax,%rbx
    135c:	e8 2f f9 ff ff       	callq  c90 <strlen@plt>
    1361:	85 c0                	test   %eax,%eax
    1363:	0f 8e 27 06 00 00    	jle    1990 <_Z4likePKcS0_+0x680>
    1369:	4c 8b 6c 24 20       	mov    0x20(%rsp),%r13
    136e:	48 8d bc 24 10 05 00 	lea    0x510(%rsp),%rdi
    1375:	00 
    1376:	48 8d 53 01          	lea    0x1(%rbx),%rdx
    137a:	b9 b0 04 00 00       	mov    $0x4b0,%ecx
    137f:	48 63 db             	movslq %ebx,%rbx
    1382:	48 89 c5             	mov    %rax,%rbp
    1385:	48 89 7c 24 40       	mov    %rdi,0x40(%rsp)
    138a:	48 63 ed             	movslq %ebp,%rbp
    138d:	4c 89 ee             	mov    %r13,%rsi
    1390:	e8 2b fa ff ff       	callq  dc0 <__memcpy_chk@plt>
    1395:	49 8d 44 1d 00       	lea    0x0(%r13,%rbx,1),%rax
    139a:	48 8b 7c 24 28       	mov    0x28(%rsp),%rdi
    139f:	49 8d 5c 1d ff       	lea    -0x1(%r13,%rbx,1),%rbx
    13a4:	48 89 44 24 50       	mov    %rax,0x50(%rsp)
    13a9:	48 89 e8             	mov    %rbp,%rax
    13ac:	48 89 1c 24          	mov    %rbx,(%rsp)
    13b0:	48 01 f8             	add    %rdi,%rax
    13b3:	4c 39 eb             	cmp    %r13,%rbx
    13b6:	48 89 44 24 58       	mov    %rax,0x58(%rsp)
    13bb:	0f 82 51 05 00 00    	jb     1912 <_Z4likePKcS0_+0x602>
    13c1:	48 89 44 24 30       	mov    %rax,0x30(%rsp)
    13c6:	48 89 7c 24 08       	mov    %rdi,0x8(%rsp)
    13cb:	48 8d ac 24 c0 09 00 	lea    0x9c0(%rsp),%rbp
    13d2:	00 
    13d3:	48 89 44 24 10       	mov    %rax,0x10(%rsp)
    13d8:	c7 44 24 38 01 00 00 	movl   $0x1,0x38(%rsp)
    13df:	00 
    13e0:	c6 44 24 3f 00       	movb   $0x0,0x3f(%rsp)
    13e5:	c6 44 24 3e 00       	movb   $0x0,0x3e(%rsp)
    13ea:	eb 26                	jmp    1412 <_Z4likePKcS0_+0x102>
    13ec:	0f 1f 40 00          	nopl   0x0(%rax)
    13f0:	41 80 7d 00 25       	cmpb   $0x25,0x0(%r13)
    13f5:	0f 85 7d 02 00 00    	jne    1678 <_Z4likePKcS0_+0x368>
    13fb:	49 83 c5 01          	add    $0x1,%r13
    13ff:	c6 44 24 3e 01       	movb   $0x1,0x3e(%rsp)
    1404:	f7 5c 24 38          	negl   0x38(%rsp)
    1408:	4c 39 2c 24          	cmp    %r13,(%rsp)
    140c:	0f 82 1b 02 00 00    	jb     162d <_Z4likePKcS0_+0x31d>
    1412:	83 7c 24 38 01       	cmpl   $0x1,0x38(%rsp)
    1417:	74 d7                	je     13f0 <_Z4likePKcS0_+0xe0>
    1419:	48 8b 04 24          	mov    (%rsp),%rax
    141d:	80 38 25             	cmpb   $0x25,(%rax)
    1420:	0f 84 45 04 00 00    	je     186b <_Z4likePKcS0_+0x55b>
    1426:	4c 8b 34 24          	mov    (%rsp),%r14
    142a:	48 8b 5c 24 20       	mov    0x20(%rsp),%rbx
    142f:	be 25 00 00 00       	mov    $0x25,%esi
    1434:	4c 8b 64 24 40       	mov    0x40(%rsp),%r12
    1439:	49 29 de             	sub    %rbx,%r14
    143c:	4c 89 e7             	mov    %r12,%rdi
    143f:	42 c6 84 34 10 05 00 	movb   $0x0,0x510(%rsp,%r14,1)
    1446:	00 00 
    1448:	e8 f3 f8 ff ff       	callq  d40 <strrchr@plt>
    144d:	48 85 c0             	test   %rax,%rax
    1450:	0f 84 b4 04 00 00    	je     190a <_Z4likePKcS0_+0x5fa>
    1456:	66 2e 0f 1f 84 00 00 	nopw   %cs:0x0(%rax,%rax,1)
    145d:	00 00 00 
    1460:	48 8d 50 ff          	lea    -0x1(%rax),%rdx
    1464:	48 39 da             	cmp    %rbx,%rdx
    1467:	0f 82 e3 03 00 00    	jb     1850 <_Z4likePKcS0_+0x540>
    146d:	80 78 ff 5c          	cmpb   $0x5c,-0x1(%rax)
    1471:	0f 85 d9 03 00 00    	jne    1850 <_Z4likePKcS0_+0x540>
    1477:	31 c9                	xor    %ecx,%ecx
    1479:	0f 1f 80 00 00 00 00 	nopl   0x0(%rax)
    1480:	48 83 ea 01          	sub    $0x1,%rdx
    1484:	83 c1 01             	add    $0x1,%ecx
    1487:	80 3a 5c             	cmpb   $0x5c,(%rdx)
    148a:	74 f4                	je     1480 <_Z4likePKcS0_+0x170>
    148c:	83 e1 01             	and    $0x1,%ecx
    148f:	0f 84 bb 03 00 00    	je     1850 <_Z4likePKcS0_+0x540>
    1495:	c6 00 00             	movb   $0x0,(%rax)
    1498:	be 25 00 00 00       	mov    $0x25,%esi
    149d:	4c 89 e7             	mov    %r12,%rdi
    14a0:	e8 9b f8 ff ff       	callq  d40 <strrchr@plt>
    14a5:	48 85 c0             	test   %rax,%rax
    14a8:	75 b6                	jne    1460 <_Z4likePKcS0_+0x150>
    14aa:	4c 8b 7c 24 20       	mov    0x20(%rsp),%r15
    14af:	48 8b 44 24 10       	mov    0x10(%rsp),%rax
    14b4:	48 8b 7c 24 08       	mov    0x8(%rsp),%rdi
    14b9:	41 83 c6 01          	add    $0x1,%r14d
    14bd:	48 29 f8             	sub    %rdi,%rax
    14c0:	89 c2                	mov    %eax,%edx
    14c2:	44 29 f2             	sub    %r14d,%edx
    14c5:	0f 88 1f 03 00 00    	js     17ea <_Z4likePKcS0_+0x4da>
    14cb:	48 63 d2             	movslq %edx,%rdx
    14ce:	48 89 fb             	mov    %rdi,%rbx
    14d1:	48 98                	cltq   
    14d3:	48 8d 7c 17 01       	lea    0x1(%rdi,%rdx,1),%rdi
    14d8:	48 01 e8             	add    %rbp,%rax
    14db:	4c 89 6c 24 48       	mov    %r13,0x48(%rsp)
    14e0:	48 c7 44 24 18 00 00 	movq   $0x0,0x18(%rsp)
    14e7:	00 00 
    14e9:	49 89 dd             	mov    %rbx,%r13
    14ec:	45 31 e4             	xor    %r12d,%r12d
    14ef:	48 89 3c 24          	mov    %rdi,(%rsp)
    14f3:	48 89 c3             	mov    %rax,%rbx
    14f6:	66 2e 0f 1f 84 00 00 	nopw   %cs:0x0(%rax,%rax,1)
    14fd:	00 00 00 
    1500:	ba b0 04 00 00       	mov    $0x4b0,%edx
    1505:	4c 89 ee             	mov    %r13,%rsi
    1508:	48 89 ef             	mov    %rbp,%rdi
    150b:	e8 e0 f7 ff ff       	callq  cf0 <__strcpy_chk@plt>
    1510:	45 85 f6             	test   %r14d,%r14d
    1513:	c6 03 00             	movb   $0x0,(%rbx)
    1516:	0f 8e e6 03 00 00    	jle    1902 <_Z4likePKcS0_+0x5f2>
    151c:	31 d2                	xor    %edx,%edx
    151e:	31 c0                	xor    %eax,%eax
    1520:	48 63 f8             	movslq %eax,%rdi
    1523:	31 f6                	xor    %esi,%esi
    1525:	8d 4a 01             	lea    0x1(%rdx),%ecx
    1528:	4c 01 ff             	add    %r15,%rdi
    152b:	4c 63 c2             	movslq %edx,%r8
    152e:	44 0f b6 0c 37       	movzbl (%rdi,%rsi,1),%r9d
    1533:	29 c1                	sub    %eax,%ecx
    1535:	49 01 e8             	add    %rbp,%r8
    1538:	41 89 ca             	mov    %ecx,%r10d
    153b:	8d 0c 32             	lea    (%rdx,%rsi,1),%ecx
    153e:	41 80 f9 5c          	cmp    $0x5c,%r9b
    1542:	74 36                	je     157a <_Z4likePKcS0_+0x26a>
    1544:	41 80 f9 5f          	cmp    $0x5f,%r9b
    1548:	41 0f b6 0c 30       	movzbl (%r8,%rsi,1),%ecx
    154d:	0f 84 fd 00 00 00    	je     1650 <_Z4likePKcS0_+0x340>
    1553:	41 38 c9             	cmp    %cl,%r9b
    1556:	75 64                	jne    15bc <_Z4likePKcS0_+0x2ac>
    1558:	41 8d 0c 02          	lea    (%r10,%rax,1),%ecx
    155c:	83 c0 01             	add    $0x1,%eax
    155f:	41 39 c6             	cmp    %eax,%r14d
    1562:	0f 8e 00 01 00 00    	jle    1668 <_Z4likePKcS0_+0x358>
    1568:	48 83 c6 01          	add    $0x1,%rsi
    156c:	44 0f b6 0c 37       	movzbl (%rdi,%rsi,1),%r9d
    1571:	8d 0c 32             	lea    (%rdx,%rsi,1),%ecx
    1574:	41 80 f9 5c          	cmp    $0x5c,%r9b
    1578:	75 ca                	jne    1544 <_Z4likePKcS0_+0x234>
    157a:	8d 50 01             	lea    0x1(%rax),%edx
    157d:	41 39 d6             	cmp    %edx,%r14d
    1580:	0f 8e e2 00 00 00    	jle    1668 <_Z4likePKcS0_+0x358>
    1586:	48 63 f1             	movslq %ecx,%rsi
    1589:	48 63 d2             	movslq %edx,%rdx
    158c:	0f b6 bc 34 c0 09 00 	movzbl 0x9c0(%rsp,%rsi,1),%edi
    1593:	00 
    1594:	41 38 3c 17          	cmp    %dil,(%r15,%rdx,1)
    1598:	75 22                	jne    15bc <_Z4likePKcS0_+0x2ac>
    159a:	83 c0 02             	add    $0x2,%eax
    159d:	8d 51 01             	lea    0x1(%rcx),%edx
    15a0:	41 39 c6             	cmp    %eax,%r14d
    15a3:	0f 8f 77 ff ff ff    	jg     1520 <_Z4likePKcS0_+0x210>
    15a9:	48 63 c2             	movslq %edx,%rax
    15ac:	4c 01 e8             	add    %r13,%rax
    15af:	48 85 c0             	test   %rax,%rax
    15b2:	74 08                	je     15bc <_Z4likePKcS0_+0x2ac>
    15b4:	4c 89 6c 24 18       	mov    %r13,0x18(%rsp)
    15b9:	49 89 c4             	mov    %rax,%r12
    15bc:	49 83 c5 01          	add    $0x1,%r13
    15c0:	4c 39 2c 24          	cmp    %r13,(%rsp)
    15c4:	0f 85 36 ff ff ff    	jne    1500 <_Z4likePKcS0_+0x1f0>
    15ca:	4d 85 e4             	test   %r12,%r12
    15cd:	4c 8b 6c 24 48       	mov    0x48(%rsp),%r13
    15d2:	0f 84 12 02 00 00    	je     17ea <_Z4likePKcS0_+0x4da>
    15d8:	4c 3b 64 24 30       	cmp    0x30(%rsp),%r12
    15dd:	74 0b                	je     15ea <_Z4likePKcS0_+0x2da>
    15df:	80 7c 24 3f 00       	cmpb   $0x0,0x3f(%rsp)
    15e4:	0f 84 00 02 00 00    	je     17ea <_Z4likePKcS0_+0x4da>
    15ea:	4c 3b 64 24 10       	cmp    0x10(%rsp),%r12
    15ef:	0f 87 f5 01 00 00    	ja     17ea <_Z4likePKcS0_+0x4da>
    15f5:	48 8b 44 24 18       	mov    0x18(%rsp),%rax
    15fa:	48 8b 5c 24 08       	mov    0x8(%rsp),%rbx
    15ff:	48 39 d8             	cmp    %rbx,%rax
    1602:	0f 82 e2 01 00 00    	jb     17ea <_Z4likePKcS0_+0x4da>
    1608:	49 8d 5f fe          	lea    -0x2(%r15),%rbx
    160c:	f7 5c 24 38          	negl   0x38(%rsp)
    1610:	4c 89 64 24 30       	mov    %r12,0x30(%rsp)
    1615:	48 89 44 24 10       	mov    %rax,0x10(%rsp)
    161a:	c6 44 24 3f 01       	movb   $0x1,0x3f(%rsp)
    161f:	48 89 1c 24          	mov    %rbx,(%rsp)
    1623:	4c 39 2c 24          	cmp    %r13,(%rsp)
    1627:	0f 83 e5 fd ff ff    	jae    1412 <_Z4likePKcS0_+0x102>
    162d:	48 8b 5c 24 58       	mov    0x58(%rsp),%rbx
    1632:	48 39 5c 24 10       	cmp    %rbx,0x10(%rsp)
    1637:	0f 84 e9 02 00 00    	je     1926 <_Z4likePKcS0_+0x616>
    163d:	b8 01 00 00 00       	mov    $0x1,%eax
    1642:	e9 a5 01 00 00       	jmpq   17ec <_Z4likePKcS0_+0x4dc>
    1647:	66 0f 1f 84 00 00 00 	nopw   0x0(%rax,%rax,1)
    164e:	00 00 
    1650:	84 c9                	test   %cl,%cl
    1652:	0f 84 64 ff ff ff    	je     15bc <_Z4likePKcS0_+0x2ac>
    1658:	41 8d 0c 02          	lea    (%r10,%rax,1),%ecx
    165c:	83 c0 01             	add    $0x1,%eax
    165f:	41 39 c6             	cmp    %eax,%r14d
    1662:	0f 8f 00 ff ff ff    	jg     1568 <_Z4likePKcS0_+0x258>
    1668:	48 63 c1             	movslq %ecx,%rax
    166b:	4c 01 e8             	add    %r13,%rax
    166e:	e9 3c ff ff ff       	jmpq   15af <_Z4likePKcS0_+0x29f>
    1673:	0f 1f 44 00 00       	nopl   0x0(%rax,%rax,1)
    1678:	be 25 00 00 00       	mov    $0x25,%esi
    167d:	4c 89 ef             	mov    %r13,%rdi
    1680:	e8 fb f5 ff ff       	callq  c80 <strchr@plt>
    1685:	48 85 c0             	test   %rax,%rax
    1688:	74 53                	je     16dd <_Z4likePKcS0_+0x3cd>
    168a:	49 8d 5d ff          	lea    -0x1(%r13),%rbx
    168e:	66 90                	xchg   %ax,%ax
    1690:	48 8d 50 ff          	lea    -0x1(%rax),%rdx
    1694:	49 39 d5             	cmp    %rdx,%r13
    1697:	0f 87 a3 01 00 00    	ja     1840 <_Z4likePKcS0_+0x530>
    169d:	80 78 ff 5c          	cmpb   $0x5c,-0x1(%rax)
    16a1:	0f 85 99 01 00 00    	jne    1840 <_Z4likePKcS0_+0x530>
    16a7:	31 c9                	xor    %ecx,%ecx
    16a9:	eb 0a                	jmp    16b5 <_Z4likePKcS0_+0x3a5>
    16ab:	0f 1f 44 00 00       	nopl   0x0(%rax,%rax,1)
    16b0:	80 3a 5c             	cmpb   $0x5c,(%rdx)
    16b3:	75 0c                	jne    16c1 <_Z4likePKcS0_+0x3b1>
    16b5:	48 83 ea 01          	sub    $0x1,%rdx
    16b9:	83 c1 01             	add    $0x1,%ecx
    16bc:	48 39 da             	cmp    %rbx,%rdx
    16bf:	75 ef                	jne    16b0 <_Z4likePKcS0_+0x3a0>
    16c1:	83 e1 01             	and    $0x1,%ecx
    16c4:	0f 84 76 01 00 00    	je     1840 <_Z4likePKcS0_+0x530>
    16ca:	48 8d 78 01          	lea    0x1(%rax),%rdi
    16ce:	be 25 00 00 00       	mov    $0x25,%esi
    16d3:	e8 a8 f5 ff ff       	callq  c80 <strchr@plt>
    16d8:	48 85 c0             	test   %rax,%rax
    16db:	75 b3                	jne    1690 <_Z4likePKcS0_+0x380>
    16dd:	4c 8b 7c 24 50       	mov    0x50(%rsp),%r15
    16e2:	48 8b 44 24 10       	mov    0x10(%rsp),%rax
    16e7:	48 2b 44 24 08       	sub    0x8(%rsp),%rax
    16ec:	45 89 fe             	mov    %r15d,%r14d
    16ef:	45 29 ee             	sub    %r13d,%r14d
    16f2:	85 c0                	test   %eax,%eax
    16f4:	0f 8e f0 00 00 00    	jle    17ea <_Z4likePKcS0_+0x4da>
    16fa:	48 8b 7c 24 08       	mov    0x8(%rsp),%rdi
    16ff:	48 63 d8             	movslq %eax,%rbx
    1702:	83 e8 01             	sub    $0x1,%eax
    1705:	48 01 eb             	add    %rbp,%rbx
    1708:	49 89 e8             	mov    %rbp,%r8
    170b:	4c 89 ed             	mov    %r13,%rbp
    170e:	48 8d 44 07 01       	lea    0x1(%rdi,%rax,1),%rax
    1713:	49 89 fc             	mov    %rdi,%r12
    1716:	49 89 c5             	mov    %rax,%r13
    1719:	0f 1f 80 00 00 00 00 	nopl   0x0(%rax)
    1720:	4c 89 c7             	mov    %r8,%rdi
    1723:	ba b0 04 00 00       	mov    $0x4b0,%edx
    1728:	4c 89 e6             	mov    %r12,%rsi
    172b:	e8 c0 f5 ff ff       	callq  cf0 <__strcpy_chk@plt>
    1730:	45 85 f6             	test   %r14d,%r14d
    1733:	49 89 c0             	mov    %rax,%r8
    1736:	c6 03 00             	movb   $0x0,(%rbx)
    1739:	0f 8e 7d 01 00 00    	jle    18bc <_Z4likePKcS0_+0x5ac>
    173f:	31 d2                	xor    %edx,%edx
    1741:	31 c0                	xor    %eax,%eax
    1743:	0f 1f 44 00 00       	nopl   0x0(%rax,%rax,1)
    1748:	48 63 f8             	movslq %eax,%rdi
    174b:	31 f6                	xor    %esi,%esi
    174d:	8d 4a 01             	lea    0x1(%rdx),%ecx
    1750:	48 01 ef             	add    %rbp,%rdi
    1753:	4c 63 ca             	movslq %edx,%r9
    1756:	44 0f b6 14 37       	movzbl (%rdi,%rsi,1),%r10d
    175b:	29 c1                	sub    %eax,%ecx
    175d:	4d 01 c1             	add    %r8,%r9
    1760:	41 89 cb             	mov    %ecx,%r11d
    1763:	8d 0c 32             	lea    (%rdx,%rsi,1),%ecx
    1766:	41 80 fa 5c          	cmp    $0x5c,%r10b
    176a:	74 36                	je     17a2 <_Z4likePKcS0_+0x492>
    176c:	41 80 fa 5f          	cmp    $0x5f,%r10b
    1770:	41 0f b6 0c 31       	movzbl (%r9,%rsi,1),%ecx
    1775:	0f 84 9d 00 00 00    	je     1818 <_Z4likePKcS0_+0x508>
    177b:	41 38 ca             	cmp    %cl,%r10b
    177e:	75 5d                	jne    17dd <_Z4likePKcS0_+0x4cd>
    1780:	41 8d 0c 03          	lea    (%r11,%rax,1),%ecx
    1784:	83 c0 01             	add    $0x1,%eax
    1787:	41 39 c6             	cmp    %eax,%r14d
    178a:	0f 8e 9c 00 00 00    	jle    182c <_Z4likePKcS0_+0x51c>
    1790:	48 83 c6 01          	add    $0x1,%rsi
    1794:	44 0f b6 14 37       	movzbl (%rdi,%rsi,1),%r10d
    1799:	8d 0c 32             	lea    (%rdx,%rsi,1),%ecx
    179c:	41 80 fa 5c          	cmp    $0x5c,%r10b
    17a0:	75 ca                	jne    176c <_Z4likePKcS0_+0x45c>
    17a2:	8d 50 01             	lea    0x1(%rax),%edx
    17a5:	41 39 d6             	cmp    %edx,%r14d
    17a8:	0f 8e 7e 00 00 00    	jle    182c <_Z4likePKcS0_+0x51c>
    17ae:	48 63 f1             	movslq %ecx,%rsi
    17b1:	48 63 d2             	movslq %edx,%rdx
    17b4:	0f b6 bc 34 c0 09 00 	movzbl 0x9c0(%rsp,%rsi,1),%edi
    17bb:	00 
    17bc:	40 38 7c 15 00       	cmp    %dil,0x0(%rbp,%rdx,1)
    17c1:	75 1a                	jne    17dd <_Z4likePKcS0_+0x4cd>
    17c3:	83 c0 02             	add    $0x2,%eax
    17c6:	8d 51 01             	lea    0x1(%rcx),%edx
    17c9:	41 39 c6             	cmp    %eax,%r14d
    17cc:	0f 8f 76 ff ff ff    	jg     1748 <_Z4likePKcS0_+0x438>
    17d2:	48 63 d2             	movslq %edx,%rdx
    17d5:	4c 01 e2             	add    %r12,%rdx
    17d8:	48 85 d2             	test   %rdx,%rdx
    17db:	75 5a                	jne    1837 <_Z4likePKcS0_+0x527>
    17dd:	49 83 c4 01          	add    $0x1,%r12
    17e1:	4d 39 e5             	cmp    %r12,%r13
    17e4:	0f 85 36 ff ff ff    	jne    1720 <_Z4likePKcS0_+0x410>
    17ea:	31 c0                	xor    %eax,%eax
    17ec:	48 8b 9c 24 78 0e 00 	mov    0xe78(%rsp),%rbx
    17f3:	00 
    17f4:	64 48 33 1c 25 28 00 	xor    %fs:0x28,%rbx
    17fb:	00 00 
    17fd:	0f 85 ac 01 00 00    	jne    19af <_Z4likePKcS0_+0x69f>
    1803:	48 81 c4 88 0e 00 00 	add    $0xe88,%rsp
    180a:	5b                   	pop    %rbx
    180b:	5d                   	pop    %rbp
    180c:	41 5c                	pop    %r12
    180e:	41 5d                	pop    %r13
    1810:	41 5e                	pop    %r14
    1812:	41 5f                	pop    %r15
    1814:	c3                   	retq   
    1815:	0f 1f 00             	nopl   (%rax)
    1818:	84 c9                	test   %cl,%cl
    181a:	74 c1                	je     17dd <_Z4likePKcS0_+0x4cd>
    181c:	41 8d 0c 03          	lea    (%r11,%rax,1),%ecx
    1820:	83 c0 01             	add    $0x1,%eax
    1823:	41 39 c6             	cmp    %eax,%r14d
    1826:	0f 8f 64 ff ff ff    	jg     1790 <_Z4likePKcS0_+0x480>
    182c:	48 63 d1             	movslq %ecx,%rdx
    182f:	4c 01 e2             	add    %r12,%rdx
    1832:	48 85 d2             	test   %rdx,%rdx
    1835:	74 a6                	je     17dd <_Z4likePKcS0_+0x4cd>
    1837:	4c 89 c5             	mov    %r8,%rbp
    183a:	e9 83 00 00 00       	jmpq   18c2 <_Z4likePKcS0_+0x5b2>
    183f:	90                   	nop
    1840:	49 89 c7             	mov    %rax,%r15
    1843:	e9 9a fe ff ff       	jmpq   16e2 <_Z4likePKcS0_+0x3d2>
    1848:	0f 1f 84 00 00 00 00 	nopl   0x0(%rax,%rax,1)
    184f:	00 
    1850:	48 2b 44 24 40       	sub    0x40(%rsp),%rax
    1855:	48 8b 5c 24 20       	mov    0x20(%rsp),%rbx
    185a:	4c 8b 34 24          	mov    (%rsp),%r14
    185e:	4c 8d 7c 03 01       	lea    0x1(%rbx,%rax,1),%r15
    1863:	4d 29 fe             	sub    %r15,%r14
    1866:	e9 44 fc ff ff       	jmpq   14af <_Z4likePKcS0_+0x19f>
    186b:	48 8d 70 ff          	lea    -0x1(%rax),%rsi
    186f:	49 39 f5             	cmp    %rsi,%r13
    1872:	0f 87 b5 fd ff ff    	ja     162d <_Z4likePKcS0_+0x31d>
    1878:	80 78 ff 5c          	cmpb   $0x5c,-0x1(%rax)
    187c:	75 2c                	jne    18aa <_Z4likePKcS0_+0x59a>
    187e:	49 8d 4d ff          	lea    -0x1(%r13),%rcx
    1882:	48 89 f0             	mov    %rsi,%rax
    1885:	31 d2                	xor    %edx,%edx
    1887:	eb 0c                	jmp    1895 <_Z4likePKcS0_+0x585>
    1889:	0f 1f 80 00 00 00 00 	nopl   0x0(%rax)
    1890:	80 38 5c             	cmpb   $0x5c,(%rax)
    1893:	75 0c                	jne    18a1 <_Z4likePKcS0_+0x591>
    1895:	48 83 e8 01          	sub    $0x1,%rax
    1899:	83 c2 01             	add    $0x1,%edx
    189c:	48 39 c1             	cmp    %rax,%rcx
    189f:	75 ef                	jne    1890 <_Z4likePKcS0_+0x580>
    18a1:	83 e2 01             	and    $0x1,%edx
    18a4:	0f 85 7c fb ff ff    	jne    1426 <_Z4likePKcS0_+0x116>
    18aa:	f7 5c 24 38          	negl   0x38(%rsp)
    18ae:	48 89 34 24          	mov    %rsi,(%rsp)
    18b2:	c6 44 24 3f 01       	movb   $0x1,0x3f(%rsp)
    18b7:	e9 56 fb ff ff       	jmpq   1412 <_Z4likePKcS0_+0x102>
    18bc:	48 89 c5             	mov    %rax,%rbp
    18bf:	4c 89 e2             	mov    %r12,%rdx
    18c2:	4c 39 64 24 28       	cmp    %r12,0x28(%rsp)
    18c7:	74 0b                	je     18d4 <_Z4likePKcS0_+0x5c4>
    18c9:	80 7c 24 3e 00       	cmpb   $0x0,0x3e(%rsp)
    18ce:	0f 84 16 ff ff ff    	je     17ea <_Z4likePKcS0_+0x4da>
    18d4:	48 3b 54 24 10       	cmp    0x10(%rsp),%rdx
    18d9:	0f 87 0b ff ff ff    	ja     17ea <_Z4likePKcS0_+0x4da>
    18df:	4c 39 64 24 08       	cmp    %r12,0x8(%rsp)
    18e4:	0f 87 00 ff ff ff    	ja     17ea <_Z4likePKcS0_+0x4da>
    18ea:	4d 8d 6f 01          	lea    0x1(%r15),%r13
    18ee:	48 89 54 24 08       	mov    %rdx,0x8(%rsp)
    18f3:	4c 89 64 24 28       	mov    %r12,0x28(%rsp)
    18f8:	c6 44 24 3e 01       	movb   $0x1,0x3e(%rsp)
    18fd:	e9 02 fb ff ff       	jmpq   1404 <_Z4likePKcS0_+0xf4>
    1902:	4c 89 e8             	mov    %r13,%rax
    1905:	e9 aa fc ff ff       	jmpq   15b4 <_Z4likePKcS0_+0x2a4>
    190a:	49 89 df             	mov    %rbx,%r15
    190d:	e9 9d fb ff ff       	jmpq   14af <_Z4likePKcS0_+0x19f>
    1912:	48 8b 44 24 58       	mov    0x58(%rsp),%rax
    1917:	48 89 44 24 10       	mov    %rax,0x10(%rsp)
    191c:	48 8b 44 24 28       	mov    0x28(%rsp),%rax
    1921:	48 89 44 24 08       	mov    %rax,0x8(%rsp)
    1926:	48 8b 44 24 50       	mov    0x50(%rsp),%rax
    192b:	48 8d 48 fe          	lea    -0x2(%rax),%rcx
    192f:	48 3b 4c 24 20       	cmp    0x20(%rsp),%rcx
    1934:	72 4a                	jb     1980 <_Z4likePKcS0_+0x670>
    1936:	80 78 fe 5c          	cmpb   $0x5c,-0x2(%rax)
    193a:	75 44                	jne    1980 <_Z4likePKcS0_+0x670>
    193c:	48 8d 54 24 5f       	lea    0x5f(%rsp),%rdx
    1941:	48 c7 c0 ff ff ff ff 	mov    $0xffffffffffffffff,%rax
    1948:	48 29 ca             	sub    %rcx,%rdx
    194b:	eb 0b                	jmp    1958 <_Z4likePKcS0_+0x648>
    194d:	48 83 e8 01          	sub    $0x1,%rax
    1951:	80 7c 01 01 5c       	cmpb   $0x5c,0x1(%rcx,%rax,1)
    1956:	75 09                	jne    1961 <_Z4likePKcS0_+0x651>
    1958:	89 c6                	mov    %eax,%esi
    195a:	f7 de                	neg    %esi
    195c:	48 39 d0             	cmp    %rdx,%rax
    195f:	75 ec                	jne    194d <_Z4likePKcS0_+0x63d>
    1961:	83 e6 01             	and    $0x1,%esi
    1964:	74 1a                	je     1980 <_Z4likePKcS0_+0x670>
    1966:	48 8b 5c 24 08       	mov    0x8(%rsp),%rbx
    196b:	48 39 5c 24 10       	cmp    %rbx,0x10(%rsp)
    1970:	0f 87 74 fe ff ff    	ja     17ea <_Z4likePKcS0_+0x4da>
    1976:	e9 c2 fc ff ff       	jmpq   163d <_Z4likePKcS0_+0x32d>
    197b:	0f 1f 44 00 00       	nopl   0x0(%rax,%rax,1)
    1980:	48 8b 44 24 50       	mov    0x50(%rsp),%rax
    1985:	80 78 ff 25          	cmpb   $0x25,-0x1(%rax)
    1989:	75 db                	jne    1966 <_Z4likePKcS0_+0x656>
    198b:	e9 ad fc ff ff       	jmpq   163d <_Z4likePKcS0_+0x32d>
    1990:	48 8d 0d e9 69 00 00 	lea    0x69e9(%rip),%rcx        # 8380 <_ZZ4likePKcS0_E19__PRETTY_FUNCTION__>
    1997:	48 8d 35 71 61 00 00 	lea    0x6171(%rip),%rsi        # 7b0f <_IO_stdin_used+0xf>
    199e:	48 8d 3d 71 61 00 00 	lea    0x6171(%rip),%rdi        # 7b16 <_IO_stdin_used+0x16>
    19a5:	ba 72 00 00 00       	mov    $0x72,%edx
    19aa:	e8 01 f3 ff ff       	callq  cb0 <__assert_fail@plt>
    19af:	e8 9c f3 ff ff       	callq  d50 <__stack_chk_fail@plt>
    19b4:	66 2e 0f 1f 84 00 00 	nopw   %cs:0x0(%rax,%rax,1)
    19bb:	00 00 00 
    19be:	66 90                	xchg   %ax,%ax

00000000000019c0 <_ZN8avl_treeI9list_nodeI6recordEE11delete_treeEP8avl_nodeIS2_E.part.14>:
    19c0:	41 54                	push   %r12
    19c2:	55                   	push   %rbp
    19c3:	49 89 fc             	mov    %rdi,%r12
    19c6:	53                   	push   %rbx
    19c7:	48 8b 6e 08          	mov    0x8(%rsi),%rbp
    19cb:	48 89 f3             	mov    %rsi,%rbx
    19ce:	48 85 ed             	test   %rbp,%rbp
    19d1:	75 1d                	jne    19f0 <_ZN8avl_treeI9list_nodeI6recordEE11delete_treeEP8avl_nodeIS2_E.part.14+0x30>
    19d3:	48 8b 6b 10          	mov    0x10(%rbx),%rbp
    19d7:	48 85 ed             	test   %rbp,%rbp
    19da:	75 3c                	jne    1a18 <_ZN8avl_treeI9list_nodeI6recordEE11delete_treeEP8avl_nodeIS2_E.part.14+0x58>
    19dc:	48 89 df             	mov    %rbx,%rdi
    19df:	be 20 00 00 00       	mov    $0x20,%esi
    19e4:	5b                   	pop    %rbx
    19e5:	5d                   	pop    %rbp
    19e6:	41 5c                	pop    %r12
    19e8:	e9 43 f3 ff ff       	jmpq   d30 <_ZdlPvm@plt>
    19ed:	0f 1f 00             	nopl   (%rax)
    19f0:	48 8b 75 08          	mov    0x8(%rbp),%rsi
    19f4:	48 85 f6             	test   %rsi,%rsi
    19f7:	75 47                	jne    1a40 <_ZN8avl_treeI9list_nodeI6recordEE11delete_treeEP8avl_nodeIS2_E.part.14+0x80>
    19f9:	48 8b 75 10          	mov    0x10(%rbp),%rsi
    19fd:	48 85 f6             	test   %rsi,%rsi
    1a00:	75 6e                	jne    1a70 <_ZN8avl_treeI9list_nodeI6recordEE11delete_treeEP8avl_nodeIS2_E.part.14+0xb0>
    1a02:	48 89 ef             	mov    %rbp,%rdi
    1a05:	be 20 00 00 00       	mov    $0x20,%esi
    1a0a:	e8 21 f3 ff ff       	callq  d30 <_ZdlPvm@plt>
    1a0f:	48 8b 6b 10          	mov    0x10(%rbx),%rbp
    1a13:	48 85 ed             	test   %rbp,%rbp
    1a16:	74 c4                	je     19dc <_ZN8avl_treeI9list_nodeI6recordEE11delete_treeEP8avl_nodeIS2_E.part.14+0x1c>
    1a18:	48 8b 75 08          	mov    0x8(%rbp),%rsi
    1a1c:	48 85 f6             	test   %rsi,%rsi
    1a1f:	75 3f                	jne    1a60 <_ZN8avl_treeI9list_nodeI6recordEE11delete_treeEP8avl_nodeIS2_E.part.14+0xa0>
    1a21:	48 8b 75 10          	mov    0x10(%rbp),%rsi
    1a25:	48 85 f6             	test   %rsi,%rsi
    1a28:	75 26                	jne    1a50 <_ZN8avl_treeI9list_nodeI6recordEE11delete_treeEP8avl_nodeIS2_E.part.14+0x90>
    1a2a:	be 20 00 00 00       	mov    $0x20,%esi
    1a2f:	48 89 ef             	mov    %rbp,%rdi
    1a32:	e8 f9 f2 ff ff       	callq  d30 <_ZdlPvm@plt>
    1a37:	eb a3                	jmp    19dc <_ZN8avl_treeI9list_nodeI6recordEE11delete_treeEP8avl_nodeIS2_E.part.14+0x1c>
    1a39:	0f 1f 80 00 00 00 00 	nopl   0x0(%rax)
    1a40:	e8 7b ff ff ff       	callq  19c0 <_ZN8avl_treeI9list_nodeI6recordEE11delete_treeEP8avl_nodeIS2_E.part.14>
    1a45:	eb b2                	jmp    19f9 <_ZN8avl_treeI9list_nodeI6recordEE11delete_treeEP8avl_nodeIS2_E.part.14+0x39>
    1a47:	66 0f 1f 84 00 00 00 	nopw   0x0(%rax,%rax,1)
    1a4e:	00 00 
    1a50:	4c 89 e7             	mov    %r12,%rdi
    1a53:	e8 68 ff ff ff       	callq  19c0 <_ZN8avl_treeI9list_nodeI6recordEE11delete_treeEP8avl_nodeIS2_E.part.14>
    1a58:	eb d0                	jmp    1a2a <_ZN8avl_treeI9list_nodeI6recordEE11delete_treeEP8avl_nodeIS2_E.part.14+0x6a>
    1a5a:	66 0f 1f 44 00 00    	nopw   0x0(%rax,%rax,1)
    1a60:	4c 89 e7             	mov    %r12,%rdi
    1a63:	e8 58 ff ff ff       	callq  19c0 <_ZN8avl_treeI9list_nodeI6recordEE11delete_treeEP8avl_nodeIS2_E.part.14>
    1a68:	eb b7                	jmp    1a21 <_ZN8avl_treeI9list_nodeI6recordEE11delete_treeEP8avl_nodeIS2_E.part.14+0x61>
    1a6a:	66 0f 1f 44 00 00    	nopw   0x0(%rax,%rax,1)
    1a70:	4c 89 e7             	mov    %r12,%rdi
    1a73:	e8 48 ff ff ff       	callq  19c0 <_ZN8avl_treeI9list_nodeI6recordEE11delete_treeEP8avl_nodeIS2_E.part.14>
    1a78:	eb 88                	jmp    1a02 <_ZN8avl_treeI9list_nodeI6recordEE11delete_treeEP8avl_nodeIS2_E.part.14+0x42>
    1a7a:	66 0f 1f 44 00 00    	nopw   0x0(%rax,%rax,1)

0000000000001a80 <_ZN6record4scanEP8_IO_FILE>:
    1a80:	41 56                	push   %r14
    1a82:	41 55                	push   %r13
    1a84:	41 54                	push   %r12
    1a86:	55                   	push   %rbp
    1a87:	48 89 fd             	mov    %rdi,%rbp
    1a8a:	53                   	push   %rbx
    1a8b:	48 89 f7             	mov    %rsi,%rdi
    1a8e:	48 8d 35 6f 60 00 00 	lea    0x606f(%rip),%rsi        # 7b04 <_IO_stdin_used+0x4>
    1a95:	48 81 ec d0 04 00 00 	sub    $0x4d0,%rsp
    1a9c:	48 8d 5c 24 10       	lea    0x10(%rsp),%rbx
    1aa1:	48 8d 4c 24 08       	lea    0x8(%rsp),%rcx
    1aa6:	4c 8d 44 24 04       	lea    0x4(%rsp),%r8
    1aab:	64 48 8b 04 25 28 00 	mov    %fs:0x28,%rax
    1ab2:	00 00 
    1ab4:	48 89 84 24 c8 04 00 	mov    %rax,0x4c8(%rsp)
    1abb:	00 
    1abc:	31 c0                	xor    %eax,%eax
    1abe:	48 89 da             	mov    %rbx,%rdx
    1ac1:	e8 1a f3 ff ff       	callq  de0 <fscanf@plt>
    1ac6:	31 d2                	xor    %edx,%edx
    1ac8:	83 f8 03             	cmp    $0x3,%eax
    1acb:	74 33                	je     1b00 <_ZN6record4scanEP8_IO_FILE+0x80>
    1acd:	48 8b b4 24 c8 04 00 	mov    0x4c8(%rsp),%rsi
    1ad4:	00 
    1ad5:	64 48 33 34 25 28 00 	xor    %fs:0x28,%rsi
    1adc:	00 00 
    1ade:	89 d0                	mov    %edx,%eax
    1ae0:	0f 85 03 01 00 00    	jne    1be9 <_ZN6record4scanEP8_IO_FILE+0x169>
    1ae6:	48 81 c4 d0 04 00 00 	add    $0x4d0,%rsp
    1aed:	5b                   	pop    %rbx
    1aee:	5d                   	pop    %rbp
    1aef:	41 5c                	pop    %r12
    1af1:	41 5d                	pop    %r13
    1af3:	41 5e                	pop    %r14
    1af5:	c3                   	retq   
    1af6:	66 2e 0f 1f 84 00 00 	nopw   %cs:0x0(%rax,%rax,1)
    1afd:	00 00 00 
    1b00:	48 89 da             	mov    %rbx,%rdx
    1b03:	8b 0a                	mov    (%rdx),%ecx
    1b05:	48 83 c2 04          	add    $0x4,%rdx
    1b09:	8d 81 ff fe fe fe    	lea    -0x1010101(%rcx),%eax
    1b0f:	f7 d1                	not    %ecx
    1b11:	21 c8                	and    %ecx,%eax
    1b13:	25 80 80 80 80       	and    $0x80808080,%eax
    1b18:	74 e9                	je     1b03 <_ZN6record4scanEP8_IO_FILE+0x83>
    1b1a:	89 c1                	mov    %eax,%ecx
    1b1c:	c1 e9 10             	shr    $0x10,%ecx
    1b1f:	a9 80 80 00 00       	test   $0x8080,%eax
    1b24:	0f 44 c1             	cmove  %ecx,%eax
    1b27:	48 8d 4a 02          	lea    0x2(%rdx),%rcx
    1b2b:	89 c6                	mov    %eax,%esi
    1b2d:	48 0f 44 d1          	cmove  %rcx,%rdx
    1b31:	40 00 c6             	add    %al,%sil
    1b34:	8b 4d 0c             	mov    0xc(%rbp),%ecx
    1b37:	48 83 da 03          	sbb    $0x3,%rdx
    1b3b:	48 29 da             	sub    %rbx,%rdx
    1b3e:	83 c2 01             	add    $0x1,%edx
    1b41:	89 d0                	mov    %edx,%eax
    1b43:	89 55 08             	mov    %edx,0x8(%rbp)
    1b46:	29 c8                	sub    %ecx,%eax
    1b48:	85 c0                	test   %eax,%eax
    1b4a:	7f 2c                	jg     1b78 <_ZN6record4scanEP8_IO_FILE+0xf8>
    1b4c:	4c 8b 6d 00          	mov    0x0(%rbp),%r13
    1b50:	48 89 de             	mov    %rbx,%rsi
    1b53:	4c 89 ef             	mov    %r13,%rdi
    1b56:	e8 a5 f1 ff ff       	callq  d00 <strcpy@plt>
    1b5b:	8b 44 24 04          	mov    0x4(%rsp),%eax
    1b5f:	ba 01 00 00 00       	mov    $0x1,%edx
    1b64:	89 45 18             	mov    %eax,0x18(%rbp)
    1b67:	48 8b 44 24 08       	mov    0x8(%rsp),%rax
    1b6c:	48 89 45 10          	mov    %rax,0x10(%rbp)
    1b70:	e9 58 ff ff ff       	jmpq   1acd <_ZN6record4scanEP8_IO_FILE+0x4d>
    1b75:	0f 1f 00             	nopl   (%rax)
    1b78:	81 f9 c8 00 00 00    	cmp    $0xc8,%ecx
    1b7e:	41 bc 0a 00 00 00    	mov    $0xa,%r12d
    1b84:	7e 15                	jle    1b9b <_ZN6record4scanEP8_IO_FILE+0x11b>
    1b86:	66 0f ef c0          	pxor   %xmm0,%xmm0
    1b8a:	f2 0f 2a c1          	cvtsi2sd %ecx,%xmm0
    1b8e:	f2 0f 59 05 12 68 00 	mulsd  0x6812(%rip),%xmm0        # 83a8 <_ZZ4likePKcS0_E19__PRETTY_FUNCTION__+0x28>
    1b95:	00 
    1b96:	f2 44 0f 2c e0       	cvttsd2si %xmm0,%r12d
    1b9b:	44 39 e0             	cmp    %r12d,%eax
    1b9e:	41 0f 4c c4          	cmovl  %r12d,%eax
    1ba2:	44 8d 24 08          	lea    (%rax,%rcx,1),%r12d
    1ba6:	4d 63 f4             	movslq %r12d,%r14
    1ba9:	4c 89 f7             	mov    %r14,%rdi
    1bac:	e8 af f0 ff ff       	callq  c60 <_Znam@plt>
    1bb1:	4c 89 f2             	mov    %r14,%rdx
    1bb4:	31 f6                	xor    %esi,%esi
    1bb6:	48 89 c7             	mov    %rax,%rdi
    1bb9:	49 89 c5             	mov    %rax,%r13
    1bbc:	e8 df f0 ff ff       	callq  ca0 <memset@plt>
    1bc1:	4c 8b 75 00          	mov    0x0(%rbp),%r14
    1bc5:	48 63 55 0c          	movslq 0xc(%rbp),%rdx
    1bc9:	4c 89 ef             	mov    %r13,%rdi
    1bcc:	4c 89 f6             	mov    %r14,%rsi
    1bcf:	e8 0c f1 ff ff       	callq  ce0 <memcpy@plt>
    1bd4:	4c 89 f7             	mov    %r14,%rdi
    1bd7:	e8 94 f1 ff ff       	callq  d70 <_ZdaPv@plt>
    1bdc:	44 89 65 0c          	mov    %r12d,0xc(%rbp)
    1be0:	4c 89 6d 00          	mov    %r13,0x0(%rbp)
    1be4:	e9 67 ff ff ff       	jmpq   1b50 <_ZN6record4scanEP8_IO_FILE+0xd0>
    1be9:	e8 62 f1 ff ff       	callq  d50 <__stack_chk_fail@plt>
    1bee:	66 90                	xchg   %ax,%ax

0000000000001bf0 <_ZN8DatabaseI6recordED1Ev>:
    1bf0:	41 57                	push   %r15
    1bf2:	41 56                	push   %r14
    1bf4:	41 55                	push   %r13
    1bf6:	41 54                	push   %r12
    1bf8:	55                   	push   %rbp
    1bf9:	53                   	push   %rbx
    1bfa:	48 89 fd             	mov    %rdi,%rbp
    1bfd:	48 83 ec 18          	sub    $0x18,%rsp
    1c01:	48 8b 5f 28          	mov    0x28(%rdi),%rbx
    1c05:	48 85 db             	test   %rbx,%rbx
    1c08:	74 27                	je     1c31 <_ZN8DatabaseI6recordED1Ev+0x41>
    1c0a:	4c 8b 63 08          	mov    0x8(%rbx),%r12
    1c0e:	4c 8d 6f 18          	lea    0x18(%rdi),%r13
    1c12:	4d 85 e4             	test   %r12,%r12
    1c15:	0f 85 95 00 00 00    	jne    1cb0 <_ZN8DatabaseI6recordED1Ev+0xc0>
    1c1b:	4c 8b 63 10          	mov    0x10(%rbx),%r12
    1c1f:	4d 85 e4             	test   %r12,%r12
    1c22:	75 64                	jne    1c88 <_ZN8DatabaseI6recordED1Ev+0x98>
    1c24:	be 20 00 00 00       	mov    $0x20,%esi
    1c29:	48 89 df             	mov    %rbx,%rdi
    1c2c:	e8 ff f0 ff ff       	callq  d30 <_ZdlPvm@plt>
    1c31:	48 8b 5d 00          	mov    0x0(%rbp),%rbx
    1c35:	48 85 db             	test   %rbx,%rbx
    1c38:	75 09                	jne    1c43 <_ZN8DatabaseI6recordED1Ev+0x53>
    1c3a:	eb 3a                	jmp    1c76 <_ZN8DatabaseI6recordED1Ev+0x86>
    1c3c:	0f 1f 40 00          	nopl   0x0(%rax)
    1c40:	48 89 eb             	mov    %rbp,%rbx
    1c43:	48 8b 3b             	mov    (%rbx),%rdi
    1c46:	48 8b 6b 20          	mov    0x20(%rbx),%rbp
    1c4a:	48 c7 43 28 00 00 00 	movq   $0x0,0x28(%rbx)
    1c51:	00 
    1c52:	48 c7 43 20 00 00 00 	movq   $0x0,0x20(%rbx)
    1c59:	00 
    1c5a:	48 85 ff             	test   %rdi,%rdi
    1c5d:	74 05                	je     1c64 <_ZN8DatabaseI6recordED1Ev+0x74>
    1c5f:	e8 0c f1 ff ff       	callq  d70 <_ZdaPv@plt>
    1c64:	be 30 00 00 00       	mov    $0x30,%esi
    1c69:	48 89 df             	mov    %rbx,%rdi
    1c6c:	e8 bf f0 ff ff       	callq  d30 <_ZdlPvm@plt>
    1c71:	48 85 ed             	test   %rbp,%rbp
    1c74:	75 ca                	jne    1c40 <_ZN8DatabaseI6recordED1Ev+0x50>
    1c76:	48 83 c4 18          	add    $0x18,%rsp
    1c7a:	5b                   	pop    %rbx
    1c7b:	5d                   	pop    %rbp
    1c7c:	41 5c                	pop    %r12
    1c7e:	41 5d                	pop    %r13
    1c80:	41 5e                	pop    %r14
    1c82:	41 5f                	pop    %r15
    1c84:	c3                   	retq   
    1c85:	0f 1f 00             	nopl   (%rax)
    1c88:	4d 8b 74 24 08       	mov    0x8(%r12),%r14
    1c8d:	4d 85 f6             	test   %r14,%r14
    1c90:	75 7b                	jne    1d0d <_ZN8DatabaseI6recordED1Ev+0x11d>
    1c92:	4d 8b 74 24 10       	mov    0x10(%r12),%r14
    1c97:	4d 85 f6             	test   %r14,%r14
    1c9a:	75 48                	jne    1ce4 <_ZN8DatabaseI6recordED1Ev+0xf4>
    1c9c:	be 20 00 00 00       	mov    $0x20,%esi
    1ca1:	4c 89 e7             	mov    %r12,%rdi
    1ca4:	e8 87 f0 ff ff       	callq  d30 <_ZdlPvm@plt>
    1ca9:	e9 76 ff ff ff       	jmpq   1c24 <_ZN8DatabaseI6recordED1Ev+0x34>
    1cae:	66 90                	xchg   %ax,%ax
    1cb0:	4d 8b 74 24 08       	mov    0x8(%r12),%r14
    1cb5:	4d 85 f6             	test   %r14,%r14
    1cb8:	0f 85 a7 00 00 00    	jne    1d65 <_ZN8DatabaseI6recordED1Ev+0x175>
    1cbe:	4d 8b 74 24 10       	mov    0x10(%r12),%r14
    1cc3:	4d 85 f6             	test   %r14,%r14
    1cc6:	75 71                	jne    1d39 <_ZN8DatabaseI6recordED1Ev+0x149>
    1cc8:	4c 89 e7             	mov    %r12,%rdi
    1ccb:	be 20 00 00 00       	mov    $0x20,%esi
    1cd0:	e8 5b f0 ff ff       	callq  d30 <_ZdlPvm@plt>
    1cd5:	4c 8b 63 10          	mov    0x10(%rbx),%r12
    1cd9:	4d 85 e4             	test   %r12,%r12
    1cdc:	0f 84 42 ff ff ff    	je     1c24 <_ZN8DatabaseI6recordED1Ev+0x34>
    1ce2:	eb a4                	jmp    1c88 <_ZN8DatabaseI6recordED1Ev+0x98>
    1ce4:	4d 8b 7e 08          	mov    0x8(%r14),%r15
    1ce8:	4d 85 ff             	test   %r15,%r15
    1ceb:	0f 85 be 01 00 00    	jne    1eaf <_ZN8DatabaseI6recordED1Ev+0x2bf>
    1cf1:	4d 8b 7e 10          	mov    0x10(%r14),%r15
    1cf5:	4d 85 ff             	test   %r15,%r15
    1cf8:	0f 85 8d 01 00 00    	jne    1e8b <_ZN8DatabaseI6recordED1Ev+0x29b>
    1cfe:	be 20 00 00 00       	mov    $0x20,%esi
    1d03:	4c 89 f7             	mov    %r14,%rdi
    1d06:	e8 25 f0 ff ff       	callq  d30 <_ZdlPvm@plt>
    1d0b:	eb 8f                	jmp    1c9c <_ZN8DatabaseI6recordED1Ev+0xac>
    1d0d:	4d 8b 7e 08          	mov    0x8(%r14),%r15
    1d11:	4d 85 ff             	test   %r15,%r15
    1d14:	0f 85 45 01 00 00    	jne    1e5f <_ZN8DatabaseI6recordED1Ev+0x26f>
    1d1a:	4d 8b 7e 10          	mov    0x10(%r14),%r15
    1d1e:	4d 85 ff             	test   %r15,%r15
    1d21:	0f 85 0c 01 00 00    	jne    1e33 <_ZN8DatabaseI6recordED1Ev+0x243>
    1d27:	be 20 00 00 00       	mov    $0x20,%esi
    1d2c:	4c 89 f7             	mov    %r14,%rdi
    1d2f:	e8 fc ef ff ff       	callq  d30 <_ZdlPvm@plt>
    1d34:	e9 59 ff ff ff       	jmpq   1c92 <_ZN8DatabaseI6recordED1Ev+0xa2>
    1d39:	4d 8b 7e 08          	mov    0x8(%r14),%r15
    1d3d:	4d 85 ff             	test   %r15,%r15
    1d40:	0f 85 c1 00 00 00    	jne    1e07 <_ZN8DatabaseI6recordED1Ev+0x217>
    1d46:	4d 8b 7e 10          	mov    0x10(%r14),%r15
    1d4a:	4d 85 ff             	test   %r15,%r15
    1d4d:	0f 85 88 00 00 00    	jne    1ddb <_ZN8DatabaseI6recordED1Ev+0x1eb>
    1d53:	be 20 00 00 00       	mov    $0x20,%esi
    1d58:	4c 89 f7             	mov    %r14,%rdi
    1d5b:	e8 d0 ef ff ff       	callq  d30 <_ZdlPvm@plt>
    1d60:	e9 63 ff ff ff       	jmpq   1cc8 <_ZN8DatabaseI6recordED1Ev+0xd8>
    1d65:	4d 8b 7e 08          	mov    0x8(%r14),%r15
    1d69:	4d 85 ff             	test   %r15,%r15
    1d6c:	75 44                	jne    1db2 <_ZN8DatabaseI6recordED1Ev+0x1c2>
    1d6e:	4d 8b 7e 10          	mov    0x10(%r14),%r15
    1d72:	4d 85 ff             	test   %r15,%r15
    1d75:	75 12                	jne    1d89 <_ZN8DatabaseI6recordED1Ev+0x199>
    1d77:	be 20 00 00 00       	mov    $0x20,%esi
    1d7c:	4c 89 f7             	mov    %r14,%rdi
    1d7f:	e8 ac ef ff ff       	callq  d30 <_ZdlPvm@plt>
    1d84:	e9 35 ff ff ff       	jmpq   1cbe <_ZN8DatabaseI6recordED1Ev+0xce>
    1d89:	49 8b 47 08          	mov    0x8(%r15),%rax
    1d8d:	48 85 c0             	test   %rax,%rax
    1d90:	0f 85 1a 02 00 00    	jne    1fb0 <_ZN8DatabaseI6recordED1Ev+0x3c0>
    1d96:	49 8b 47 10          	mov    0x10(%r15),%rax
    1d9a:	48 85 c0             	test   %rax,%rax
    1d9d:	0f 85 e1 01 00 00    	jne    1f84 <_ZN8DatabaseI6recordED1Ev+0x394>
    1da3:	be 20 00 00 00       	mov    $0x20,%esi
    1da8:	4c 89 ff             	mov    %r15,%rdi
    1dab:	e8 80 ef ff ff       	callq  d30 <_ZdlPvm@plt>
    1db0:	eb c5                	jmp    1d77 <_ZN8DatabaseI6recordED1Ev+0x187>
    1db2:	49 8b 47 08          	mov    0x8(%r15),%rax
    1db6:	48 85 c0             	test   %rax,%rax
    1db9:	0f 85 51 03 00 00    	jne    2110 <_ZN8DatabaseI6recordED1Ev+0x520>
    1dbf:	49 8b 47 10          	mov    0x10(%r15),%rax
    1dc3:	48 85 c0             	test   %rax,%rax
    1dc6:	0f 85 18 03 00 00    	jne    20e4 <_ZN8DatabaseI6recordED1Ev+0x4f4>
    1dcc:	be 20 00 00 00       	mov    $0x20,%esi
    1dd1:	4c 89 ff             	mov    %r15,%rdi
    1dd4:	e8 57 ef ff ff       	callq  d30 <_ZdlPvm@plt>
    1dd9:	eb 93                	jmp    1d6e <_ZN8DatabaseI6recordED1Ev+0x17e>
    1ddb:	49 8b 47 08          	mov    0x8(%r15),%rax
    1ddf:	48 85 c0             	test   %rax,%rax
    1de2:	0f 85 d0 02 00 00    	jne    20b8 <_ZN8DatabaseI6recordED1Ev+0x4c8>
    1de8:	49 8b 47 10          	mov    0x10(%r15),%rax
    1dec:	48 85 c0             	test   %rax,%rax
    1def:	0f 85 97 02 00 00    	jne    208c <_ZN8DatabaseI6recordED1Ev+0x49c>
    1df5:	be 20 00 00 00       	mov    $0x20,%esi
    1dfa:	4c 89 ff             	mov    %r15,%rdi
    1dfd:	e8 2e ef ff ff       	callq  d30 <_ZdlPvm@plt>
    1e02:	e9 4c ff ff ff       	jmpq   1d53 <_ZN8DatabaseI6recordED1Ev+0x163>
    1e07:	49 8b 47 08          	mov    0x8(%r15),%rax
    1e0b:	48 85 c0             	test   %rax,%rax
    1e0e:	0f 85 4c 02 00 00    	jne    2060 <_ZN8DatabaseI6recordED1Ev+0x470>
    1e14:	49 8b 47 10          	mov    0x10(%r15),%rax
    1e18:	48 85 c0             	test   %rax,%rax
    1e1b:	0f 85 13 02 00 00    	jne    2034 <_ZN8DatabaseI6recordED1Ev+0x444>
    1e21:	be 20 00 00 00       	mov    $0x20,%esi
    1e26:	4c 89 ff             	mov    %r15,%rdi
    1e29:	e8 02 ef ff ff       	callq  d30 <_ZdlPvm@plt>
    1e2e:	e9 13 ff ff ff       	jmpq   1d46 <_ZN8DatabaseI6recordED1Ev+0x156>
    1e33:	49 8b 47 08          	mov    0x8(%r15),%rax
    1e37:	48 85 c0             	test   %rax,%rax
    1e3a:	0f 85 c8 01 00 00    	jne    2008 <_ZN8DatabaseI6recordED1Ev+0x418>
    1e40:	49 8b 47 10          	mov    0x10(%r15),%rax
    1e44:	48 85 c0             	test   %rax,%rax
    1e47:	0f 85 8f 01 00 00    	jne    1fdc <_ZN8DatabaseI6recordED1Ev+0x3ec>
    1e4d:	be 20 00 00 00       	mov    $0x20,%esi
    1e52:	4c 89 ff             	mov    %r15,%rdi
    1e55:	e8 d6 ee ff ff       	callq  d30 <_ZdlPvm@plt>
    1e5a:	e9 c8 fe ff ff       	jmpq   1d27 <_ZN8DatabaseI6recordED1Ev+0x137>
    1e5f:	49 8b 47 08          	mov    0x8(%r15),%rax
    1e63:	48 85 c0             	test   %rax,%rax
    1e66:	0f 85 f4 02 00 00    	jne    2160 <_ZN8DatabaseI6recordED1Ev+0x570>
    1e6c:	49 8b 47 10          	mov    0x10(%r15),%rax
    1e70:	48 85 c0             	test   %rax,%rax
    1e73:	0f 85 c3 02 00 00    	jne    213c <_ZN8DatabaseI6recordED1Ev+0x54c>
    1e79:	be 20 00 00 00       	mov    $0x20,%esi
    1e7e:	4c 89 ff             	mov    %r15,%rdi
    1e81:	e8 aa ee ff ff       	callq  d30 <_ZdlPvm@plt>
    1e86:	e9 8f fe ff ff       	jmpq   1d1a <_ZN8DatabaseI6recordED1Ev+0x12a>
    1e8b:	49 8b 47 08          	mov    0x8(%r15),%rax
    1e8f:	48 85 c0             	test   %rax,%rax
    1e92:	75 6c                	jne    1f00 <_ZN8DatabaseI6recordED1Ev+0x310>
    1e94:	49 8b 47 10          	mov    0x10(%r15),%rax
    1e98:	48 85 c0             	test   %rax,%rax
    1e9b:	75 3a                	jne    1ed7 <_ZN8DatabaseI6recordED1Ev+0x2e7>
    1e9d:	be 20 00 00 00       	mov    $0x20,%esi
    1ea2:	4c 89 ff             	mov    %r15,%rdi
    1ea5:	e8 86 ee ff ff       	callq  d30 <_ZdlPvm@plt>
    1eaa:	e9 4f fe ff ff       	jmpq   1cfe <_ZN8DatabaseI6recordED1Ev+0x10e>
    1eaf:	49 8b 47 08          	mov    0x8(%r15),%rax
    1eb3:	48 85 c0             	test   %rax,%rax
    1eb6:	0f 85 9c 00 00 00    	jne    1f58 <_ZN8DatabaseI6recordED1Ev+0x368>
    1ebc:	49 8b 47 10          	mov    0x10(%r15),%rax
    1ec0:	48 85 c0             	test   %rax,%rax
    1ec3:	75 67                	jne    1f2c <_ZN8DatabaseI6recordED1Ev+0x33c>
    1ec5:	be 20 00 00 00       	mov    $0x20,%esi
    1eca:	4c 89 ff             	mov    %r15,%rdi
    1ecd:	e8 5e ee ff ff       	callq  d30 <_ZdlPvm@plt>
    1ed2:	e9 1a fe ff ff       	jmpq   1cf1 <_ZN8DatabaseI6recordED1Ev+0x101>
    1ed7:	48 8b 70 08          	mov    0x8(%rax),%rsi
    1edb:	48 85 f6             	test   %rsi,%rsi
    1ede:	0f 85 1b 04 00 00    	jne    22ff <_ZN8DatabaseI6recordED1Ev+0x70f>
    1ee4:	48 8b 70 10          	mov    0x10(%rax),%rsi
    1ee8:	48 85 f6             	test   %rsi,%rsi
    1eeb:	0f 85 f7 03 00 00    	jne    22e8 <_ZN8DatabaseI6recordED1Ev+0x6f8>
    1ef1:	be 20 00 00 00       	mov    $0x20,%esi
    1ef6:	48 89 c7             	mov    %rax,%rdi
    1ef9:	e8 32 ee ff ff       	callq  d30 <_ZdlPvm@plt>
    1efe:	eb 9d                	jmp    1e9d <_ZN8DatabaseI6recordED1Ev+0x2ad>
    1f00:	48 8b 70 08          	mov    0x8(%rax),%rsi
    1f04:	48 85 f6             	test   %rsi,%rsi
    1f07:	0f 85 20 04 00 00    	jne    232d <_ZN8DatabaseI6recordED1Ev+0x73d>
    1f0d:	48 8b 70 10          	mov    0x10(%rax),%rsi
    1f11:	48 85 f6             	test   %rsi,%rsi
    1f14:	0f 85 fc 03 00 00    	jne    2316 <_ZN8DatabaseI6recordED1Ev+0x726>
    1f1a:	be 20 00 00 00       	mov    $0x20,%esi
    1f1f:	48 89 c7             	mov    %rax,%rdi
    1f22:	e8 09 ee ff ff       	callq  d30 <_ZdlPvm@plt>
    1f27:	e9 68 ff ff ff       	jmpq   1e94 <_ZN8DatabaseI6recordED1Ev+0x2a4>
    1f2c:	48 8b 70 08          	mov    0x8(%rax),%rsi
    1f30:	48 85 f6             	test   %rsi,%rsi
    1f33:	0f 85 98 03 00 00    	jne    22d1 <_ZN8DatabaseI6recordED1Ev+0x6e1>
    1f39:	48 8b 70 10          	mov    0x10(%rax),%rsi
    1f3d:	48 85 f6             	test   %rsi,%rsi
    1f40:	0f 85 74 03 00 00    	jne    22ba <_ZN8DatabaseI6recordED1Ev+0x6ca>
    1f46:	be 20 00 00 00       	mov    $0x20,%esi
    1f4b:	48 89 c7             	mov    %rax,%rdi
    1f4e:	e8 dd ed ff ff       	callq  d30 <_ZdlPvm@plt>
    1f53:	e9 6d ff ff ff       	jmpq   1ec5 <_ZN8DatabaseI6recordED1Ev+0x2d5>
    1f58:	48 8b 70 08          	mov    0x8(%rax),%rsi
    1f5c:	48 85 f6             	test   %rsi,%rsi
    1f5f:	0f 85 52 04 00 00    	jne    23b7 <_ZN8DatabaseI6recordED1Ev+0x7c7>
    1f65:	48 8b 70 10          	mov    0x10(%rax),%rsi
    1f69:	48 85 f6             	test   %rsi,%rsi
    1f6c:	0f 85 2e 04 00 00    	jne    23a0 <_ZN8DatabaseI6recordED1Ev+0x7b0>
    1f72:	be 20 00 00 00       	mov    $0x20,%esi
    1f77:	48 89 c7             	mov    %rax,%rdi
    1f7a:	e8 b1 ed ff ff       	callq  d30 <_ZdlPvm@plt>
    1f7f:	e9 38 ff ff ff       	jmpq   1ebc <_ZN8DatabaseI6recordED1Ev+0x2cc>
    1f84:	48 8b 70 08          	mov    0x8(%rax),%rsi
    1f88:	48 85 f6             	test   %rsi,%rsi
    1f8b:	0f 85 12 03 00 00    	jne    22a3 <_ZN8DatabaseI6recordED1Ev+0x6b3>
    1f91:	48 8b 70 10          	mov    0x10(%rax),%rsi
    1f95:	48 85 f6             	test   %rsi,%rsi
    1f98:	0f 85 ee 02 00 00    	jne    228c <_ZN8DatabaseI6recordED1Ev+0x69c>
    1f9e:	be 20 00 00 00       	mov    $0x20,%esi
    1fa3:	48 89 c7             	mov    %rax,%rdi
    1fa6:	e8 85 ed ff ff       	callq  d30 <_ZdlPvm@plt>
    1fab:	e9 f3 fd ff ff       	jmpq   1da3 <_ZN8DatabaseI6recordED1Ev+0x1b3>
    1fb0:	48 8b 70 08          	mov    0x8(%rax),%rsi
    1fb4:	48 85 f6             	test   %rsi,%rsi
    1fb7:	0f 85 9e 03 00 00    	jne    235b <_ZN8DatabaseI6recordED1Ev+0x76b>
    1fbd:	48 8b 70 10          	mov    0x10(%rax),%rsi
    1fc1:	48 85 f6             	test   %rsi,%rsi
    1fc4:	0f 85 7a 03 00 00    	jne    2344 <_ZN8DatabaseI6recordED1Ev+0x754>
    1fca:	be 20 00 00 00       	mov    $0x20,%esi
    1fcf:	48 89 c7             	mov    %rax,%rdi
    1fd2:	e8 59 ed ff ff       	callq  d30 <_ZdlPvm@plt>
    1fd7:	e9 ba fd ff ff       	jmpq   1d96 <_ZN8DatabaseI6recordED1Ev+0x1a6>
    1fdc:	48 8b 70 08          	mov    0x8(%rax),%rsi
    1fe0:	48 85 f6             	test   %rsi,%rsi
    1fe3:	0f 85 8c 02 00 00    	jne    2275 <_ZN8DatabaseI6recordED1Ev+0x685>
    1fe9:	48 8b 70 10          	mov    0x10(%rax),%rsi
    1fed:	48 85 f6             	test   %rsi,%rsi
    1ff0:	0f 85 68 02 00 00    	jne    225e <_ZN8DatabaseI6recordED1Ev+0x66e>
    1ff6:	be 20 00 00 00       	mov    $0x20,%esi
    1ffb:	48 89 c7             	mov    %rax,%rdi
    1ffe:	e8 2d ed ff ff       	callq  d30 <_ZdlPvm@plt>
    2003:	e9 45 fe ff ff       	jmpq   1e4d <_ZN8DatabaseI6recordED1Ev+0x25d>
    2008:	48 8b 70 08          	mov    0x8(%rax),%rsi
    200c:	48 85 f6             	test   %rsi,%rsi
    200f:	0f 85 fe 03 00 00    	jne    2413 <_ZN8DatabaseI6recordED1Ev+0x823>
    2015:	48 8b 70 10          	mov    0x10(%rax),%rsi
    2019:	48 85 f6             	test   %rsi,%rsi
    201c:	0f 85 da 03 00 00    	jne    23fc <_ZN8DatabaseI6recordED1Ev+0x80c>
    2022:	be 20 00 00 00       	mov    $0x20,%esi
    2027:	48 89 c7             	mov    %rax,%rdi
    202a:	e8 01 ed ff ff       	callq  d30 <_ZdlPvm@plt>
    202f:	e9 0c fe ff ff       	jmpq   1e40 <_ZN8DatabaseI6recordED1Ev+0x250>
    2034:	48 8b 70 08          	mov    0x8(%rax),%rsi
    2038:	48 85 f6             	test   %rsi,%rsi
    203b:	0f 85 06 02 00 00    	jne    2247 <_ZN8DatabaseI6recordED1Ev+0x657>
    2041:	48 8b 70 10          	mov    0x10(%rax),%rsi
    2045:	48 85 f6             	test   %rsi,%rsi
    2048:	0f 85 e2 01 00 00    	jne    2230 <_ZN8DatabaseI6recordED1Ev+0x640>
    204e:	be 20 00 00 00       	mov    $0x20,%esi
    2053:	48 89 c7             	mov    %rax,%rdi
    2056:	e8 d5 ec ff ff       	callq  d30 <_ZdlPvm@plt>
    205b:	e9 c1 fd ff ff       	jmpq   1e21 <_ZN8DatabaseI6recordED1Ev+0x231>
    2060:	48 8b 70 08          	mov    0x8(%rax),%rsi
    2064:	48 85 f6             	test   %rsi,%rsi
    2067:	0f 85 1c 03 00 00    	jne    2389 <_ZN8DatabaseI6recordED1Ev+0x799>
    206d:	48 8b 70 10          	mov    0x10(%rax),%rsi
    2071:	48 85 f6             	test   %rsi,%rsi
    2074:	0f 85 f8 02 00 00    	jne    2372 <_ZN8DatabaseI6recordED1Ev+0x782>
    207a:	be 20 00 00 00       	mov    $0x20,%esi
    207f:	48 89 c7             	mov    %rax,%rdi
    2082:	e8 a9 ec ff ff       	callq  d30 <_ZdlPvm@plt>
    2087:	e9 88 fd ff ff       	jmpq   1e14 <_ZN8DatabaseI6recordED1Ev+0x224>
    208c:	48 8b 70 08          	mov    0x8(%rax),%rsi
    2090:	48 85 f6             	test   %rsi,%rsi
    2093:	0f 85 80 01 00 00    	jne    2219 <_ZN8DatabaseI6recordED1Ev+0x629>
    2099:	48 8b 70 10          	mov    0x10(%rax),%rsi
    209d:	48 85 f6             	test   %rsi,%rsi
    20a0:	0f 85 5c 01 00 00    	jne    2202 <_ZN8DatabaseI6recordED1Ev+0x612>
    20a6:	be 20 00 00 00       	mov    $0x20,%esi
    20ab:	48 89 c7             	mov    %rax,%rdi
    20ae:	e8 7d ec ff ff       	callq  d30 <_ZdlPvm@plt>
    20b3:	e9 3d fd ff ff       	jmpq   1df5 <_ZN8DatabaseI6recordED1Ev+0x205>
    20b8:	48 8b 70 08          	mov    0x8(%rax),%rsi
    20bc:	48 85 f6             	test   %rsi,%rsi
    20bf:	0f 85 20 03 00 00    	jne    23e5 <_ZN8DatabaseI6recordED1Ev+0x7f5>
    20c5:	48 8b 70 10          	mov    0x10(%rax),%rsi
    20c9:	48 85 f6             	test   %rsi,%rsi
    20cc:	0f 85 fc 02 00 00    	jne    23ce <_ZN8DatabaseI6recordED1Ev+0x7de>
    20d2:	be 20 00 00 00       	mov    $0x20,%esi
    20d7:	48 89 c7             	mov    %rax,%rdi
    20da:	e8 51 ec ff ff       	callq  d30 <_ZdlPvm@plt>
    20df:	e9 04 fd ff ff       	jmpq   1de8 <_ZN8DatabaseI6recordED1Ev+0x1f8>
    20e4:	48 8b 70 08          	mov    0x8(%rax),%rsi
    20e8:	48 85 f6             	test   %rsi,%rsi
    20eb:	0f 85 fa 00 00 00    	jne    21eb <_ZN8DatabaseI6recordED1Ev+0x5fb>
    20f1:	48 8b 70 10          	mov    0x10(%rax),%rsi
    20f5:	48 85 f6             	test   %rsi,%rsi
    20f8:	0f 85 d6 00 00 00    	jne    21d4 <_ZN8DatabaseI6recordED1Ev+0x5e4>
    20fe:	be 20 00 00 00       	mov    $0x20,%esi
    2103:	48 89 c7             	mov    %rax,%rdi
    2106:	e8 25 ec ff ff       	callq  d30 <_ZdlPvm@plt>
    210b:	e9 bc fc ff ff       	jmpq   1dcc <_ZN8DatabaseI6recordED1Ev+0x1dc>
    2110:	48 8b 70 08          	mov    0x8(%rax),%rsi
    2114:	48 85 f6             	test   %rsi,%rsi
    2117:	0f 85 24 03 00 00    	jne    2441 <_ZN8DatabaseI6recordED1Ev+0x851>
    211d:	48 8b 70 10          	mov    0x10(%rax),%rsi
    2121:	48 85 f6             	test   %rsi,%rsi
    2124:	0f 85 00 03 00 00    	jne    242a <_ZN8DatabaseI6recordED1Ev+0x83a>
    212a:	be 20 00 00 00       	mov    $0x20,%esi
    212f:	48 89 c7             	mov    %rax,%rdi
    2132:	e8 f9 eb ff ff       	callq  d30 <_ZdlPvm@plt>
    2137:	e9 83 fc ff ff       	jmpq   1dbf <_ZN8DatabaseI6recordED1Ev+0x1cf>
    213c:	48 8b 70 08          	mov    0x8(%rax),%rsi
    2140:	48 85 f6             	test   %rsi,%rsi
    2143:	75 53                	jne    2198 <_ZN8DatabaseI6recordED1Ev+0x5a8>
    2145:	48 8b 70 10          	mov    0x10(%rax),%rsi
    2149:	48 85 f6             	test   %rsi,%rsi
    214c:	75 36                	jne    2184 <_ZN8DatabaseI6recordED1Ev+0x594>
    214e:	be 20 00 00 00       	mov    $0x20,%esi
    2153:	48 89 c7             	mov    %rax,%rdi
    2156:	e8 d5 eb ff ff       	callq  d30 <_ZdlPvm@plt>
    215b:	e9 19 fd ff ff       	jmpq   1e79 <_ZN8DatabaseI6recordED1Ev+0x289>
    2160:	48 8b 70 08          	mov    0x8(%rax),%rsi
    2164:	48 85 f6             	test   %rsi,%rsi
    2167:	75 57                	jne    21c0 <_ZN8DatabaseI6recordED1Ev+0x5d0>
    2169:	48 8b 70 10          	mov    0x10(%rax),%rsi
    216d:	48 85 f6             	test   %rsi,%rsi
    2170:	75 3a                	jne    21ac <_ZN8DatabaseI6recordED1Ev+0x5bc>
    2172:	be 20 00 00 00       	mov    $0x20,%esi
    2177:	48 89 c7             	mov    %rax,%rdi
    217a:	e8 b1 eb ff ff       	callq  d30 <_ZdlPvm@plt>
    217f:	e9 e8 fc ff ff       	jmpq   1e6c <_ZN8DatabaseI6recordED1Ev+0x27c>
    2184:	4c 89 ef             	mov    %r13,%rdi
    2187:	48 89 44 24 08       	mov    %rax,0x8(%rsp)
    218c:	e8 2f f8 ff ff       	callq  19c0 <_ZN8avl_treeI9list_nodeI6recordEE11delete_treeEP8avl_nodeIS2_E.part.14>
    2191:	48 8b 44 24 08       	mov    0x8(%rsp),%rax
    2196:	eb b6                	jmp    214e <_ZN8DatabaseI6recordED1Ev+0x55e>
    2198:	4c 89 ef             	mov    %r13,%rdi
    219b:	48 89 44 24 08       	mov    %rax,0x8(%rsp)
    21a0:	e8 1b f8 ff ff       	callq  19c0 <_ZN8avl_treeI9list_nodeI6recordEE11delete_treeEP8avl_nodeIS2_E.part.14>
    21a5:	48 8b 44 24 08       	mov    0x8(%rsp),%rax
    21aa:	eb 99                	jmp    2145 <_ZN8DatabaseI6recordED1Ev+0x555>
    21ac:	4c 89 ef             	mov    %r13,%rdi
    21af:	48 89 44 24 08       	mov    %rax,0x8(%rsp)
    21b4:	e8 07 f8 ff ff       	callq  19c0 <_ZN8avl_treeI9list_nodeI6recordEE11delete_treeEP8avl_nodeIS2_E.part.14>
    21b9:	48 8b 44 24 08       	mov    0x8(%rsp),%rax
    21be:	eb b2                	jmp    2172 <_ZN8DatabaseI6recordED1Ev+0x582>
    21c0:	4c 89 ef             	mov    %r13,%rdi
    21c3:	48 89 44 24 08       	mov    %rax,0x8(%rsp)
    21c8:	e8 f3 f7 ff ff       	callq  19c0 <_ZN8avl_treeI9list_nodeI6recordEE11delete_treeEP8avl_nodeIS2_E.part.14>
    21cd:	48 8b 44 24 08       	mov    0x8(%rsp),%rax
    21d2:	eb 95                	jmp    2169 <_ZN8DatabaseI6recordED1Ev+0x579>
    21d4:	4c 89 ef             	mov    %r13,%rdi
    21d7:	48 89 44 24 08       	mov    %rax,0x8(%rsp)
    21dc:	e8 df f7 ff ff       	callq  19c0 <_ZN8avl_treeI9list_nodeI6recordEE11delete_treeEP8avl_nodeIS2_E.part.14>
    21e1:	48 8b 44 24 08       	mov    0x8(%rsp),%rax
    21e6:	e9 13 ff ff ff       	jmpq   20fe <_ZN8DatabaseI6recordED1Ev+0x50e>
    21eb:	4c 89 ef             	mov    %r13,%rdi
    21ee:	48 89 44 24 08       	mov    %rax,0x8(%rsp)
    21f3:	e8 c8 f7 ff ff       	callq  19c0 <_ZN8avl_treeI9list_nodeI6recordEE11delete_treeEP8avl_nodeIS2_E.part.14>
    21f8:	48 8b 44 24 08       	mov    0x8(%rsp),%rax
    21fd:	e9 ef fe ff ff       	jmpq   20f1 <_ZN8DatabaseI6recordED1Ev+0x501>
    2202:	4c 89 ef             	mov    %r13,%rdi
    2205:	48 89 44 24 08       	mov    %rax,0x8(%rsp)
    220a:	e8 b1 f7 ff ff       	callq  19c0 <_ZN8avl_treeI9list_nodeI6recordEE11delete_treeEP8avl_nodeIS2_E.part.14>
    220f:	48 8b 44 24 08       	mov    0x8(%rsp),%rax
    2214:	e9 8d fe ff ff       	jmpq   20a6 <_ZN8DatabaseI6recordED1Ev+0x4b6>
    2219:	4c 89 ef             	mov    %r13,%rdi
    221c:	48 89 44 24 08       	mov    %rax,0x8(%rsp)
    2221:	e8 9a f7 ff ff       	callq  19c0 <_ZN8avl_treeI9list_nodeI6recordEE11delete_treeEP8avl_nodeIS2_E.part.14>
    2226:	48 8b 44 24 08       	mov    0x8(%rsp),%rax
    222b:	e9 69 fe ff ff       	jmpq   2099 <_ZN8DatabaseI6recordED1Ev+0x4a9>
    2230:	4c 89 ef             	mov    %r13,%rdi
    2233:	48 89 44 24 08       	mov    %rax,0x8(%rsp)
    2238:	e8 83 f7 ff ff       	callq  19c0 <_ZN8avl_treeI9list_nodeI6recordEE11delete_treeEP8avl_nodeIS2_E.part.14>
    223d:	48 8b 44 24 08       	mov    0x8(%rsp),%rax
    2242:	e9 07 fe ff ff       	jmpq   204e <_ZN8DatabaseI6recordED1Ev+0x45e>
    2247:	4c 89 ef             	mov    %r13,%rdi
    224a:	48 89 44 24 08       	mov    %rax,0x8(%rsp)
    224f:	e8 6c f7 ff ff       	callq  19c0 <_ZN8avl_treeI9list_nodeI6recordEE11delete_treeEP8avl_nodeIS2_E.part.14>
    2254:	48 8b 44 24 08       	mov    0x8(%rsp),%rax
    2259:	e9 e3 fd ff ff       	jmpq   2041 <_ZN8DatabaseI6recordED1Ev+0x451>
    225e:	4c 89 ef             	mov    %r13,%rdi
    2261:	48 89 44 24 08       	mov    %rax,0x8(%rsp)
    2266:	e8 55 f7 ff ff       	callq  19c0 <_ZN8avl_treeI9list_nodeI6recordEE11delete_treeEP8avl_nodeIS2_E.part.14>
    226b:	48 8b 44 24 08       	mov    0x8(%rsp),%rax
    2270:	e9 81 fd ff ff       	jmpq   1ff6 <_ZN8DatabaseI6recordED1Ev+0x406>
    2275:	4c 89 ef             	mov    %r13,%rdi
    2278:	48 89 44 24 08       	mov    %rax,0x8(%rsp)
    227d:	e8 3e f7 ff ff       	callq  19c0 <_ZN8avl_treeI9list_nodeI6recordEE11delete_treeEP8avl_nodeIS2_E.part.14>
    2282:	48 8b 44 24 08       	mov    0x8(%rsp),%rax
    2287:	e9 5d fd ff ff       	jmpq   1fe9 <_ZN8DatabaseI6recordED1Ev+0x3f9>
    228c:	4c 89 ef             	mov    %r13,%rdi
    228f:	48 89 44 24 08       	mov    %rax,0x8(%rsp)
    2294:	e8 27 f7 ff ff       	callq  19c0 <_ZN8avl_treeI9list_nodeI6recordEE11delete_treeEP8avl_nodeIS2_E.part.14>
    2299:	48 8b 44 24 08       	mov    0x8(%rsp),%rax
    229e:	e9 fb fc ff ff       	jmpq   1f9e <_ZN8DatabaseI6recordED1Ev+0x3ae>
    22a3:	4c 89 ef             	mov    %r13,%rdi
    22a6:	48 89 44 24 08       	mov    %rax,0x8(%rsp)
    22ab:	e8 10 f7 ff ff       	callq  19c0 <_ZN8avl_treeI9list_nodeI6recordEE11delete_treeEP8avl_nodeIS2_E.part.14>
    22b0:	48 8b 44 24 08       	mov    0x8(%rsp),%rax
    22b5:	e9 d7 fc ff ff       	jmpq   1f91 <_ZN8DatabaseI6recordED1Ev+0x3a1>
    22ba:	4c 89 ef             	mov    %r13,%rdi
    22bd:	48 89 44 24 08       	mov    %rax,0x8(%rsp)
    22c2:	e8 f9 f6 ff ff       	callq  19c0 <_ZN8avl_treeI9list_nodeI6recordEE11delete_treeEP8avl_nodeIS2_E.part.14>
    22c7:	48 8b 44 24 08       	mov    0x8(%rsp),%rax
    22cc:	e9 75 fc ff ff       	jmpq   1f46 <_ZN8DatabaseI6recordED1Ev+0x356>
    22d1:	4c 89 ef             	mov    %r13,%rdi
    22d4:	48 89 44 24 08       	mov    %rax,0x8(%rsp)
    22d9:	e8 e2 f6 ff ff       	callq  19c0 <_ZN8avl_treeI9list_nodeI6recordEE11delete_treeEP8avl_nodeIS2_E.part.14>
    22de:	48 8b 44 24 08       	mov    0x8(%rsp),%rax
    22e3:	e9 51 fc ff ff       	jmpq   1f39 <_ZN8DatabaseI6recordED1Ev+0x349>
    22e8:	4c 89 ef             	mov    %r13,%rdi
    22eb:	48 89 44 24 08       	mov    %rax,0x8(%rsp)
    22f0:	e8 cb f6 ff ff       	callq  19c0 <_ZN8avl_treeI9list_nodeI6recordEE11delete_treeEP8avl_nodeIS2_E.part.14>
    22f5:	48 8b 44 24 08       	mov    0x8(%rsp),%rax
    22fa:	e9 f2 fb ff ff       	jmpq   1ef1 <_ZN8DatabaseI6recordED1Ev+0x301>
    22ff:	4c 89 ef             	mov    %r13,%rdi
    2302:	48 89 44 24 08       	mov    %rax,0x8(%rsp)
    2307:	e8 b4 f6 ff ff       	callq  19c0 <_ZN8avl_treeI9list_nodeI6recordEE11delete_treeEP8avl_nodeIS2_E.part.14>
    230c:	48 8b 44 24 08       	mov    0x8(%rsp),%rax
    2311:	e9 ce fb ff ff       	jmpq   1ee4 <_ZN8DatabaseI6recordED1Ev+0x2f4>
    2316:	4c 89 ef             	mov    %r13,%rdi
    2319:	48 89 44 24 08       	mov    %rax,0x8(%rsp)
    231e:	e8 9d f6 ff ff       	callq  19c0 <_ZN8avl_treeI9list_nodeI6recordEE11delete_treeEP8avl_nodeIS2_E.part.14>
    2323:	48 8b 44 24 08       	mov    0x8(%rsp),%rax
    2328:	e9 ed fb ff ff       	jmpq   1f1a <_ZN8DatabaseI6recordED1Ev+0x32a>
    232d:	4c 89 ef             	mov    %r13,%rdi
    2330:	48 89 44 24 08       	mov    %rax,0x8(%rsp)
    2335:	e8 86 f6 ff ff       	callq  19c0 <_ZN8avl_treeI9list_nodeI6recordEE11delete_treeEP8avl_nodeIS2_E.part.14>
    233a:	48 8b 44 24 08       	mov    0x8(%rsp),%rax
    233f:	e9 c9 fb ff ff       	jmpq   1f0d <_ZN8DatabaseI6recordED1Ev+0x31d>
    2344:	4c 89 ef             	mov    %r13,%rdi
    2347:	48 89 44 24 08       	mov    %rax,0x8(%rsp)
    234c:	e8 6f f6 ff ff       	callq  19c0 <_ZN8avl_treeI9list_nodeI6recordEE11delete_treeEP8avl_nodeIS2_E.part.14>
    2351:	48 8b 44 24 08       	mov    0x8(%rsp),%rax
    2356:	e9 6f fc ff ff       	jmpq   1fca <_ZN8DatabaseI6recordED1Ev+0x3da>
    235b:	4c 89 ef             	mov    %r13,%rdi
    235e:	48 89 44 24 08       	mov    %rax,0x8(%rsp)
    2363:	e8 58 f6 ff ff       	callq  19c0 <_ZN8avl_treeI9list_nodeI6recordEE11delete_treeEP8avl_nodeIS2_E.part.14>
    2368:	48 8b 44 24 08       	mov    0x8(%rsp),%rax
    236d:	e9 4b fc ff ff       	jmpq   1fbd <_ZN8DatabaseI6recordED1Ev+0x3cd>
    2372:	4c 89 ef             	mov    %r13,%rdi
    2375:	48 89 44 24 08       	mov    %rax,0x8(%rsp)
    237a:	e8 41 f6 ff ff       	callq  19c0 <_ZN8avl_treeI9list_nodeI6recordEE11delete_treeEP8avl_nodeIS2_E.part.14>
    237f:	48 8b 44 24 08       	mov    0x8(%rsp),%rax
    2384:	e9 f1 fc ff ff       	jmpq   207a <_ZN8DatabaseI6recordED1Ev+0x48a>
    2389:	4c 89 ef             	mov    %r13,%rdi
    238c:	48 89 44 24 08       	mov    %rax,0x8(%rsp)
    2391:	e8 2a f6 ff ff       	callq  19c0 <_ZN8avl_treeI9list_nodeI6recordEE11delete_treeEP8avl_nodeIS2_E.part.14>
    2396:	48 8b 44 24 08       	mov    0x8(%rsp),%rax
    239b:	e9 cd fc ff ff       	jmpq   206d <_ZN8DatabaseI6recordED1Ev+0x47d>
    23a0:	4c 89 ef             	mov    %r13,%rdi
    23a3:	48 89 44 24 08       	mov    %rax,0x8(%rsp)
    23a8:	e8 13 f6 ff ff       	callq  19c0 <_ZN8avl_treeI9list_nodeI6recordEE11delete_treeEP8avl_nodeIS2_E.part.14>
    23ad:	48 8b 44 24 08       	mov    0x8(%rsp),%rax
    23b2:	e9 bb fb ff ff       	jmpq   1f72 <_ZN8DatabaseI6recordED1Ev+0x382>
    23b7:	4c 89 ef             	mov    %r13,%rdi
    23ba:	48 89 44 24 08       	mov    %rax,0x8(%rsp)
    23bf:	e8 fc f5 ff ff       	callq  19c0 <_ZN8avl_treeI9list_nodeI6recordEE11delete_treeEP8avl_nodeIS2_E.part.14>
    23c4:	48 8b 44 24 08       	mov    0x8(%rsp),%rax
    23c9:	e9 97 fb ff ff       	jmpq   1f65 <_ZN8DatabaseI6recordED1Ev+0x375>
    23ce:	4c 89 ef             	mov    %r13,%rdi
    23d1:	48 89 44 24 08       	mov    %rax,0x8(%rsp)
    23d6:	e8 e5 f5 ff ff       	callq  19c0 <_ZN8avl_treeI9list_nodeI6recordEE11delete_treeEP8avl_nodeIS2_E.part.14>
    23db:	48 8b 44 24 08       	mov    0x8(%rsp),%rax
    23e0:	e9 ed fc ff ff       	jmpq   20d2 <_ZN8DatabaseI6recordED1Ev+0x4e2>
    23e5:	4c 89 ef             	mov    %r13,%rdi
    23e8:	48 89 44 24 08       	mov    %rax,0x8(%rsp)
    23ed:	e8 ce f5 ff ff       	callq  19c0 <_ZN8avl_treeI9list_nodeI6recordEE11delete_treeEP8avl_nodeIS2_E.part.14>
    23f2:	48 8b 44 24 08       	mov    0x8(%rsp),%rax
    23f7:	e9 c9 fc ff ff       	jmpq   20c5 <_ZN8DatabaseI6recordED1Ev+0x4d5>
    23fc:	4c 89 ef             	mov    %r13,%rdi
    23ff:	48 89 44 24 08       	mov    %rax,0x8(%rsp)
    2404:	e8 b7 f5 ff ff       	callq  19c0 <_ZN8avl_treeI9list_nodeI6recordEE11delete_treeEP8avl_nodeIS2_E.part.14>
    2409:	48 8b 44 24 08       	mov    0x8(%rsp),%rax
    240e:	e9 0f fc ff ff       	jmpq   2022 <_ZN8DatabaseI6recordED1Ev+0x432>
    2413:	4c 89 ef             	mov    %r13,%rdi
    2416:	48 89 44 24 08       	mov    %rax,0x8(%rsp)
    241b:	e8 a0 f5 ff ff       	callq  19c0 <_ZN8avl_treeI9list_nodeI6recordEE11delete_treeEP8avl_nodeIS2_E.part.14>
    2420:	48 8b 44 24 08       	mov    0x8(%rsp),%rax
    2425:	e9 eb fb ff ff       	jmpq   2015 <_ZN8DatabaseI6recordED1Ev+0x425>
    242a:	4c 89 ef             	mov    %r13,%rdi
    242d:	48 89 44 24 08       	mov    %rax,0x8(%rsp)
    2432:	e8 89 f5 ff ff       	callq  19c0 <_ZN8avl_treeI9list_nodeI6recordEE11delete_treeEP8avl_nodeIS2_E.part.14>
    2437:	48 8b 44 24 08       	mov    0x8(%rsp),%rax
    243c:	e9 e9 fc ff ff       	jmpq   212a <_ZN8DatabaseI6recordED1Ev+0x53a>
    2441:	4c 89 ef             	mov    %r13,%rdi
    2444:	48 89 44 24 08       	mov    %rax,0x8(%rsp)
    2449:	e8 72 f5 ff ff       	callq  19c0 <_ZN8avl_treeI9list_nodeI6recordEE11delete_treeEP8avl_nodeIS2_E.part.14>
    244e:	48 8b 44 24 08       	mov    0x8(%rsp),%rax
    2453:	e9 c5 fc ff ff       	jmpq   211d <_ZN8DatabaseI6recordED1Ev+0x52d>
    2458:	0f 1f 84 00 00 00 00 	nopl   0x0(%rax,%rax,1)
    245f:	00 

0000000000002460 <_ZN8DatabaseI6recordE14init_from_fileEPKc>:
    2460:	41 57                	push   %r15
    2462:	41 56                	push   %r14
    2464:	41 55                	push   %r13
    2466:	41 54                	push   %r12
    2468:	55                   	push   %rbp
    2469:	53                   	push   %rbx
    246a:	48 81 ec 98 00 00 00 	sub    $0x98,%rsp
    2471:	48 89 7c 24 18       	mov    %rdi,0x18(%rsp)
    2476:	48 89 f7             	mov    %rsi,%rdi
    2479:	48 8d 35 ec 5b 00 00 	lea    0x5bec(%rip),%rsi        # 806c <_IO_stdin_used+0x56c>
    2480:	64 48 8b 04 25 28 00 	mov    %fs:0x28,%rax
    2487:	00 00 
    2489:	48 89 84 24 88 00 00 	mov    %rax,0x88(%rsp)
    2490:	00 
    2491:	31 c0                	xor    %eax,%eax
    2493:	e8 c8 e8 ff ff       	callq  d60 <fopen@plt>
    2498:	48 85 c0             	test   %rax,%rax
    249b:	48 89 44 24 30       	mov    %rax,0x30(%rsp)
    24a0:	0f 84 0e 04 00 00    	je     28b4 <_ZN8DatabaseI6recordE14init_from_fileEPKc+0x454>
    24a6:	48 8d 44 24 40       	lea    0x40(%rsp),%rax
    24ab:	48 c7 44 24 40 00 00 	movq   $0x0,0x40(%rsp)
    24b2:	00 00 
    24b4:	48 c7 44 24 48 00 00 	movq   $0x0,0x48(%rsp)
    24bb:	00 00 
    24bd:	48 c7 44 24 50 00 00 	movq   $0x0,0x50(%rsp)
    24c4:	00 00 
    24c6:	c7 44 24 58 00 00 00 	movl   $0x0,0x58(%rsp)
    24cd:	00 
    24ce:	48 89 44 24 38       	mov    %rax,0x38(%rsp)
    24d3:	0f 1f 44 00 00       	nopl   0x0(%rax,%rax,1)
    24d8:	48 8b 74 24 30       	mov    0x30(%rsp),%rsi
    24dd:	48 8b 7c 24 38       	mov    0x38(%rsp),%rdi
    24e2:	e8 99 f5 ff ff       	callq  1a80 <_ZN6record4scanEP8_IO_FILE>
    24e7:	85 c0                	test   %eax,%eax
    24e9:	0f 84 01 03 00 00    	je     27f0 <_ZN8DatabaseI6recordE14init_from_fileEPKc+0x390>
    24ef:	bf 30 00 00 00       	mov    $0x30,%edi
    24f4:	e8 27 e8 ff ff       	callq  d20 <_Znwm@plt>
    24f9:	48 63 6c 24 4c       	movslq 0x4c(%rsp),%rbp
    24fe:	49 89 c7             	mov    %rax,%r15
    2501:	48 89 44 24 20       	mov    %rax,0x20(%rsp)
    2506:	8b 5c 24 48          	mov    0x48(%rsp),%ebx
    250a:	48 89 ef             	mov    %rbp,%rdi
    250d:	e8 4e e7 ff ff       	callq  c60 <_Znam@plt>
    2512:	31 f6                	xor    %esi,%esi
    2514:	48 89 ea             	mov    %rbp,%rdx
    2517:	48 89 c7             	mov    %rax,%rdi
    251a:	49 89 07             	mov    %rax,(%r15)
    251d:	41 89 5f 08          	mov    %ebx,0x8(%r15)
    2521:	49 89 c6             	mov    %rax,%r14
    2524:	41 89 6f 0c          	mov    %ebp,0xc(%r15)
    2528:	48 89 04 24          	mov    %rax,(%rsp)
    252c:	e8 6f e7 ff ff       	callq  ca0 <memset@plt>
    2531:	48 8b 74 24 40       	mov    0x40(%rsp),%rsi
    2536:	48 63 d3             	movslq %ebx,%rdx
    2539:	4c 89 f7             	mov    %r14,%rdi
    253c:	e8 9f e7 ff ff       	callq  ce0 <memcpy@plt>
    2541:	48 8b 44 24 50       	mov    0x50(%rsp),%rax
    2546:	48 8b 4c 24 18       	mov    0x18(%rsp),%rcx
    254b:	49 c7 47 28 00 00 00 	movq   $0x0,0x28(%r15)
    2552:	00 
    2553:	49 c7 47 20 00 00 00 	movq   $0x0,0x20(%r15)
    255a:	00 
    255b:	48 89 44 24 10       	mov    %rax,0x10(%rsp)
    2560:	49 89 47 10          	mov    %rax,0x10(%r15)
    2564:	8b 44 24 58          	mov    0x58(%rsp),%eax
    2568:	89 44 24 2c          	mov    %eax,0x2c(%rsp)
    256c:	41 89 47 18          	mov    %eax,0x18(%r15)
    2570:	48 8b 41 08          	mov    0x8(%rcx),%rax
    2574:	48 85 c0             	test   %rax,%rax
    2577:	0f 84 e3 01 00 00    	je     2760 <_ZN8DatabaseI6recordE14init_from_fileEPKc+0x300>
    257d:	49 89 47 28          	mov    %rax,0x28(%r15)
    2581:	4c 89 78 20          	mov    %r15,0x20(%rax)
    2585:	48 89 c8             	mov    %rcx,%rax
    2588:	4c 89 79 08          	mov    %r15,0x8(%rcx)
    258c:	4c 8b 68 28          	mov    0x28(%rax),%r13
    2590:	83 40 10 01          	addl   $0x1,0x10(%rax)
    2594:	4d 8b 7d 08          	mov    0x8(%r13),%r15
    2598:	4c 89 6c 24 08       	mov    %r13,0x8(%rsp)
    259d:	4d 85 ff             	test   %r15,%r15
    25a0:	0f 84 b0 00 00 00    	je     2656 <_ZN8DatabaseI6recordE14init_from_fileEPKc+0x1f6>
    25a6:	4c 89 fb             	mov    %r15,%rbx
    25a9:	45 31 e4             	xor    %r12d,%r12d
    25ac:	eb 26                	jmp    25d4 <_ZN8DatabaseI6recordE14init_from_fileEPKc+0x174>
    25ae:	66 90                	xchg   %ax,%ax
    25b0:	42 88 44 24 60       	mov    %al,0x60(%rsp,%r12,1)
    25b5:	48 63 c5             	movslq %ebp,%rax
    25b8:	41 8d 54 24 01       	lea    0x1(%r12),%edx
    25bd:	48 8b 44 c3 08       	mov    0x8(%rbx,%rax,8),%rax
    25c2:	48 85 c0             	test   %rax,%rax
    25c5:	0f 84 95 00 00 00    	je     2660 <_ZN8DatabaseI6recordE14init_from_fileEPKc+0x200>
    25cb:	49 89 dd             	mov    %rbx,%r13
    25ce:	4c 63 e2             	movslq %edx,%r12
    25d1:	48 89 c3             	mov    %rax,%rbx
    25d4:	4c 8b 33             	mov    (%rbx),%r14
    25d7:	48 8b 3c 24          	mov    (%rsp),%rdi
    25db:	49 8b 36             	mov    (%r14),%rsi
    25de:	e8 9d e7 ff ff       	callq  d80 <strcmp@plt>
    25e3:	48 63 e8             	movslq %eax,%rbp
    25e6:	83 fd 00             	cmp    $0x0,%ebp
    25e9:	7e 35                	jle    2620 <_ZN8DatabaseI6recordE14init_from_fileEPKc+0x1c0>
    25eb:	b8 01 00 00 00       	mov    $0x1,%eax
    25f0:	bd 01 00 00 00       	mov    $0x1,%ebp
    25f5:	8b 53 18             	mov    0x18(%rbx),%edx
    25f8:	85 d2                	test   %edx,%edx
    25fa:	74 b4                	je     25b0 <_ZN8DatabaseI6recordE14init_from_fileEPKc+0x150>
    25fc:	88 44 24 60          	mov    %al,0x60(%rsp)
    2600:	48 63 c5             	movslq %ebp,%rax
    2603:	4c 89 6c 24 08       	mov    %r13,0x8(%rsp)
    2608:	48 8b 44 c3 08       	mov    0x8(%rbx,%rax,8),%rax
    260d:	49 89 df             	mov    %rbx,%r15
    2610:	48 85 c0             	test   %rax,%rax
    2613:	74 4b                	je     2660 <_ZN8DatabaseI6recordE14init_from_fileEPKc+0x200>
    2615:	ba 01 00 00 00       	mov    $0x1,%edx
    261a:	eb af                	jmp    25cb <_ZN8DatabaseI6recordE14init_from_fileEPKc+0x16b>
    261c:	0f 1f 40 00          	nopl   0x0(%rax)
    2620:	75 2e                	jne    2650 <_ZN8DatabaseI6recordE14init_from_fileEPKc+0x1f0>
    2622:	8b 44 24 10          	mov    0x10(%rsp),%eax
    2626:	41 2b 46 10          	sub    0x10(%r14),%eax
    262a:	83 f8 00             	cmp    $0x0,%eax
    262d:	7f bc                	jg     25eb <_ZN8DatabaseI6recordE14init_from_fileEPKc+0x18b>
    262f:	0f 85 1b 01 00 00    	jne    2750 <_ZN8DatabaseI6recordE14init_from_fileEPKc+0x2f0>
    2635:	8b 44 24 2c          	mov    0x2c(%rsp),%eax
    2639:	41 2b 46 18          	sub    0x18(%r14),%eax
    263d:	83 f8 00             	cmp    $0x0,%eax
    2640:	0f 84 92 fe ff ff    	je     24d8 <_ZN8DatabaseI6recordE14init_from_fileEPKc+0x78>
    2646:	0f 9f c0             	setg   %al
    2649:	0f b6 e8             	movzbl %al,%ebp
    264c:	eb a7                	jmp    25f5 <_ZN8DatabaseI6recordE14init_from_fileEPKc+0x195>
    264e:	66 90                	xchg   %ax,%ax
    2650:	31 c0                	xor    %eax,%eax
    2652:	31 ed                	xor    %ebp,%ebp
    2654:	eb 9f                	jmp    25f5 <_ZN8DatabaseI6recordE14init_from_fileEPKc+0x195>
    2656:	4c 89 eb             	mov    %r13,%rbx
    2659:	31 ed                	xor    %ebp,%ebp
    265b:	0f 1f 44 00 00       	nopl   0x0(%rax,%rax,1)
    2660:	bf 20 00 00 00       	mov    $0x20,%edi
    2665:	e8 b6 e6 ff ff       	callq  d20 <_Znwm@plt>
    266a:	48 8b 4c 24 18       	mov    0x18(%rsp),%rcx
    266f:	48 89 44 eb 08       	mov    %rax,0x8(%rbx,%rbp,8)
    2674:	48 c7 40 10 00 00 00 	movq   $0x0,0x10(%rax)
    267b:	00 
    267c:	48 c7 40 08 00 00 00 	movq   $0x0,0x8(%rax)
    2683:	00 
    2684:	c7 40 18 00 00 00 00 	movl   $0x0,0x18(%rax)
    268b:	83 41 30 01          	addl   $0x1,0x30(%rcx)
    268f:	48 8b 4c 24 20       	mov    0x20(%rsp),%rcx
    2694:	4d 85 ff             	test   %r15,%r15
    2697:	48 89 08             	mov    %rcx,(%rax)
    269a:	0f 84 38 fe ff ff    	je     24d8 <_ZN8DatabaseI6recordE14init_from_fileEPKc+0x78>
    26a0:	49 39 c7             	cmp    %rax,%r15
    26a3:	0f 84 2f fe ff ff    	je     24d8 <_ZN8DatabaseI6recordE14init_from_fileEPKc+0x78>
    26a9:	48 8d 7c 24 60       	lea    0x60(%rsp),%rdi
    26ae:	4c 89 f9             	mov    %r15,%rcx
    26b1:	0f 1f 80 00 00 00 00 	nopl   0x0(%rax)
    26b8:	0f b6 37             	movzbl (%rdi),%esi
    26bb:	8b 51 18             	mov    0x18(%rcx),%edx
    26be:	44 8d 42 ff          	lea    -0x1(%rdx),%r8d
    26c2:	83 c2 01             	add    $0x1,%edx
    26c5:	40 84 f6             	test   %sil,%sil
    26c8:	41 0f 44 d0          	cmove  %r8d,%edx
    26cc:	48 83 c7 01          	add    $0x1,%rdi
    26d0:	89 51 18             	mov    %edx,0x18(%rcx)
    26d3:	48 8b 4c f1 08       	mov    0x8(%rcx,%rsi,8),%rcx
    26d8:	48 39 c8             	cmp    %rcx,%rax
    26db:	75 db                	jne    26b8 <_ZN8DatabaseI6recordE14init_from_fileEPKc+0x258>
    26dd:	41 8b 47 18          	mov    0x18(%r15),%eax
    26e1:	83 f8 fe             	cmp    $0xfffffffe,%eax
    26e4:	0f 84 8e 00 00 00    	je     2778 <_ZN8DatabaseI6recordE14init_from_fileEPKc+0x318>
    26ea:	83 f8 02             	cmp    $0x2,%eax
    26ed:	0f 85 e5 fd ff ff    	jne    24d8 <_ZN8DatabaseI6recordE14init_from_fileEPKc+0x78>
    26f3:	49 8b 57 10          	mov    0x10(%r15),%rdx
    26f7:	8b 4a 18             	mov    0x18(%rdx),%ecx
    26fa:	83 f9 01             	cmp    $0x1,%ecx
    26fd:	0f 84 6a 01 00 00    	je     286d <_ZN8DatabaseI6recordE14init_from_fileEPKc+0x40d>
    2703:	83 f9 ff             	cmp    $0xffffffff,%ecx
    2706:	0f 85 e9 01 00 00    	jne    28f5 <_ZN8DatabaseI6recordE14init_from_fileEPKc+0x495>
    270c:	48 8b 42 08          	mov    0x8(%rdx),%rax
    2710:	48 8b 70 10          	mov    0x10(%rax),%rsi
    2714:	48 89 72 08          	mov    %rsi,0x8(%rdx)
    2718:	48 8b 70 08          	mov    0x8(%rax),%rsi
    271c:	48 89 50 10          	mov    %rdx,0x10(%rax)
    2720:	49 89 77 10          	mov    %rsi,0x10(%r15)
    2724:	8b 70 18             	mov    0x18(%rax),%esi
    2727:	4c 89 78 08          	mov    %r15,0x8(%rax)
    272b:	83 fe 01             	cmp    $0x1,%esi
    272e:	0f 84 5c 01 00 00    	je     2890 <_ZN8DatabaseI6recordE14init_from_fileEPKc+0x430>
    2734:	85 f6                	test   %esi,%esi
    2736:	0f 85 64 01 00 00    	jne    28a0 <_ZN8DatabaseI6recordE14init_from_fileEPKc+0x440>
    273c:	41 c7 47 18 00 00 00 	movl   $0x0,0x18(%r15)
    2743:	00 
    2744:	c7 42 18 00 00 00 00 	movl   $0x0,0x18(%rdx)
    274b:	e9 80 00 00 00       	jmpq   27d0 <_ZN8DatabaseI6recordE14init_from_fileEPKc+0x370>
    2750:	31 c0                	xor    %eax,%eax
    2752:	e9 9e fe ff ff       	jmpq   25f5 <_ZN8DatabaseI6recordE14init_from_fileEPKc+0x195>
    2757:	66 0f 1f 84 00 00 00 	nopw   0x0(%rax,%rax,1)
    275e:	00 00 
    2760:	48 8b 7c 24 20       	mov    0x20(%rsp),%rdi
    2765:	48 89 c8             	mov    %rcx,%rax
    2768:	48 89 39             	mov    %rdi,(%rcx)
    276b:	48 89 79 08          	mov    %rdi,0x8(%rcx)
    276f:	e9 18 fe ff ff       	jmpq   258c <_ZN8DatabaseI6recordE14init_from_fileEPKc+0x12c>
    2774:	0f 1f 40 00          	nopl   0x0(%rax)
    2778:	49 8b 57 08          	mov    0x8(%r15),%rdx
    277c:	8b 42 18             	mov    0x18(%rdx),%eax
    277f:	83 f8 ff             	cmp    $0xffffffff,%eax
    2782:	0f 84 c2 00 00 00    	je     284a <_ZN8DatabaseI6recordE14init_from_fileEPKc+0x3ea>
    2788:	83 f8 01             	cmp    $0x1,%eax
    278b:	0f 85 88 01 00 00    	jne    2919 <_ZN8DatabaseI6recordE14init_from_fileEPKc+0x4b9>
    2791:	48 8b 42 10          	mov    0x10(%rdx),%rax
    2795:	48 8b 48 08          	mov    0x8(%rax),%rcx
    2799:	48 89 4a 10          	mov    %rcx,0x10(%rdx)
    279d:	48 8b 48 10          	mov    0x10(%rax),%rcx
    27a1:	48 89 50 08          	mov    %rdx,0x8(%rax)
    27a5:	49 89 4f 08          	mov    %rcx,0x8(%r15)
    27a9:	8b 48 18             	mov    0x18(%rax),%ecx
    27ac:	4c 89 78 10          	mov    %r15,0x10(%rax)
    27b0:	83 f9 ff             	cmp    $0xffffffff,%ecx
    27b3:	0f 84 80 00 00 00    	je     2839 <_ZN8DatabaseI6recordE14init_from_fileEPKc+0x3d9>
    27b9:	85 c9                	test   %ecx,%ecx
    27bb:	0f 84 7b ff ff ff    	je     273c <_ZN8DatabaseI6recordE14init_from_fileEPKc+0x2dc>
    27c1:	c7 42 18 ff ff ff ff 	movl   $0xffffffff,0x18(%rdx)
    27c8:	41 c7 47 18 00 00 00 	movl   $0x0,0x18(%r15)
    27cf:	00 
    27d0:	c7 40 18 00 00 00 00 	movl   $0x0,0x18(%rax)
    27d7:	48 8b 4c 24 08       	mov    0x8(%rsp),%rcx
    27dc:	31 d2                	xor    %edx,%edx
    27de:	4c 39 79 08          	cmp    %r15,0x8(%rcx)
    27e2:	0f 95 c2             	setne  %dl
    27e5:	48 89 44 d1 08       	mov    %rax,0x8(%rcx,%rdx,8)
    27ea:	e9 e9 fc ff ff       	jmpq   24d8 <_ZN8DatabaseI6recordE14init_from_fileEPKc+0x78>
    27ef:	90                   	nop
    27f0:	48 8b 7c 24 30       	mov    0x30(%rsp),%rdi
    27f5:	e8 16 e5 ff ff       	callq  d10 <fclose@plt>
    27fa:	48 8b 7c 24 40       	mov    0x40(%rsp),%rdi
    27ff:	bb 01 00 00 00       	mov    $0x1,%ebx
    2804:	48 85 ff             	test   %rdi,%rdi
    2807:	74 05                	je     280e <_ZN8DatabaseI6recordE14init_from_fileEPKc+0x3ae>
    2809:	e8 62 e5 ff ff       	callq  d70 <_ZdaPv@plt>
    280e:	48 8b bc 24 88 00 00 	mov    0x88(%rsp),%rdi
    2815:	00 
    2816:	64 48 33 3c 25 28 00 	xor    %fs:0x28,%rdi
    281d:	00 00 
    281f:	89 d8                	mov    %ebx,%eax
    2821:	0f 85 ed 00 00 00    	jne    2914 <_ZN8DatabaseI6recordE14init_from_fileEPKc+0x4b4>
    2827:	48 81 c4 98 00 00 00 	add    $0x98,%rsp
    282e:	5b                   	pop    %rbx
    282f:	5d                   	pop    %rbp
    2830:	41 5c                	pop    %r12
    2832:	41 5d                	pop    %r13
    2834:	41 5e                	pop    %r14
    2836:	41 5f                	pop    %r15
    2838:	c3                   	retq   
    2839:	c7 42 18 00 00 00 00 	movl   $0x0,0x18(%rdx)
    2840:	41 c7 47 18 01 00 00 	movl   $0x1,0x18(%r15)
    2847:	00 
    2848:	eb 86                	jmp    27d0 <_ZN8DatabaseI6recordE14init_from_fileEPKc+0x370>
    284a:	48 8b 42 10          	mov    0x10(%rdx),%rax
    284e:	49 89 47 08          	mov    %rax,0x8(%r15)
    2852:	4c 89 7a 10          	mov    %r15,0x10(%rdx)
    2856:	48 89 d0             	mov    %rdx,%rax
    2859:	41 c7 47 18 00 00 00 	movl   $0x0,0x18(%r15)
    2860:	00 
    2861:	c7 42 18 00 00 00 00 	movl   $0x0,0x18(%rdx)
    2868:	e9 6a ff ff ff       	jmpq   27d7 <_ZN8DatabaseI6recordE14init_from_fileEPKc+0x377>
    286d:	48 8b 42 08          	mov    0x8(%rdx),%rax
    2871:	49 89 47 10          	mov    %rax,0x10(%r15)
    2875:	4c 89 7a 08          	mov    %r15,0x8(%rdx)
    2879:	48 89 d0             	mov    %rdx,%rax
    287c:	41 c7 47 18 00 00 00 	movl   $0x0,0x18(%r15)
    2883:	00 
    2884:	c7 42 18 00 00 00 00 	movl   $0x0,0x18(%rdx)
    288b:	e9 47 ff ff ff       	jmpq   27d7 <_ZN8DatabaseI6recordE14init_from_fileEPKc+0x377>
    2890:	c7 42 18 00 00 00 00 	movl   $0x0,0x18(%rdx)
    2897:	41 89 4f 18          	mov    %ecx,0x18(%r15)
    289b:	e9 30 ff ff ff       	jmpq   27d0 <_ZN8DatabaseI6recordE14init_from_fileEPKc+0x370>
    28a0:	c7 42 18 01 00 00 00 	movl   $0x1,0x18(%rdx)
    28a7:	41 c7 47 18 00 00 00 	movl   $0x0,0x18(%r15)
    28ae:	00 
    28af:	e9 1c ff ff ff       	jmpq   27d0 <_ZN8DatabaseI6recordE14init_from_fileEPKc+0x370>
    28b4:	48 8d 3d 69 52 00 00 	lea    0x5269(%rip),%rdi        # 7b24 <_IO_stdin_used+0x24>
    28bb:	31 db                	xor    %ebx,%ebx
    28bd:	e8 de e4 ff ff       	callq  da0 <puts@plt>
    28c2:	e9 47 ff ff ff       	jmpq   280e <_ZN8DatabaseI6recordE14init_from_fileEPKc+0x3ae>
    28c7:	48 89 c3             	mov    %rax,%rbx
    28ca:	48 8b 7c 24 40       	mov    0x40(%rsp),%rdi
    28cf:	48 85 ff             	test   %rdi,%rdi
    28d2:	74 05                	je     28d9 <_ZN8DatabaseI6recordE14init_from_fileEPKc+0x479>
    28d4:	e8 97 e4 ff ff       	callq  d70 <_ZdaPv@plt>
    28d9:	48 89 df             	mov    %rbx,%rdi
    28dc:	e8 ef e4 ff ff       	callq  dd0 <_Unwind_Resume@plt>
    28e1:	48 8b 7c 24 20       	mov    0x20(%rsp),%rdi
    28e6:	be 30 00 00 00       	mov    $0x30,%esi
    28eb:	48 89 c3             	mov    %rax,%rbx
    28ee:	e8 3d e4 ff ff       	callq  d30 <_ZdlPvm@plt>
    28f3:	eb d5                	jmp    28ca <_ZN8DatabaseI6recordE14init_from_fileEPKc+0x46a>
    28f5:	48 8d 0d 04 5a 00 00 	lea    0x5a04(%rip),%rcx        # 8300 <_ZZN8avl_treeI9list_nodeI6recordEE9avl_probeEPS2_E19__PRETTY_FUNCTION__>
    28fc:	48 8d 35 25 52 00 00 	lea    0x5225(%rip),%rsi        # 7b28 <_IO_stdin_used+0x28>
    2903:	48 8d 3d 3a 52 00 00 	lea    0x523a(%rip),%rdi        # 7b44 <_IO_stdin_used+0x44>
    290a:	ba f8 01 00 00       	mov    $0x1f8,%edx
    290f:	e8 9c e3 ff ff       	callq  cb0 <__assert_fail@plt>
    2914:	e8 37 e4 ff ff       	callq  d50 <__stack_chk_fail@plt>
    2919:	48 8d 0d e0 59 00 00 	lea    0x59e0(%rip),%rcx        # 8300 <_ZZN8avl_treeI9list_nodeI6recordEE9avl_probeEPS2_E19__PRETTY_FUNCTION__>
    2920:	48 8d 35 01 52 00 00 	lea    0x5201(%rip),%rsi        # 7b28 <_IO_stdin_used+0x28>
    2927:	48 8d 3d 05 52 00 00 	lea    0x5205(%rip),%rdi        # 7b33 <_IO_stdin_used+0x33>
    292e:	ba d9 01 00 00       	mov    $0x1d9,%edx
    2933:	e8 78 e3 ff ff       	callq  cb0 <__assert_fail@plt>
    2938:	0f 1f 84 00 00 00 00 	nopl   0x0(%rax,%rax,1)
    293f:	00 

0000000000002940 <_ZN6db_avlI9list_nodeI6recordEE9search_eqEP8avl_nodeIS2_ERKS0_I7commandE>:
    2940:	48 85 f6             	test   %rsi,%rsi
    2943:	0f 84 80 01 00 00    	je     2ac9 <_ZN6db_avlI9list_nodeI6recordEE9search_eqEP8avl_nodeIS2_ERKS0_I7commandE+0x189>
    2949:	41 56                	push   %r14
    294b:	41 55                	push   %r13
    294d:	49 89 fd             	mov    %rdi,%r13
    2950:	41 54                	push   %r12
    2952:	49 89 d4             	mov    %rdx,%r12
    2955:	55                   	push   %rbp
    2956:	53                   	push   %rbx
    2957:	48 89 f3             	mov    %rsi,%rbx
    295a:	48 8b 2a             	mov    (%rdx),%rbp
    295d:	eb 0a                	jmp    2969 <_ZN6db_avlI9list_nodeI6recordEE9search_eqEP8avl_nodeIS2_ERKS0_I7commandE+0x29>
    295f:	90                   	nop
    2960:	48 8b 5b 10          	mov    0x10(%rbx),%rbx
    2964:	48 85 db             	test   %rbx,%rbx
    2967:	74 21                	je     298a <_ZN6db_avlI9list_nodeI6recordEE9search_eqEP8avl_nodeIS2_ERKS0_I7commandE+0x4a>
    2969:	48 8b 03             	mov    (%rbx),%rax
    296c:	48 89 ef             	mov    %rbp,%rdi
    296f:	48 8b 30             	mov    (%rax),%rsi
    2972:	e8 09 e4 ff ff       	callq  d80 <strcmp@plt>
    2977:	83 f8 00             	cmp    $0x0,%eax
    297a:	7f e4                	jg     2960 <_ZN6db_avlI9list_nodeI6recordEE9search_eqEP8avl_nodeIS2_ERKS0_I7commandE+0x20>
    297c:	4c 8b 73 08          	mov    0x8(%rbx),%r14
    2980:	74 23                	je     29a5 <_ZN6db_avlI9list_nodeI6recordEE9search_eqEP8avl_nodeIS2_ERKS0_I7commandE+0x65>
    2982:	4c 89 f3             	mov    %r14,%rbx
    2985:	48 85 db             	test   %rbx,%rbx
    2988:	75 df                	jne    2969 <_ZN6db_avlI9list_nodeI6recordEE9search_eqEP8avl_nodeIS2_ERKS0_I7commandE+0x29>
    298a:	5b                   	pop    %rbx
    298b:	5d                   	pop    %rbp
    298c:	41 5c                	pop    %r12
    298e:	41 5d                	pop    %r13
    2990:	41 5e                	pop    %r14
    2992:	c3                   	retq   
    2993:	0f 1f 44 00 00       	nopl   0x0(%rax,%rax,1)
    2998:	49 8b 76 08          	mov    0x8(%r14),%rsi
    299c:	0f 84 90 01 00 00    	je     2b32 <_ZN6db_avlI9list_nodeI6recordEE9search_eqEP8avl_nodeIS2_ERKS0_I7commandE+0x1f2>
    29a2:	49 89 f6             	mov    %rsi,%r14
    29a5:	4d 85 f6             	test   %r14,%r14
    29a8:	74 1c                	je     29c6 <_ZN6db_avlI9list_nodeI6recordEE9search_eqEP8avl_nodeIS2_ERKS0_I7commandE+0x86>
    29aa:	49 8b 06             	mov    (%r14),%rax
    29ad:	48 89 ef             	mov    %rbp,%rdi
    29b0:	48 8b 30             	mov    (%rax),%rsi
    29b3:	e8 c8 e3 ff ff       	callq  d80 <strcmp@plt>
    29b8:	83 f8 00             	cmp    $0x0,%eax
    29bb:	7e db                	jle    2998 <_ZN6db_avlI9list_nodeI6recordEE9search_eqEP8avl_nodeIS2_ERKS0_I7commandE+0x58>
    29bd:	4d 8b 76 10          	mov    0x10(%r14),%r14
    29c1:	4d 85 f6             	test   %r14,%r14
    29c4:	75 e4                	jne    29aa <_ZN6db_avlI9list_nodeI6recordEE9search_eqEP8avl_nodeIS2_ERKS0_I7commandE+0x6a>
    29c6:	48 8b 6b 10          	mov    0x10(%rbx),%rbp
    29ca:	48 85 ed             	test   %rbp,%rbp
    29cd:	74 38                	je     2a07 <_ZN6db_avlI9list_nodeI6recordEE9search_eqEP8avl_nodeIS2_ERKS0_I7commandE+0xc7>
    29cf:	4d 8b 34 24          	mov    (%r12),%r14
    29d3:	eb 0c                	jmp    29e1 <_ZN6db_avlI9list_nodeI6recordEE9search_eqEP8avl_nodeIS2_ERKS0_I7commandE+0xa1>
    29d5:	0f 1f 00             	nopl   (%rax)
    29d8:	48 8b 6d 10          	mov    0x10(%rbp),%rbp
    29dc:	48 85 ed             	test   %rbp,%rbp
    29df:	74 26                	je     2a07 <_ZN6db_avlI9list_nodeI6recordEE9search_eqEP8avl_nodeIS2_ERKS0_I7commandE+0xc7>
    29e1:	48 8b 45 00          	mov    0x0(%rbp),%rax
    29e5:	4c 89 f7             	mov    %r14,%rdi
    29e8:	48 8b 30             	mov    (%rax),%rsi
    29eb:	e8 90 e3 ff ff       	callq  d80 <strcmp@plt>
    29f0:	83 f8 00             	cmp    $0x0,%eax
    29f3:	7f e3                	jg     29d8 <_ZN6db_avlI9list_nodeI6recordEE9search_eqEP8avl_nodeIS2_ERKS0_I7commandE+0x98>
    29f5:	48 8b 75 08          	mov    0x8(%rbp),%rsi
    29f9:	0f 84 cc 00 00 00    	je     2acb <_ZN6db_avlI9list_nodeI6recordEE9search_eqEP8avl_nodeIS2_ERKS0_I7commandE+0x18b>
    29ff:	48 89 f5             	mov    %rsi,%rbp
    2a02:	48 85 ed             	test   %rbp,%rbp
    2a05:	75 da                	jne    29e1 <_ZN6db_avlI9list_nodeI6recordEE9search_eqEP8avl_nodeIS2_ERKS0_I7commandE+0xa1>
    2a07:	41 8b 44 24 28       	mov    0x28(%r12),%eax
    2a0c:	41 8b 54 24 24       	mov    0x24(%r12),%edx
    2a11:	41 8b 4c 24 20       	mov    0x20(%r12),%ecx
    2a16:	48 8b 33             	mov    (%rbx),%rsi
    2a19:	01 c1                	add    %eax,%ecx
    2a1b:	01 d1                	add    %edx,%ecx
    2a1d:	74 53                	je     2a72 <_ZN6db_avlI9list_nodeI6recordEE9search_eqEP8avl_nodeIS2_ERKS0_I7commandE+0x132>
    2a1f:	85 c0                	test   %eax,%eax
    2a21:	b9 01 00 00 00       	mov    $0x1,%ecx
    2a26:	74 78                	je     2aa0 <_ZN6db_avlI9list_nodeI6recordEE9search_eqEP8avl_nodeIS2_ERKS0_I7commandE+0x160>
    2a28:	8b 4e 18             	mov    0x18(%rsi),%ecx
    2a2b:	41 2b 4c 24 18       	sub    0x18(%r12),%ecx
    2a30:	83 f8 06             	cmp    $0x6,%eax
    2a33:	0f 87 49 02 00 00    	ja     2c82 <_ZN6db_avlI9list_nodeI6recordEE9search_eqEP8avl_nodeIS2_ERKS0_I7commandE+0x342>
    2a39:	48 8d 3d 2c 51 00 00 	lea    0x512c(%rip),%rdi        # 7b6c <_IO_stdin_used+0x6c>
    2a40:	48 63 04 87          	movslq (%rdi,%rax,4),%rax
    2a44:	48 01 f8             	add    %rdi,%rax
    2a47:	ff e0                	jmpq   *%rax
    2a49:	48 f7 d0             	not    %rax
    2a4c:	48 c1 e8 3f          	shr    $0x3f,%rax
    2a50:	01 c8                	add    %ecx,%eax
    2a52:	66 0f 1f 44 00 00    	nopw   0x0(%rax,%rax,1)
    2a58:	83 f8 02             	cmp    $0x2,%eax
    2a5b:	74 15                	je     2a72 <_ZN6db_avlI9list_nodeI6recordEE9search_eqEP8avl_nodeIS2_ERKS0_I7commandE+0x132>
    2a5d:	83 f8 01             	cmp    $0x1,%eax
    2a60:	0f 85 24 ff ff ff    	jne    298a <_ZN6db_avlI9list_nodeI6recordEE9search_eqEP8avl_nodeIS2_ERKS0_I7commandE+0x4a>
    2a66:	41 83 7c 24 2c 02    	cmpl   $0x2,0x2c(%r12)
    2a6c:	0f 85 18 ff ff ff    	jne    298a <_ZN6db_avlI9list_nodeI6recordEE9search_eqEP8avl_nodeIS2_ERKS0_I7commandE+0x4a>
    2a72:	5b                   	pop    %rbx
    2a73:	5d                   	pop    %rbp
    2a74:	41 5c                	pop    %r12
    2a76:	41 5d                	pop    %r13
    2a78:	41 5e                	pop    %r14
    2a7a:	48 8b 4e 10          	mov    0x10(%rsi),%rcx
    2a7e:	44 8b 46 18          	mov    0x18(%rsi),%r8d
    2a82:	bf 01 00 00 00       	mov    $0x1,%edi
    2a87:	48 8b 16             	mov    (%rsi),%rdx
    2a8a:	48 8d 35 c4 50 00 00 	lea    0x50c4(%rip),%rsi        # 7b55 <_IO_stdin_used+0x55>
    2a91:	31 c0                	xor    %eax,%eax
    2a93:	e9 b8 e1 ff ff       	jmpq   c50 <__printf_chk@plt>
    2a98:	85 c9                	test   %ecx,%ecx
    2a9a:	0f 9e c1             	setle  %cl
    2a9d:	0f b6 c9             	movzbl %cl,%ecx
    2aa0:	85 d2                	test   %edx,%edx
    2aa2:	8d 41 01             	lea    0x1(%rcx),%eax
    2aa5:	74 b1                	je     2a58 <_ZN6db_avlI9list_nodeI6recordEE9search_eqEP8avl_nodeIS2_ERKS0_I7commandE+0x118>
    2aa7:	48 8b 46 10          	mov    0x10(%rsi),%rax
    2aab:	49 2b 44 24 10       	sub    0x10(%r12),%rax
    2ab0:	83 fa 06             	cmp    $0x6,%edx
    2ab3:	0f 87 c1 01 00 00    	ja     2c7a <_ZN6db_avlI9list_nodeI6recordEE9search_eqEP8avl_nodeIS2_ERKS0_I7commandE+0x33a>
    2ab9:	48 8d 3d c8 50 00 00 	lea    0x50c8(%rip),%rdi        # 7b88 <_IO_stdin_used+0x88>
    2ac0:	48 63 14 97          	movslq (%rdi,%rdx,4),%rdx
    2ac4:	48 01 fa             	add    %rdi,%rdx
    2ac7:	ff e2                	jmpq   *%rdx
    2ac9:	f3 c3                	repz retq 
    2acb:	4c 89 e2             	mov    %r12,%rdx
    2ace:	4c 89 ef             	mov    %r13,%rdi
    2ad1:	e8 6a fe ff ff       	callq  2940 <_ZN6db_avlI9list_nodeI6recordEE9search_eqEP8avl_nodeIS2_ERKS0_I7commandE>
    2ad6:	48 8b 75 10          	mov    0x10(%rbp),%rsi
    2ada:	4c 89 e2             	mov    %r12,%rdx
    2add:	4c 89 ef             	mov    %r13,%rdi
    2ae0:	e8 5b fe ff ff       	callq  2940 <_ZN6db_avlI9list_nodeI6recordEE9search_eqEP8avl_nodeIS2_ERKS0_I7commandE>
    2ae5:	41 8b 44 24 28       	mov    0x28(%r12),%eax
    2aea:	41 8b 54 24 24       	mov    0x24(%r12),%edx
    2aef:	41 8b 4c 24 20       	mov    0x20(%r12),%ecx
    2af4:	48 8b 75 00          	mov    0x0(%rbp),%rsi
    2af8:	01 c1                	add    %eax,%ecx
    2afa:	01 d1                	add    %edx,%ecx
    2afc:	0f 84 e4 00 00 00    	je     2be6 <_ZN6db_avlI9list_nodeI6recordEE9search_eqEP8avl_nodeIS2_ERKS0_I7commandE+0x2a6>
    2b02:	85 c0                	test   %eax,%eax
    2b04:	bf 01 00 00 00       	mov    $0x1,%edi
    2b09:	0f 84 e4 01 00 00    	je     2cf3 <_ZN6db_avlI9list_nodeI6recordEE9search_eqEP8avl_nodeIS2_ERKS0_I7commandE+0x3b3>
    2b0f:	8b 7e 18             	mov    0x18(%rsi),%edi
    2b12:	41 2b 7c 24 18       	sub    0x18(%r12),%edi
    2b17:	83 f8 06             	cmp    $0x6,%eax
    2b1a:	0f 87 16 03 00 00    	ja     2e36 <_ZN6db_avlI9list_nodeI6recordEE9search_eqEP8avl_nodeIS2_ERKS0_I7commandE+0x4f6>
    2b20:	4c 8d 05 7d 50 00 00 	lea    0x507d(%rip),%r8        # 7ba4 <_IO_stdin_used+0xa4>
    2b27:	89 c1                	mov    %eax,%ecx
    2b29:	49 63 0c 88          	movslq (%r8,%rcx,4),%rcx
    2b2d:	4c 01 c1             	add    %r8,%rcx
    2b30:	ff e1                	jmpq   *%rcx
    2b32:	4c 89 e2             	mov    %r12,%rdx
    2b35:	4c 89 ef             	mov    %r13,%rdi
    2b38:	e8 03 fe ff ff       	callq  2940 <_ZN6db_avlI9list_nodeI6recordEE9search_eqEP8avl_nodeIS2_ERKS0_I7commandE>
    2b3d:	49 8b 76 10          	mov    0x10(%r14),%rsi
    2b41:	4c 89 e2             	mov    %r12,%rdx
    2b44:	4c 89 ef             	mov    %r13,%rdi
    2b47:	e8 f4 fd ff ff       	callq  2940 <_ZN6db_avlI9list_nodeI6recordEE9search_eqEP8avl_nodeIS2_ERKS0_I7commandE>
    2b4c:	41 8b 44 24 28       	mov    0x28(%r12),%eax
    2b51:	41 8b 54 24 24       	mov    0x24(%r12),%edx
    2b56:	41 8b 4c 24 20       	mov    0x20(%r12),%ecx
    2b5b:	49 8b 36             	mov    (%r14),%rsi
    2b5e:	01 c1                	add    %eax,%ecx
    2b60:	01 d1                	add    %edx,%ecx
    2b62:	74 3c                	je     2ba0 <_ZN6db_avlI9list_nodeI6recordEE9search_eqEP8avl_nodeIS2_ERKS0_I7commandE+0x260>
    2b64:	85 c0                	test   %eax,%eax
    2b66:	bf 01 00 00 00       	mov    $0x1,%edi
    2b6b:	0f 84 20 01 00 00    	je     2c91 <_ZN6db_avlI9list_nodeI6recordEE9search_eqEP8avl_nodeIS2_ERKS0_I7commandE+0x351>
    2b71:	8b 7e 18             	mov    0x18(%rsi),%edi
    2b74:	41 2b 7c 24 18       	sub    0x18(%r12),%edi
    2b79:	83 f8 06             	cmp    $0x6,%eax
    2b7c:	0f 87 aa 02 00 00    	ja     2e2c <_ZN6db_avlI9list_nodeI6recordEE9search_eqEP8avl_nodeIS2_ERKS0_I7commandE+0x4ec>
    2b82:	4c 8d 05 37 50 00 00 	lea    0x5037(%rip),%r8        # 7bc0 <_IO_stdin_used+0xc0>
    2b89:	89 c1                	mov    %eax,%ecx
    2b8b:	49 63 0c 88          	movslq (%r8,%rcx,4),%rcx
    2b8f:	4c 01 c1             	add    %r8,%rcx
    2b92:	ff e1                	jmpq   *%rcx
    2b94:	41 83 7c 24 2c 02    	cmpl   $0x2,0x2c(%r12)
    2b9a:	0f 85 39 01 00 00    	jne    2cd9 <_ZN6db_avlI9list_nodeI6recordEE9search_eqEP8avl_nodeIS2_ERKS0_I7commandE+0x399>
    2ba0:	48 8b 4e 10          	mov    0x10(%rsi),%rcx
    2ba4:	44 8b 46 18          	mov    0x18(%rsi),%r8d
    2ba8:	bf 01 00 00 00       	mov    $0x1,%edi
    2bad:	48 8b 16             	mov    (%rsi),%rdx
    2bb0:	48 8d 35 9e 4f 00 00 	lea    0x4f9e(%rip),%rsi        # 7b55 <_IO_stdin_used+0x55>
    2bb7:	31 c0                	xor    %eax,%eax
    2bb9:	e8 92 e0 ff ff       	callq  c50 <__printf_chk@plt>
    2bbe:	e9 03 fe ff ff       	jmpq   29c6 <_ZN6db_avlI9list_nodeI6recordEE9search_eqEP8avl_nodeIS2_ERKS0_I7commandE+0x86>
    2bc3:	48 f7 d1             	not    %rcx
    2bc6:	48 c1 e9 3f          	shr    $0x3f,%rcx
    2bca:	01 f9                	add    %edi,%ecx
    2bcc:	83 f9 02             	cmp    $0x2,%ecx
    2bcf:	74 15                	je     2be6 <_ZN6db_avlI9list_nodeI6recordEE9search_eqEP8avl_nodeIS2_ERKS0_I7commandE+0x2a6>
    2bd1:	83 f9 01             	cmp    $0x1,%ecx
    2bd4:	0f 85 0c 01 00 00    	jne    2ce6 <_ZN6db_avlI9list_nodeI6recordEE9search_eqEP8avl_nodeIS2_ERKS0_I7commandE+0x3a6>
    2bda:	41 83 7c 24 2c 02    	cmpl   $0x2,0x2c(%r12)
    2be0:	0f 85 00 01 00 00    	jne    2ce6 <_ZN6db_avlI9list_nodeI6recordEE9search_eqEP8avl_nodeIS2_ERKS0_I7commandE+0x3a6>
    2be6:	48 8b 4e 10          	mov    0x10(%rsi),%rcx
    2bea:	44 8b 46 18          	mov    0x18(%rsi),%r8d
    2bee:	bf 01 00 00 00       	mov    $0x1,%edi
    2bf3:	48 8b 16             	mov    (%rsi),%rdx
    2bf6:	48 8d 35 58 4f 00 00 	lea    0x4f58(%rip),%rsi        # 7b55 <_IO_stdin_used+0x55>
    2bfd:	31 c0                	xor    %eax,%eax
    2bff:	e8 4c e0 ff ff       	callq  c50 <__printf_chk@plt>
    2c04:	e9 fe fd ff ff       	jmpq   2a07 <_ZN6db_avlI9list_nodeI6recordEE9search_eqEP8avl_nodeIS2_ERKS0_I7commandE+0xc7>
    2c09:	f7 d1                	not    %ecx
    2c0b:	c1 e9 1f             	shr    $0x1f,%ecx
    2c0e:	e9 8d fe ff ff       	jmpq   2aa0 <_ZN6db_avlI9list_nodeI6recordEE9search_eqEP8avl_nodeIS2_ERKS0_I7commandE+0x160>
    2c13:	48 85 c0             	test   %rax,%rax
    2c16:	0f 9e c0             	setle  %al
    2c19:	0f b6 c0             	movzbl %al,%eax
    2c1c:	01 c8                	add    %ecx,%eax
    2c1e:	e9 35 fe ff ff       	jmpq   2a58 <_ZN6db_avlI9list_nodeI6recordEE9search_eqEP8avl_nodeIS2_ERKS0_I7commandE+0x118>
    2c23:	48 85 c0             	test   %rax,%rax
    2c26:	0f 95 c0             	setne  %al
    2c29:	0f b6 c0             	movzbl %al,%eax
    2c2c:	01 c8                	add    %ecx,%eax
    2c2e:	e9 25 fe ff ff       	jmpq   2a58 <_ZN6db_avlI9list_nodeI6recordEE9search_eqEP8avl_nodeIS2_ERKS0_I7commandE+0x118>
    2c33:	48 85 c0             	test   %rax,%rax
    2c36:	0f 94 c0             	sete   %al
    2c39:	0f b6 c0             	movzbl %al,%eax
    2c3c:	01 c8                	add    %ecx,%eax
    2c3e:	e9 15 fe ff ff       	jmpq   2a58 <_ZN6db_avlI9list_nodeI6recordEE9search_eqEP8avl_nodeIS2_ERKS0_I7commandE+0x118>
    2c43:	48 85 c0             	test   %rax,%rax
    2c46:	0f 9f c0             	setg   %al
    2c49:	0f b6 c0             	movzbl %al,%eax
    2c4c:	01 c8                	add    %ecx,%eax
    2c4e:	e9 05 fe ff ff       	jmpq   2a58 <_ZN6db_avlI9list_nodeI6recordEE9search_eqEP8avl_nodeIS2_ERKS0_I7commandE+0x118>
    2c53:	85 c9                	test   %ecx,%ecx
    2c55:	0f 95 c1             	setne  %cl
    2c58:	0f b6 c9             	movzbl %cl,%ecx
    2c5b:	e9 40 fe ff ff       	jmpq   2aa0 <_ZN6db_avlI9list_nodeI6recordEE9search_eqEP8avl_nodeIS2_ERKS0_I7commandE+0x160>
    2c60:	85 c9                	test   %ecx,%ecx
    2c62:	0f 94 c1             	sete   %cl
    2c65:	0f b6 c9             	movzbl %cl,%ecx
    2c68:	e9 33 fe ff ff       	jmpq   2aa0 <_ZN6db_avlI9list_nodeI6recordEE9search_eqEP8avl_nodeIS2_ERKS0_I7commandE+0x160>
    2c6d:	85 c9                	test   %ecx,%ecx
    2c6f:	0f 9f c1             	setg   %cl
    2c72:	0f b6 c9             	movzbl %cl,%ecx
    2c75:	e9 26 fe ff ff       	jmpq   2aa0 <_ZN6db_avlI9list_nodeI6recordEE9search_eqEP8avl_nodeIS2_ERKS0_I7commandE+0x160>
    2c7a:	8d 41 01             	lea    0x1(%rcx),%eax
    2c7d:	e9 d6 fd ff ff       	jmpq   2a58 <_ZN6db_avlI9list_nodeI6recordEE9search_eqEP8avl_nodeIS2_ERKS0_I7commandE+0x118>
    2c82:	b9 01 00 00 00       	mov    $0x1,%ecx
    2c87:	e9 14 fe ff ff       	jmpq   2aa0 <_ZN6db_avlI9list_nodeI6recordEE9search_eqEP8avl_nodeIS2_ERKS0_I7commandE+0x160>
    2c8c:	f7 d7                	not    %edi
    2c8e:	c1 ef 1f             	shr    $0x1f,%edi
    2c91:	85 d2                	test   %edx,%edx
    2c93:	8d 4f 01             	lea    0x1(%rdi),%ecx
    2c96:	74 2f                	je     2cc7 <_ZN6db_avlI9list_nodeI6recordEE9search_eqEP8avl_nodeIS2_ERKS0_I7commandE+0x387>
    2c98:	48 8b 4e 10          	mov    0x10(%rsi),%rcx
    2c9c:	49 2b 4c 24 10       	sub    0x10(%r12),%rcx
    2ca1:	83 fa 06             	cmp    $0x6,%edx
    2ca4:	0f 87 7a 01 00 00    	ja     2e24 <_ZN6db_avlI9list_nodeI6recordEE9search_eqEP8avl_nodeIS2_ERKS0_I7commandE+0x4e4>
    2caa:	4c 8d 0d 2b 4f 00 00 	lea    0x4f2b(%rip),%r9        # 7bdc <_IO_stdin_used+0xdc>
    2cb1:	41 89 d0             	mov    %edx,%r8d
    2cb4:	4f 63 04 81          	movslq (%r9,%r8,4),%r8
    2cb8:	4d 01 c8             	add    %r9,%r8
    2cbb:	41 ff e0             	jmpq   *%r8
    2cbe:	48 f7 d1             	not    %rcx
    2cc1:	48 c1 e9 3f          	shr    $0x3f,%rcx
    2cc5:	01 f9                	add    %edi,%ecx
    2cc7:	83 f9 02             	cmp    $0x2,%ecx
    2cca:	0f 84 d0 fe ff ff    	je     2ba0 <_ZN6db_avlI9list_nodeI6recordEE9search_eqEP8avl_nodeIS2_ERKS0_I7commandE+0x260>
    2cd0:	83 f9 01             	cmp    $0x1,%ecx
    2cd3:	0f 84 bb fe ff ff    	je     2b94 <_ZN6db_avlI9list_nodeI6recordEE9search_eqEP8avl_nodeIS2_ERKS0_I7commandE+0x254>
    2cd9:	48 8b 6b 10          	mov    0x10(%rbx),%rbp
    2cdd:	48 85 ed             	test   %rbp,%rbp
    2ce0:	0f 85 e9 fc ff ff    	jne    29cf <_ZN6db_avlI9list_nodeI6recordEE9search_eqEP8avl_nodeIS2_ERKS0_I7commandE+0x8f>
    2ce6:	48 8b 33             	mov    (%rbx),%rsi
    2ce9:	e9 31 fd ff ff       	jmpq   2a1f <_ZN6db_avlI9list_nodeI6recordEE9search_eqEP8avl_nodeIS2_ERKS0_I7commandE+0xdf>
    2cee:	f7 d7                	not    %edi
    2cf0:	c1 ef 1f             	shr    $0x1f,%edi
    2cf3:	85 d2                	test   %edx,%edx
    2cf5:	8d 4f 01             	lea    0x1(%rdi),%ecx
    2cf8:	0f 84 ce fe ff ff    	je     2bcc <_ZN6db_avlI9list_nodeI6recordEE9search_eqEP8avl_nodeIS2_ERKS0_I7commandE+0x28c>
    2cfe:	48 8b 4e 10          	mov    0x10(%rsi),%rcx
    2d02:	49 2b 4c 24 10       	sub    0x10(%r12),%rcx
    2d07:	83 fa 06             	cmp    $0x6,%edx
    2d0a:	0f 87 0c 01 00 00    	ja     2e1c <_ZN6db_avlI9list_nodeI6recordEE9search_eqEP8avl_nodeIS2_ERKS0_I7commandE+0x4dc>
    2d10:	4c 8d 0d e1 4e 00 00 	lea    0x4ee1(%rip),%r9        # 7bf8 <_IO_stdin_used+0xf8>
    2d17:	41 89 d0             	mov    %edx,%r8d
    2d1a:	4f 63 04 81          	movslq (%r9,%r8,4),%r8
    2d1e:	4d 01 c8             	add    %r9,%r8
    2d21:	41 ff e0             	jmpq   *%r8
    2d24:	48 85 c9             	test   %rcx,%rcx
    2d27:	0f 95 c1             	setne  %cl
    2d2a:	0f b6 c9             	movzbl %cl,%ecx
    2d2d:	01 f9                	add    %edi,%ecx
    2d2f:	e9 98 fe ff ff       	jmpq   2bcc <_ZN6db_avlI9list_nodeI6recordEE9search_eqEP8avl_nodeIS2_ERKS0_I7commandE+0x28c>
    2d34:	48 85 c9             	test   %rcx,%rcx
    2d37:	0f 94 c1             	sete   %cl
    2d3a:	0f b6 c9             	movzbl %cl,%ecx
    2d3d:	01 f9                	add    %edi,%ecx
    2d3f:	e9 88 fe ff ff       	jmpq   2bcc <_ZN6db_avlI9list_nodeI6recordEE9search_eqEP8avl_nodeIS2_ERKS0_I7commandE+0x28c>
    2d44:	85 ff                	test   %edi,%edi
    2d46:	40 0f 9e c7          	setle  %dil
    2d4a:	40 0f b6 ff          	movzbl %dil,%edi
    2d4e:	e9 3e ff ff ff       	jmpq   2c91 <_ZN6db_avlI9list_nodeI6recordEE9search_eqEP8avl_nodeIS2_ERKS0_I7commandE+0x351>
    2d53:	48 85 c9             	test   %rcx,%rcx
    2d56:	0f 95 c1             	setne  %cl
    2d59:	0f b6 c9             	movzbl %cl,%ecx
    2d5c:	01 f9                	add    %edi,%ecx
    2d5e:	e9 64 ff ff ff       	jmpq   2cc7 <_ZN6db_avlI9list_nodeI6recordEE9search_eqEP8avl_nodeIS2_ERKS0_I7commandE+0x387>
    2d63:	48 85 c9             	test   %rcx,%rcx
    2d66:	0f 94 c1             	sete   %cl
    2d69:	0f b6 c9             	movzbl %cl,%ecx
    2d6c:	01 f9                	add    %edi,%ecx
    2d6e:	e9 54 ff ff ff       	jmpq   2cc7 <_ZN6db_avlI9list_nodeI6recordEE9search_eqEP8avl_nodeIS2_ERKS0_I7commandE+0x387>
    2d73:	48 85 c9             	test   %rcx,%rcx
    2d76:	0f 9e c1             	setle  %cl
    2d79:	0f b6 c9             	movzbl %cl,%ecx
    2d7c:	01 f9                	add    %edi,%ecx
    2d7e:	e9 49 fe ff ff       	jmpq   2bcc <_ZN6db_avlI9list_nodeI6recordEE9search_eqEP8avl_nodeIS2_ERKS0_I7commandE+0x28c>
    2d83:	48 85 c9             	test   %rcx,%rcx
    2d86:	0f 9f c1             	setg   %cl
    2d89:	0f b6 c9             	movzbl %cl,%ecx
    2d8c:	01 f9                	add    %edi,%ecx
    2d8e:	e9 39 fe ff ff       	jmpq   2bcc <_ZN6db_avlI9list_nodeI6recordEE9search_eqEP8avl_nodeIS2_ERKS0_I7commandE+0x28c>
    2d93:	85 ff                	test   %edi,%edi
    2d95:	40 0f 95 c7          	setne  %dil
    2d99:	40 0f b6 ff          	movzbl %dil,%edi
    2d9d:	e9 ef fe ff ff       	jmpq   2c91 <_ZN6db_avlI9list_nodeI6recordEE9search_eqEP8avl_nodeIS2_ERKS0_I7commandE+0x351>
    2da2:	85 ff                	test   %edi,%edi
    2da4:	40 0f 94 c7          	sete   %dil
    2da8:	40 0f b6 ff          	movzbl %dil,%edi
    2dac:	e9 e0 fe ff ff       	jmpq   2c91 <_ZN6db_avlI9list_nodeI6recordEE9search_eqEP8avl_nodeIS2_ERKS0_I7commandE+0x351>
    2db1:	85 ff                	test   %edi,%edi
    2db3:	40 0f 9f c7          	setg   %dil
    2db7:	40 0f b6 ff          	movzbl %dil,%edi
    2dbb:	e9 d1 fe ff ff       	jmpq   2c91 <_ZN6db_avlI9list_nodeI6recordEE9search_eqEP8avl_nodeIS2_ERKS0_I7commandE+0x351>
    2dc0:	48 85 c9             	test   %rcx,%rcx
    2dc3:	0f 9e c1             	setle  %cl
    2dc6:	0f b6 c9             	movzbl %cl,%ecx
    2dc9:	01 f9                	add    %edi,%ecx
    2dcb:	e9 f7 fe ff ff       	jmpq   2cc7 <_ZN6db_avlI9list_nodeI6recordEE9search_eqEP8avl_nodeIS2_ERKS0_I7commandE+0x387>
    2dd0:	48 85 c9             	test   %rcx,%rcx
    2dd3:	0f 9f c1             	setg   %cl
    2dd6:	0f b6 c9             	movzbl %cl,%ecx
    2dd9:	01 f9                	add    %edi,%ecx
    2ddb:	e9 e7 fe ff ff       	jmpq   2cc7 <_ZN6db_avlI9list_nodeI6recordEE9search_eqEP8avl_nodeIS2_ERKS0_I7commandE+0x387>
    2de0:	85 ff                	test   %edi,%edi
    2de2:	40 0f 95 c7          	setne  %dil
    2de6:	40 0f b6 ff          	movzbl %dil,%edi
    2dea:	e9 04 ff ff ff       	jmpq   2cf3 <_ZN6db_avlI9list_nodeI6recordEE9search_eqEP8avl_nodeIS2_ERKS0_I7commandE+0x3b3>
    2def:	85 ff                	test   %edi,%edi
    2df1:	40 0f 94 c7          	sete   %dil
    2df5:	40 0f b6 ff          	movzbl %dil,%edi
    2df9:	e9 f5 fe ff ff       	jmpq   2cf3 <_ZN6db_avlI9list_nodeI6recordEE9search_eqEP8avl_nodeIS2_ERKS0_I7commandE+0x3b3>
    2dfe:	85 ff                	test   %edi,%edi
    2e00:	40 0f 9e c7          	setle  %dil
    2e04:	40 0f b6 ff          	movzbl %dil,%edi
    2e08:	e9 e6 fe ff ff       	jmpq   2cf3 <_ZN6db_avlI9list_nodeI6recordEE9search_eqEP8avl_nodeIS2_ERKS0_I7commandE+0x3b3>
    2e0d:	85 ff                	test   %edi,%edi
    2e0f:	40 0f 9f c7          	setg   %dil
    2e13:	40 0f b6 ff          	movzbl %dil,%edi
    2e17:	e9 d7 fe ff ff       	jmpq   2cf3 <_ZN6db_avlI9list_nodeI6recordEE9search_eqEP8avl_nodeIS2_ERKS0_I7commandE+0x3b3>
    2e1c:	8d 4f 01             	lea    0x1(%rdi),%ecx
    2e1f:	e9 a8 fd ff ff       	jmpq   2bcc <_ZN6db_avlI9list_nodeI6recordEE9search_eqEP8avl_nodeIS2_ERKS0_I7commandE+0x28c>
    2e24:	8d 4f 01             	lea    0x1(%rdi),%ecx
    2e27:	e9 9b fe ff ff       	jmpq   2cc7 <_ZN6db_avlI9list_nodeI6recordEE9search_eqEP8avl_nodeIS2_ERKS0_I7commandE+0x387>
    2e2c:	bf 01 00 00 00       	mov    $0x1,%edi
    2e31:	e9 5b fe ff ff       	jmpq   2c91 <_ZN6db_avlI9list_nodeI6recordEE9search_eqEP8avl_nodeIS2_ERKS0_I7commandE+0x351>
    2e36:	bf 01 00 00 00       	mov    $0x1,%edi
    2e3b:	e9 b3 fe ff ff       	jmpq   2cf3 <_ZN6db_avlI9list_nodeI6recordEE9search_eqEP8avl_nodeIS2_ERKS0_I7commandE+0x3b3>

0000000000002e40 <_ZN6db_avlI9list_nodeI6recordEE15print_and_countEP8avl_nodeIS2_ERKS0_I7commandE>:
    2e40:	41 57                	push   %r15
    2e42:	41 56                	push   %r14
    2e44:	41 55                	push   %r13
    2e46:	41 54                	push   %r12
    2e48:	55                   	push   %rbp
    2e49:	53                   	push   %rbx
    2e4a:	48 83 ec 28          	sub    $0x28,%rsp
    2e4e:	48 85 f6             	test   %rsi,%rsi
    2e51:	48 89 74 24 08       	mov    %rsi,0x8(%rsp)
    2e56:	0f 84 04 03 00 00    	je     3160 <_ZN6db_avlI9list_nodeI6recordEE15print_and_countEP8avl_nodeIS2_ERKS0_I7commandE+0x320>
    2e5c:	48 89 f0             	mov    %rsi,%rax
    2e5f:	48 89 7c 24 18       	mov    %rdi,0x18(%rsp)
    2e64:	49 89 d7             	mov    %rdx,%r15
    2e67:	48 8b 10             	mov    (%rax),%rdx
    2e6a:	41 8b 47 28          	mov    0x28(%r15),%eax
    2e6e:	41 8b 77 24          	mov    0x24(%r15),%esi
    2e72:	41 8b 4f 20          	mov    0x20(%r15),%ecx
    2e76:	01 c1                	add    %eax,%ecx
    2e78:	01 f1                	add    %esi,%ecx
    2e7a:	0f 84 d8 04 00 00    	je     3358 <_ZN6db_avlI9list_nodeI6recordEE15print_and_countEP8avl_nodeIS2_ERKS0_I7commandE+0x518>
    2e80:	85 c0                	test   %eax,%eax
    2e82:	b9 01 00 00 00       	mov    $0x1,%ecx
    2e87:	74 2f                	je     2eb8 <_ZN6db_avlI9list_nodeI6recordEE15print_and_countEP8avl_nodeIS2_ERKS0_I7commandE+0x78>
    2e89:	8b 4a 18             	mov    0x18(%rdx),%ecx
    2e8c:	41 2b 4f 18          	sub    0x18(%r15),%ecx
    2e90:	83 f8 06             	cmp    $0x6,%eax
    2e93:	0f 87 f0 05 00 00    	ja     3489 <_ZN6db_avlI9list_nodeI6recordEE15print_and_countEP8avl_nodeIS2_ERKS0_I7commandE+0x649>
    2e99:	48 8d 3d 74 4d 00 00 	lea    0x4d74(%rip),%rdi        # 7c14 <_IO_stdin_used+0x114>
    2ea0:	48 63 04 87          	movslq (%rdi,%rax,4),%rax
    2ea4:	48 01 f8             	add    %rdi,%rax
    2ea7:	ff e0                	jmpq   *%rax
    2ea9:	85 c9                	test   %ecx,%ecx
    2eab:	0f 9e c1             	setle  %cl
    2eae:	0f b6 c9             	movzbl %cl,%ecx
    2eb1:	0f 1f 80 00 00 00 00 	nopl   0x0(%rax)
    2eb8:	85 f6                	test   %esi,%esi
    2eba:	8d 41 01             	lea    0x1(%rcx),%eax
    2ebd:	74 31                	je     2ef0 <_ZN6db_avlI9list_nodeI6recordEE15print_and_countEP8avl_nodeIS2_ERKS0_I7commandE+0xb0>
    2ebf:	48 8b 42 10          	mov    0x10(%rdx),%rax
    2ec3:	49 2b 47 10          	sub    0x10(%r15),%rax
    2ec7:	83 fe 06             	cmp    $0x6,%esi
    2eca:	0f 87 b1 05 00 00    	ja     3481 <_ZN6db_avlI9list_nodeI6recordEE15print_and_countEP8avl_nodeIS2_ERKS0_I7commandE+0x641>
    2ed0:	48 8d 3d 59 4d 00 00 	lea    0x4d59(%rip),%rdi        # 7c30 <_IO_stdin_used+0x130>
    2ed7:	48 63 34 b7          	movslq (%rdi,%rsi,4),%rsi
    2edb:	48 01 fe             	add    %rdi,%rsi
    2ede:	ff e6                	jmpq   *%rsi
    2ee0:	48 f7 d0             	not    %rax
    2ee3:	48 c1 e8 3f          	shr    $0x3f,%rax
    2ee7:	01 c8                	add    %ecx,%eax
    2ee9:	0f 1f 80 00 00 00 00 	nopl   0x0(%rax)
    2ef0:	83 f8 02             	cmp    $0x2,%eax
    2ef3:	0f 84 5f 04 00 00    	je     3358 <_ZN6db_avlI9list_nodeI6recordEE15print_and_countEP8avl_nodeIS2_ERKS0_I7commandE+0x518>
    2ef9:	83 f8 01             	cmp    $0x1,%eax
    2efc:	0f 84 46 04 00 00    	je     3348 <_ZN6db_avlI9list_nodeI6recordEE15print_and_countEP8avl_nodeIS2_ERKS0_I7commandE+0x508>
    2f02:	48 8b 44 24 08       	mov    0x8(%rsp),%rax
    2f07:	4c 8b 68 08          	mov    0x8(%rax),%r13
    2f0b:	4d 85 ed             	test   %r13,%r13
    2f0e:	0f 84 35 02 00 00    	je     3149 <_ZN6db_avlI9list_nodeI6recordEE15print_and_countEP8avl_nodeIS2_ERKS0_I7commandE+0x309>
    2f14:	41 8b 47 28          	mov    0x28(%r15),%eax
    2f18:	41 8b 77 24          	mov    0x24(%r15),%esi
    2f1c:	41 8b 4f 20          	mov    0x20(%r15),%ecx
    2f20:	49 8b 55 00          	mov    0x0(%r13),%rdx
    2f24:	01 c1                	add    %eax,%ecx
    2f26:	01 f1                	add    %esi,%ecx
    2f28:	0f 84 e2 03 00 00    	je     3310 <_ZN6db_avlI9list_nodeI6recordEE15print_and_countEP8avl_nodeIS2_ERKS0_I7commandE+0x4d0>
    2f2e:	85 c0                	test   %eax,%eax
    2f30:	b9 01 00 00 00       	mov    $0x1,%ecx
    2f35:	74 29                	je     2f60 <_ZN6db_avlI9list_nodeI6recordEE15print_and_countEP8avl_nodeIS2_ERKS0_I7commandE+0x120>
    2f37:	8b 4a 18             	mov    0x18(%rdx),%ecx
    2f3a:	41 2b 4f 18          	sub    0x18(%r15),%ecx
    2f3e:	83 f8 06             	cmp    $0x6,%eax
    2f41:	0f 87 c9 04 00 00    	ja     3410 <_ZN6db_avlI9list_nodeI6recordEE15print_and_countEP8avl_nodeIS2_ERKS0_I7commandE+0x5d0>
    2f47:	48 8d 3d fe 4c 00 00 	lea    0x4cfe(%rip),%rdi        # 7c4c <_IO_stdin_used+0x14c>
    2f4e:	48 63 04 87          	movslq (%rdi,%rax,4),%rax
    2f52:	48 01 f8             	add    %rdi,%rax
    2f55:	ff e0                	jmpq   *%rax
    2f57:	f7 d1                	not    %ecx
    2f59:	c1 e9 1f             	shr    $0x1f,%ecx
    2f5c:	0f 1f 40 00          	nopl   0x0(%rax)
    2f60:	85 f6                	test   %esi,%esi
    2f62:	8d 41 01             	lea    0x1(%rcx),%eax
    2f65:	74 31                	je     2f98 <_ZN6db_avlI9list_nodeI6recordEE15print_and_countEP8avl_nodeIS2_ERKS0_I7commandE+0x158>
    2f67:	48 8b 42 10          	mov    0x10(%rdx),%rax
    2f6b:	49 2b 47 10          	sub    0x10(%r15),%rax
    2f6f:	83 fe 06             	cmp    $0x6,%esi
    2f72:	0f 87 86 04 00 00    	ja     33fe <_ZN6db_avlI9list_nodeI6recordEE15print_and_countEP8avl_nodeIS2_ERKS0_I7commandE+0x5be>
    2f78:	48 8d 1d e9 4c 00 00 	lea    0x4ce9(%rip),%rbx        # 7c68 <_IO_stdin_used+0x168>
    2f7f:	48 63 34 b3          	movslq (%rbx,%rsi,4),%rsi
    2f83:	48 01 de             	add    %rbx,%rsi
    2f86:	ff e6                	jmpq   *%rsi
    2f88:	48 f7 d0             	not    %rax
    2f8b:	48 c1 e8 3f          	shr    $0x3f,%rax
    2f8f:	01 c8                	add    %ecx,%eax
    2f91:	0f 1f 80 00 00 00 00 	nopl   0x0(%rax)
    2f98:	83 f8 02             	cmp    $0x2,%eax
    2f9b:	0f 84 6f 03 00 00    	je     3310 <_ZN6db_avlI9list_nodeI6recordEE15print_and_countEP8avl_nodeIS2_ERKS0_I7commandE+0x4d0>
    2fa1:	83 f8 01             	cmp    $0x1,%eax
    2fa4:	0f 84 56 03 00 00    	je     3300 <_ZN6db_avlI9list_nodeI6recordEE15print_and_countEP8avl_nodeIS2_ERKS0_I7commandE+0x4c0>
    2faa:	49 8b 5d 08          	mov    0x8(%r13),%rbx
    2fae:	48 85 db             	test   %rbx,%rbx
    2fb1:	0f 84 85 01 00 00    	je     313c <_ZN6db_avlI9list_nodeI6recordEE15print_and_countEP8avl_nodeIS2_ERKS0_I7commandE+0x2fc>
    2fb7:	48 8b 6c 24 18       	mov    0x18(%rsp),%rbp
    2fbc:	4c 89 6c 24 10       	mov    %r13,0x10(%rsp)
    2fc1:	41 8b 47 28          	mov    0x28(%r15),%eax
    2fc5:	41 8b 77 24          	mov    0x24(%r15),%esi
    2fc9:	41 8b 4f 20          	mov    0x20(%r15),%ecx
    2fcd:	48 8b 13             	mov    (%rbx),%rdx
    2fd0:	01 c1                	add    %eax,%ecx
    2fd2:	01 f1                	add    %esi,%ecx
    2fd4:	0f 84 6e 02 00 00    	je     3248 <_ZN6db_avlI9list_nodeI6recordEE15print_and_countEP8avl_nodeIS2_ERKS0_I7commandE+0x408>
    2fda:	85 c0                	test   %eax,%eax
    2fdc:	b9 01 00 00 00       	mov    $0x1,%ecx
    2fe1:	74 2d                	je     3010 <_ZN6db_avlI9list_nodeI6recordEE15print_and_countEP8avl_nodeIS2_ERKS0_I7commandE+0x1d0>
    2fe3:	8b 4a 18             	mov    0x18(%rdx),%ecx
    2fe6:	41 2b 4f 18          	sub    0x18(%r15),%ecx
    2fea:	83 f8 06             	cmp    $0x6,%eax
    2fed:	0f 87 8d 03 00 00    	ja     3380 <_ZN6db_avlI9list_nodeI6recordEE15print_and_countEP8avl_nodeIS2_ERKS0_I7commandE+0x540>
    2ff3:	48 8d 3d 8a 4c 00 00 	lea    0x4c8a(%rip),%rdi        # 7c84 <_IO_stdin_used+0x184>
    2ffa:	48 63 04 87          	movslq (%rdi,%rax,4),%rax
    2ffe:	48 01 f8             	add    %rdi,%rax
    3001:	ff e0                	jmpq   *%rax
    3003:	0f 1f 44 00 00       	nopl   0x0(%rax,%rax,1)
    3008:	f7 d1                	not    %ecx
    300a:	c1 e9 1f             	shr    $0x1f,%ecx
    300d:	0f 1f 00             	nopl   (%rax)
    3010:	85 f6                	test   %esi,%esi
    3012:	8d 41 01             	lea    0x1(%rcx),%eax
    3015:	74 39                	je     3050 <_ZN6db_avlI9list_nodeI6recordEE15print_and_countEP8avl_nodeIS2_ERKS0_I7commandE+0x210>
    3017:	48 8b 42 10          	mov    0x10(%rdx),%rax
    301b:	49 2b 47 10          	sub    0x10(%r15),%rax
    301f:	83 fe 06             	cmp    $0x6,%esi
    3022:	0f 87 b8 02 00 00    	ja     32e0 <_ZN6db_avlI9list_nodeI6recordEE15print_and_countEP8avl_nodeIS2_ERKS0_I7commandE+0x4a0>
    3028:	48 8d 3d 71 4c 00 00 	lea    0x4c71(%rip),%rdi        # 7ca0 <_IO_stdin_used+0x1a0>
    302f:	48 63 34 b7          	movslq (%rdi,%rsi,4),%rsi
    3033:	48 01 fe             	add    %rdi,%rsi
    3036:	ff e6                	jmpq   *%rsi
    3038:	0f 1f 84 00 00 00 00 	nopl   0x0(%rax,%rax,1)
    303f:	00 
    3040:	48 f7 d0             	not    %rax
    3043:	48 c1 e8 3f          	shr    $0x3f,%rax
    3047:	01 c8                	add    %ecx,%eax
    3049:	0f 1f 80 00 00 00 00 	nopl   0x0(%rax)
    3050:	83 f8 02             	cmp    $0x2,%eax
    3053:	0f 84 ef 01 00 00    	je     3248 <_ZN6db_avlI9list_nodeI6recordEE15print_and_countEP8avl_nodeIS2_ERKS0_I7commandE+0x408>
    3059:	83 f8 01             	cmp    $0x1,%eax
    305c:	0f 84 d6 02 00 00    	je     3338 <_ZN6db_avlI9list_nodeI6recordEE15print_and_countEP8avl_nodeIS2_ERKS0_I7commandE+0x4f8>
    3062:	4c 8b 6b 08          	mov    0x8(%rbx),%r13
    3066:	4d 85 ed             	test   %r13,%r13
    3069:	0f 84 bb 00 00 00    	je     312a <_ZN6db_avlI9list_nodeI6recordEE15print_and_countEP8avl_nodeIS2_ERKS0_I7commandE+0x2ea>
    306f:	4c 8d 25 df 4a 00 00 	lea    0x4adf(%rip),%r12        # 7b55 <_IO_stdin_used+0x55>
    3076:	4c 8d 35 3f 4c 00 00 	lea    0x4c3f(%rip),%r14        # 7cbc <_IO_stdin_used+0x1bc>
    307d:	41 8b 47 28          	mov    0x28(%r15),%eax
    3081:	41 8b 77 24          	mov    0x24(%r15),%esi
    3085:	41 8b 4f 20          	mov    0x20(%r15),%ecx
    3089:	49 8b 55 00          	mov    0x0(%r13),%rdx
    308d:	01 c1                	add    %eax,%ecx
    308f:	01 f1                	add    %esi,%ecx
    3091:	0f 84 e9 00 00 00    	je     3180 <_ZN6db_avlI9list_nodeI6recordEE15print_and_countEP8avl_nodeIS2_ERKS0_I7commandE+0x340>
    3097:	85 c0                	test   %eax,%eax
    3099:	b9 01 00 00 00       	mov    $0x1,%ecx
    309e:	74 28                	je     30c8 <_ZN6db_avlI9list_nodeI6recordEE15print_and_countEP8avl_nodeIS2_ERKS0_I7commandE+0x288>
    30a0:	8b 4a 18             	mov    0x18(%rdx),%ecx
    30a3:	41 2b 4f 18          	sub    0x18(%r15),%ecx
    30a7:	83 f8 06             	cmp    $0x6,%eax
    30aa:	0f 87 70 01 00 00    	ja     3220 <_ZN6db_avlI9list_nodeI6recordEE15print_and_countEP8avl_nodeIS2_ERKS0_I7commandE+0x3e0>
    30b0:	49 63 04 86          	movslq (%r14,%rax,4),%rax
    30b4:	4c 01 f0             	add    %r14,%rax
    30b7:	ff e0                	jmpq   *%rax
    30b9:	0f 1f 80 00 00 00 00 	nopl   0x0(%rax)
    30c0:	f7 d1                	not    %ecx
    30c2:	c1 e9 1f             	shr    $0x1f,%ecx
    30c5:	0f 1f 00             	nopl   (%rax)
    30c8:	85 f6                	test   %esi,%esi
    30ca:	8d 41 01             	lea    0x1(%rcx),%eax
    30cd:	74 31                	je     3100 <_ZN6db_avlI9list_nodeI6recordEE15print_and_countEP8avl_nodeIS2_ERKS0_I7commandE+0x2c0>
    30cf:	48 8b 42 10          	mov    0x10(%rdx),%rax
    30d3:	49 2b 47 10          	sub    0x10(%r15),%rax
    30d7:	83 fe 06             	cmp    $0x6,%esi
    30da:	0f 87 30 01 00 00    	ja     3210 <_ZN6db_avlI9list_nodeI6recordEE15print_and_countEP8avl_nodeIS2_ERKS0_I7commandE+0x3d0>
    30e0:	48 8d 3d f1 4b 00 00 	lea    0x4bf1(%rip),%rdi        # 7cd8 <_IO_stdin_used+0x1d8>
    30e7:	48 63 34 b7          	movslq (%rdi,%rsi,4),%rsi
    30eb:	48 01 fe             	add    %rdi,%rsi
    30ee:	ff e6                	jmpq   *%rsi
    30f0:	48 f7 d0             	not    %rax
    30f3:	48 c1 e8 3f          	shr    $0x3f,%rax
    30f7:	01 c8                	add    %ecx,%eax
    30f9:	0f 1f 80 00 00 00 00 	nopl   0x0(%rax)
    3100:	83 f8 02             	cmp    $0x2,%eax
    3103:	74 7b                	je     3180 <_ZN6db_avlI9list_nodeI6recordEE15print_and_countEP8avl_nodeIS2_ERKS0_I7commandE+0x340>
    3105:	83 f8 01             	cmp    $0x1,%eax
    3108:	0f 84 e2 01 00 00    	je     32f0 <_ZN6db_avlI9list_nodeI6recordEE15print_and_countEP8avl_nodeIS2_ERKS0_I7commandE+0x4b0>
    310e:	49 8b 75 08          	mov    0x8(%r13),%rsi
    3112:	4c 89 fa             	mov    %r15,%rdx
    3115:	48 89 ef             	mov    %rbp,%rdi
    3118:	e8 23 fd ff ff       	callq  2e40 <_ZN6db_avlI9list_nodeI6recordEE15print_and_countEP8avl_nodeIS2_ERKS0_I7commandE>
    311d:	4d 8b 6d 10          	mov    0x10(%r13),%r13
    3121:	4d 85 ed             	test   %r13,%r13
    3124:	0f 85 53 ff ff ff    	jne    307d <_ZN6db_avlI9list_nodeI6recordEE15print_and_countEP8avl_nodeIS2_ERKS0_I7commandE+0x23d>
    312a:	48 8b 5b 10          	mov    0x10(%rbx),%rbx
    312e:	48 85 db             	test   %rbx,%rbx
    3131:	0f 85 8a fe ff ff    	jne    2fc1 <_ZN6db_avlI9list_nodeI6recordEE15print_and_countEP8avl_nodeIS2_ERKS0_I7commandE+0x181>
    3137:	4c 8b 6c 24 10       	mov    0x10(%rsp),%r13
    313c:	4d 8b 6d 10          	mov    0x10(%r13),%r13
    3140:	4d 85 ed             	test   %r13,%r13
    3143:	0f 85 cb fd ff ff    	jne    2f14 <_ZN6db_avlI9list_nodeI6recordEE15print_and_countEP8avl_nodeIS2_ERKS0_I7commandE+0xd4>
    3149:	48 8b 44 24 08       	mov    0x8(%rsp),%rax
    314e:	48 8b 40 10          	mov    0x10(%rax),%rax
    3152:	48 85 c0             	test   %rax,%rax
    3155:	48 89 44 24 08       	mov    %rax,0x8(%rsp)
    315a:	0f 85 07 fd ff ff    	jne    2e67 <_ZN6db_avlI9list_nodeI6recordEE15print_and_countEP8avl_nodeIS2_ERKS0_I7commandE+0x27>
    3160:	48 83 c4 28          	add    $0x28,%rsp
    3164:	5b                   	pop    %rbx
    3165:	5d                   	pop    %rbp
    3166:	41 5c                	pop    %r12
    3168:	41 5d                	pop    %r13
    316a:	41 5e                	pop    %r14
    316c:	41 5f                	pop    %r15
    316e:	c3                   	retq   
    316f:	90                   	nop
    3170:	48 85 c0             	test   %rax,%rax
    3173:	0f 95 c0             	setne  %al
    3176:	0f b6 c0             	movzbl %al,%eax
    3179:	01 c8                	add    %ecx,%eax
    317b:	83 f8 02             	cmp    $0x2,%eax
    317e:	75 85                	jne    3105 <_ZN6db_avlI9list_nodeI6recordEE15print_and_countEP8avl_nodeIS2_ERKS0_I7commandE+0x2c5>
    3180:	48 8b 4a 10          	mov    0x10(%rdx),%rcx
    3184:	44 8b 42 18          	mov    0x18(%rdx),%r8d
    3188:	4c 89 e6             	mov    %r12,%rsi
    318b:	48 8b 12             	mov    (%rdx),%rdx
    318e:	bf 01 00 00 00       	mov    $0x1,%edi
    3193:	31 c0                	xor    %eax,%eax
    3195:	e8 b6 da ff ff       	callq  c50 <__printf_chk@plt>
    319a:	e9 6f ff ff ff       	jmpq   310e <_ZN6db_avlI9list_nodeI6recordEE15print_and_countEP8avl_nodeIS2_ERKS0_I7commandE+0x2ce>
    319f:	90                   	nop
    31a0:	48 85 c0             	test   %rax,%rax
    31a3:	0f 94 c0             	sete   %al
    31a6:	0f b6 c0             	movzbl %al,%eax
    31a9:	01 c8                	add    %ecx,%eax
    31ab:	e9 50 ff ff ff       	jmpq   3100 <_ZN6db_avlI9list_nodeI6recordEE15print_and_countEP8avl_nodeIS2_ERKS0_I7commandE+0x2c0>
    31b0:	48 85 c0             	test   %rax,%rax
    31b3:	0f 9e c0             	setle  %al
    31b6:	0f b6 c0             	movzbl %al,%eax
    31b9:	01 c8                	add    %ecx,%eax
    31bb:	e9 40 ff ff ff       	jmpq   3100 <_ZN6db_avlI9list_nodeI6recordEE15print_and_countEP8avl_nodeIS2_ERKS0_I7commandE+0x2c0>
    31c0:	48 85 c0             	test   %rax,%rax
    31c3:	0f 9f c0             	setg   %al
    31c6:	0f b6 c0             	movzbl %al,%eax
    31c9:	01 c8                	add    %ecx,%eax
    31cb:	e9 30 ff ff ff       	jmpq   3100 <_ZN6db_avlI9list_nodeI6recordEE15print_and_countEP8avl_nodeIS2_ERKS0_I7commandE+0x2c0>
    31d0:	85 c9                	test   %ecx,%ecx
    31d2:	0f 95 c1             	setne  %cl
    31d5:	0f b6 c9             	movzbl %cl,%ecx
    31d8:	e9 eb fe ff ff       	jmpq   30c8 <_ZN6db_avlI9list_nodeI6recordEE15print_and_countEP8avl_nodeIS2_ERKS0_I7commandE+0x288>
    31dd:	0f 1f 00             	nopl   (%rax)
    31e0:	85 c9                	test   %ecx,%ecx
    31e2:	0f 94 c1             	sete   %cl
    31e5:	0f b6 c9             	movzbl %cl,%ecx
    31e8:	e9 db fe ff ff       	jmpq   30c8 <_ZN6db_avlI9list_nodeI6recordEE15print_and_countEP8avl_nodeIS2_ERKS0_I7commandE+0x288>
    31ed:	0f 1f 00             	nopl   (%rax)
    31f0:	85 c9                	test   %ecx,%ecx
    31f2:	0f 9e c1             	setle  %cl
    31f5:	0f b6 c9             	movzbl %cl,%ecx
    31f8:	e9 cb fe ff ff       	jmpq   30c8 <_ZN6db_avlI9list_nodeI6recordEE15print_and_countEP8avl_nodeIS2_ERKS0_I7commandE+0x288>
    31fd:	0f 1f 00             	nopl   (%rax)
    3200:	85 c9                	test   %ecx,%ecx
    3202:	0f 9f c1             	setg   %cl
    3205:	0f b6 c9             	movzbl %cl,%ecx
    3208:	e9 bb fe ff ff       	jmpq   30c8 <_ZN6db_avlI9list_nodeI6recordEE15print_and_countEP8avl_nodeIS2_ERKS0_I7commandE+0x288>
    320d:	0f 1f 00             	nopl   (%rax)
    3210:	8d 41 01             	lea    0x1(%rcx),%eax
    3213:	e9 e8 fe ff ff       	jmpq   3100 <_ZN6db_avlI9list_nodeI6recordEE15print_and_countEP8avl_nodeIS2_ERKS0_I7commandE+0x2c0>
    3218:	0f 1f 84 00 00 00 00 	nopl   0x0(%rax,%rax,1)
    321f:	00 
    3220:	b9 01 00 00 00       	mov    $0x1,%ecx
    3225:	e9 9e fe ff ff       	jmpq   30c8 <_ZN6db_avlI9list_nodeI6recordEE15print_and_countEP8avl_nodeIS2_ERKS0_I7commandE+0x288>
    322a:	66 0f 1f 44 00 00    	nopw   0x0(%rax,%rax,1)
    3230:	48 85 c0             	test   %rax,%rax
    3233:	0f 95 c0             	setne  %al
    3236:	0f b6 c0             	movzbl %al,%eax
    3239:	01 c8                	add    %ecx,%eax
    323b:	83 f8 02             	cmp    $0x2,%eax
    323e:	0f 85 15 fe ff ff    	jne    3059 <_ZN6db_avlI9list_nodeI6recordEE15print_and_countEP8avl_nodeIS2_ERKS0_I7commandE+0x219>
    3244:	0f 1f 40 00          	nopl   0x0(%rax)
    3248:	48 8b 4a 10          	mov    0x10(%rdx),%rcx
    324c:	44 8b 42 18          	mov    0x18(%rdx),%r8d
    3250:	48 8d 35 fe 48 00 00 	lea    0x48fe(%rip),%rsi        # 7b55 <_IO_stdin_used+0x55>
    3257:	48 8b 12             	mov    (%rdx),%rdx
    325a:	bf 01 00 00 00       	mov    $0x1,%edi
    325f:	31 c0                	xor    %eax,%eax
    3261:	e8 ea d9 ff ff       	callq  c50 <__printf_chk@plt>
    3266:	e9 f7 fd ff ff       	jmpq   3062 <_ZN6db_avlI9list_nodeI6recordEE15print_and_countEP8avl_nodeIS2_ERKS0_I7commandE+0x222>
    326b:	0f 1f 44 00 00       	nopl   0x0(%rax,%rax,1)
    3270:	48 85 c0             	test   %rax,%rax
    3273:	0f 94 c0             	sete   %al
    3276:	0f b6 c0             	movzbl %al,%eax
    3279:	01 c8                	add    %ecx,%eax
    327b:	e9 d0 fd ff ff       	jmpq   3050 <_ZN6db_avlI9list_nodeI6recordEE15print_and_countEP8avl_nodeIS2_ERKS0_I7commandE+0x210>
    3280:	85 c9                	test   %ecx,%ecx
    3282:	0f 94 c1             	sete   %cl
    3285:	0f b6 c9             	movzbl %cl,%ecx
    3288:	e9 83 fd ff ff       	jmpq   3010 <_ZN6db_avlI9list_nodeI6recordEE15print_and_countEP8avl_nodeIS2_ERKS0_I7commandE+0x1d0>
    328d:	0f 1f 00             	nopl   (%rax)
    3290:	85 c9                	test   %ecx,%ecx
    3292:	0f 95 c1             	setne  %cl
    3295:	0f b6 c9             	movzbl %cl,%ecx
    3298:	e9 73 fd ff ff       	jmpq   3010 <_ZN6db_avlI9list_nodeI6recordEE15print_and_countEP8avl_nodeIS2_ERKS0_I7commandE+0x1d0>
    329d:	0f 1f 00             	nopl   (%rax)
    32a0:	48 85 c0             	test   %rax,%rax
    32a3:	0f 9e c0             	setle  %al
    32a6:	0f b6 c0             	movzbl %al,%eax
    32a9:	01 c8                	add    %ecx,%eax
    32ab:	e9 a0 fd ff ff       	jmpq   3050 <_ZN6db_avlI9list_nodeI6recordEE15print_and_countEP8avl_nodeIS2_ERKS0_I7commandE+0x210>
    32b0:	48 85 c0             	test   %rax,%rax
    32b3:	0f 9f c0             	setg   %al
    32b6:	0f b6 c0             	movzbl %al,%eax
    32b9:	01 c8                	add    %ecx,%eax
    32bb:	e9 90 fd ff ff       	jmpq   3050 <_ZN6db_avlI9list_nodeI6recordEE15print_and_countEP8avl_nodeIS2_ERKS0_I7commandE+0x210>
    32c0:	85 c9                	test   %ecx,%ecx
    32c2:	0f 9e c1             	setle  %cl
    32c5:	0f b6 c9             	movzbl %cl,%ecx
    32c8:	e9 43 fd ff ff       	jmpq   3010 <_ZN6db_avlI9list_nodeI6recordEE15print_and_countEP8avl_nodeIS2_ERKS0_I7commandE+0x1d0>
    32cd:	0f 1f 00             	nopl   (%rax)
    32d0:	85 c9                	test   %ecx,%ecx
    32d2:	0f 9f c1             	setg   %cl
    32d5:	0f b6 c9             	movzbl %cl,%ecx
    32d8:	e9 33 fd ff ff       	jmpq   3010 <_ZN6db_avlI9list_nodeI6recordEE15print_and_countEP8avl_nodeIS2_ERKS0_I7commandE+0x1d0>
    32dd:	0f 1f 00             	nopl   (%rax)
    32e0:	8d 41 01             	lea    0x1(%rcx),%eax
    32e3:	e9 68 fd ff ff       	jmpq   3050 <_ZN6db_avlI9list_nodeI6recordEE15print_and_countEP8avl_nodeIS2_ERKS0_I7commandE+0x210>
    32e8:	0f 1f 84 00 00 00 00 	nopl   0x0(%rax,%rax,1)
    32ef:	00 
    32f0:	41 83 7f 2c 02       	cmpl   $0x2,0x2c(%r15)
    32f5:	0f 85 13 fe ff ff    	jne    310e <_ZN6db_avlI9list_nodeI6recordEE15print_and_countEP8avl_nodeIS2_ERKS0_I7commandE+0x2ce>
    32fb:	e9 80 fe ff ff       	jmpq   3180 <_ZN6db_avlI9list_nodeI6recordEE15print_and_countEP8avl_nodeIS2_ERKS0_I7commandE+0x340>
    3300:	41 83 7f 2c 02       	cmpl   $0x2,0x2c(%r15)
    3305:	0f 85 9f fc ff ff    	jne    2faa <_ZN6db_avlI9list_nodeI6recordEE15print_and_countEP8avl_nodeIS2_ERKS0_I7commandE+0x16a>
    330b:	0f 1f 44 00 00       	nopl   0x0(%rax,%rax,1)
    3310:	48 8b 4a 10          	mov    0x10(%rdx),%rcx
    3314:	44 8b 42 18          	mov    0x18(%rdx),%r8d
    3318:	48 8d 35 36 48 00 00 	lea    0x4836(%rip),%rsi        # 7b55 <_IO_stdin_used+0x55>
    331f:	48 8b 12             	mov    (%rdx),%rdx
    3322:	bf 01 00 00 00       	mov    $0x1,%edi
    3327:	31 c0                	xor    %eax,%eax
    3329:	e8 22 d9 ff ff       	callq  c50 <__printf_chk@plt>
    332e:	e9 77 fc ff ff       	jmpq   2faa <_ZN6db_avlI9list_nodeI6recordEE15print_and_countEP8avl_nodeIS2_ERKS0_I7commandE+0x16a>
    3333:	0f 1f 44 00 00       	nopl   0x0(%rax,%rax,1)
    3338:	41 83 7f 2c 02       	cmpl   $0x2,0x2c(%r15)
    333d:	0f 85 1f fd ff ff    	jne    3062 <_ZN6db_avlI9list_nodeI6recordEE15print_and_countEP8avl_nodeIS2_ERKS0_I7commandE+0x222>
    3343:	e9 00 ff ff ff       	jmpq   3248 <_ZN6db_avlI9list_nodeI6recordEE15print_and_countEP8avl_nodeIS2_ERKS0_I7commandE+0x408>
    3348:	41 83 7f 2c 02       	cmpl   $0x2,0x2c(%r15)
    334d:	0f 85 af fb ff ff    	jne    2f02 <_ZN6db_avlI9list_nodeI6recordEE15print_and_countEP8avl_nodeIS2_ERKS0_I7commandE+0xc2>
    3353:	0f 1f 44 00 00       	nopl   0x0(%rax,%rax,1)
    3358:	48 8b 4a 10          	mov    0x10(%rdx),%rcx
    335c:	44 8b 42 18          	mov    0x18(%rdx),%r8d
    3360:	48 8d 35 ee 47 00 00 	lea    0x47ee(%rip),%rsi        # 7b55 <_IO_stdin_used+0x55>
    3367:	48 8b 12             	mov    (%rdx),%rdx
    336a:	bf 01 00 00 00       	mov    $0x1,%edi
    336f:	31 c0                	xor    %eax,%eax
    3371:	e8 da d8 ff ff       	callq  c50 <__printf_chk@plt>
    3376:	e9 87 fb ff ff       	jmpq   2f02 <_ZN6db_avlI9list_nodeI6recordEE15print_and_countEP8avl_nodeIS2_ERKS0_I7commandE+0xc2>
    337b:	0f 1f 44 00 00       	nopl   0x0(%rax,%rax,1)
    3380:	b9 01 00 00 00       	mov    $0x1,%ecx
    3385:	e9 86 fc ff ff       	jmpq   3010 <_ZN6db_avlI9list_nodeI6recordEE15print_and_countEP8avl_nodeIS2_ERKS0_I7commandE+0x1d0>
    338a:	48 85 c0             	test   %rax,%rax
    338d:	0f 9e c0             	setle  %al
    3390:	0f b6 c0             	movzbl %al,%eax
    3393:	01 c8                	add    %ecx,%eax
    3395:	e9 fe fb ff ff       	jmpq   2f98 <_ZN6db_avlI9list_nodeI6recordEE15print_and_countEP8avl_nodeIS2_ERKS0_I7commandE+0x158>
    339a:	48 85 c0             	test   %rax,%rax
    339d:	0f 9f c0             	setg   %al
    33a0:	0f b6 c0             	movzbl %al,%eax
    33a3:	01 c8                	add    %ecx,%eax
    33a5:	e9 ee fb ff ff       	jmpq   2f98 <_ZN6db_avlI9list_nodeI6recordEE15print_and_countEP8avl_nodeIS2_ERKS0_I7commandE+0x158>
    33aa:	48 85 c0             	test   %rax,%rax
    33ad:	0f 95 c0             	setne  %al
    33b0:	0f b6 c0             	movzbl %al,%eax
    33b3:	01 c8                	add    %ecx,%eax
    33b5:	e9 de fb ff ff       	jmpq   2f98 <_ZN6db_avlI9list_nodeI6recordEE15print_and_countEP8avl_nodeIS2_ERKS0_I7commandE+0x158>
    33ba:	48 85 c0             	test   %rax,%rax
    33bd:	0f 94 c0             	sete   %al
    33c0:	0f b6 c0             	movzbl %al,%eax
    33c3:	01 c8                	add    %ecx,%eax
    33c5:	e9 ce fb ff ff       	jmpq   2f98 <_ZN6db_avlI9list_nodeI6recordEE15print_and_countEP8avl_nodeIS2_ERKS0_I7commandE+0x158>
    33ca:	85 c9                	test   %ecx,%ecx
    33cc:	0f 9e c1             	setle  %cl
    33cf:	0f b6 c9             	movzbl %cl,%ecx
    33d2:	e9 89 fb ff ff       	jmpq   2f60 <_ZN6db_avlI9list_nodeI6recordEE15print_and_countEP8avl_nodeIS2_ERKS0_I7commandE+0x120>
    33d7:	85 c9                	test   %ecx,%ecx
    33d9:	0f 9f c1             	setg   %cl
    33dc:	0f b6 c9             	movzbl %cl,%ecx
    33df:	e9 7c fb ff ff       	jmpq   2f60 <_ZN6db_avlI9list_nodeI6recordEE15print_and_countEP8avl_nodeIS2_ERKS0_I7commandE+0x120>
    33e4:	85 c9                	test   %ecx,%ecx
    33e6:	0f 95 c1             	setne  %cl
    33e9:	0f b6 c9             	movzbl %cl,%ecx
    33ec:	e9 6f fb ff ff       	jmpq   2f60 <_ZN6db_avlI9list_nodeI6recordEE15print_and_countEP8avl_nodeIS2_ERKS0_I7commandE+0x120>
    33f1:	85 c9                	test   %ecx,%ecx
    33f3:	0f 94 c1             	sete   %cl
    33f6:	0f b6 c9             	movzbl %cl,%ecx
    33f9:	e9 62 fb ff ff       	jmpq   2f60 <_ZN6db_avlI9list_nodeI6recordEE15print_and_countEP8avl_nodeIS2_ERKS0_I7commandE+0x120>
    33fe:	8d 41 01             	lea    0x1(%rcx),%eax
    3401:	e9 92 fb ff ff       	jmpq   2f98 <_ZN6db_avlI9list_nodeI6recordEE15print_and_countEP8avl_nodeIS2_ERKS0_I7commandE+0x158>
    3406:	f7 d1                	not    %ecx
    3408:	c1 e9 1f             	shr    $0x1f,%ecx
    340b:	e9 a8 fa ff ff       	jmpq   2eb8 <_ZN6db_avlI9list_nodeI6recordEE15print_and_countEP8avl_nodeIS2_ERKS0_I7commandE+0x78>
    3410:	b9 01 00 00 00       	mov    $0x1,%ecx
    3415:	e9 46 fb ff ff       	jmpq   2f60 <_ZN6db_avlI9list_nodeI6recordEE15print_and_countEP8avl_nodeIS2_ERKS0_I7commandE+0x120>
    341a:	85 c9                	test   %ecx,%ecx
    341c:	0f 9f c1             	setg   %cl
    341f:	0f b6 c9             	movzbl %cl,%ecx
    3422:	e9 91 fa ff ff       	jmpq   2eb8 <_ZN6db_avlI9list_nodeI6recordEE15print_and_countEP8avl_nodeIS2_ERKS0_I7commandE+0x78>
    3427:	85 c9                	test   %ecx,%ecx
    3429:	0f 94 c1             	sete   %cl
    342c:	0f b6 c9             	movzbl %cl,%ecx
    342f:	e9 84 fa ff ff       	jmpq   2eb8 <_ZN6db_avlI9list_nodeI6recordEE15print_and_countEP8avl_nodeIS2_ERKS0_I7commandE+0x78>
    3434:	48 85 c0             	test   %rax,%rax
    3437:	0f 9e c0             	setle  %al
    343a:	0f b6 c0             	movzbl %al,%eax
    343d:	01 c8                	add    %ecx,%eax
    343f:	e9 ac fa ff ff       	jmpq   2ef0 <_ZN6db_avlI9list_nodeI6recordEE15print_and_countEP8avl_nodeIS2_ERKS0_I7commandE+0xb0>
    3444:	48 85 c0             	test   %rax,%rax
    3447:	0f 94 c0             	sete   %al
    344a:	0f b6 c0             	movzbl %al,%eax
    344d:	01 c8                	add    %ecx,%eax
    344f:	e9 9c fa ff ff       	jmpq   2ef0 <_ZN6db_avlI9list_nodeI6recordEE15print_and_countEP8avl_nodeIS2_ERKS0_I7commandE+0xb0>
    3454:	48 85 c0             	test   %rax,%rax
    3457:	0f 95 c0             	setne  %al
    345a:	0f b6 c0             	movzbl %al,%eax
    345d:	01 c8                	add    %ecx,%eax
    345f:	e9 8c fa ff ff       	jmpq   2ef0 <_ZN6db_avlI9list_nodeI6recordEE15print_and_countEP8avl_nodeIS2_ERKS0_I7commandE+0xb0>
    3464:	48 85 c0             	test   %rax,%rax
    3467:	0f 9f c0             	setg   %al
    346a:	0f b6 c0             	movzbl %al,%eax
    346d:	01 c8                	add    %ecx,%eax
    346f:	e9 7c fa ff ff       	jmpq   2ef0 <_ZN6db_avlI9list_nodeI6recordEE15print_and_countEP8avl_nodeIS2_ERKS0_I7commandE+0xb0>
    3474:	85 c9                	test   %ecx,%ecx
    3476:	0f 95 c1             	setne  %cl
    3479:	0f b6 c9             	movzbl %cl,%ecx
    347c:	e9 37 fa ff ff       	jmpq   2eb8 <_ZN6db_avlI9list_nodeI6recordEE15print_and_countEP8avl_nodeIS2_ERKS0_I7commandE+0x78>
    3481:	8d 41 01             	lea    0x1(%rcx),%eax
    3484:	e9 67 fa ff ff       	jmpq   2ef0 <_ZN6db_avlI9list_nodeI6recordEE15print_and_countEP8avl_nodeIS2_ERKS0_I7commandE+0xb0>
    3489:	b9 01 00 00 00       	mov    $0x1,%ecx
    348e:	e9 25 fa ff ff       	jmpq   2eb8 <_ZN6db_avlI9list_nodeI6recordEE15print_and_countEP8avl_nodeIS2_ERKS0_I7commandE+0x78>
    3493:	66 2e 0f 1f 84 00 00 	nopw   %cs:0x0(%rax,%rax,1)
    349a:	00 00 00 
    349d:	0f 1f 00             	nopl   (%rax)

00000000000034a0 <_ZN6db_avlI9list_nodeI6recordEE9search_gtEP8avl_nodeIS2_ERKS0_I7commandE>:
    34a0:	41 57                	push   %r15
    34a2:	41 56                	push   %r14
    34a4:	41 55                	push   %r13
    34a6:	41 54                	push   %r12
    34a8:	55                   	push   %rbp
    34a9:	53                   	push   %rbx
    34aa:	48 83 ec 28          	sub    $0x28,%rsp
    34ae:	48 85 f6             	test   %rsi,%rsi
    34b1:	48 89 74 24 08       	mov    %rsi,0x8(%rsp)
    34b6:	0f 84 bc 00 00 00    	je     3578 <_ZN6db_avlI9list_nodeI6recordEE9search_gtEP8avl_nodeIS2_ERKS0_I7commandE+0xd8>
    34bc:	49 89 fe             	mov    %rdi,%r14
    34bf:	49 89 d7             	mov    %rdx,%r15
    34c2:	41 8b 47 20          	mov    0x20(%r15),%eax
    34c6:	83 f8 04             	cmp    $0x4,%eax
    34c9:	74 75                	je     3540 <_ZN6db_avlI9list_nodeI6recordEE9search_gtEP8avl_nodeIS2_ERKS0_I7commandE+0xa0>
    34cb:	0f 86 bf 00 00 00    	jbe    3590 <_ZN6db_avlI9list_nodeI6recordEE9search_gtEP8avl_nodeIS2_ERKS0_I7commandE+0xf0>
    34d1:	83 f8 05             	cmp    $0x5,%eax
    34d4:	0f 84 ee 00 00 00    	je     35c8 <_ZN6db_avlI9list_nodeI6recordEE9search_gtEP8avl_nodeIS2_ERKS0_I7commandE+0x128>
    34da:	83 f8 06             	cmp    $0x6,%eax
    34dd:	0f 85 95 00 00 00    	jne    3578 <_ZN6db_avlI9list_nodeI6recordEE9search_gtEP8avl_nodeIS2_ERKS0_I7commandE+0xd8>
    34e3:	48 8b 44 24 08       	mov    0x8(%rsp),%rax
    34e8:	49 8b 37             	mov    (%r15),%rsi
    34eb:	48 8b 18             	mov    (%rax),%rbx
    34ee:	48 8b 2b             	mov    (%rbx),%rbp
    34f1:	48 89 ef             	mov    %rbp,%rdi
    34f4:	e8 87 d8 ff ff       	callq  d80 <strcmp@plt>
    34f9:	85 c0                	test   %eax,%eax
    34fb:	78 61                	js     355e <_ZN6db_avlI9list_nodeI6recordEE9search_gtEP8avl_nodeIS2_ERKS0_I7commandE+0xbe>
    34fd:	41 8b 4f 28          	mov    0x28(%r15),%ecx
    3501:	41 8b 47 24          	mov    0x24(%r15),%eax
    3505:	8d 54 01 06          	lea    0x6(%rcx,%rax,1),%edx
    3509:	85 d2                	test   %edx,%edx
    350b:	0f 84 df 02 00 00    	je     37f0 <_ZN6db_avlI9list_nodeI6recordEE9search_gtEP8avl_nodeIS2_ERKS0_I7commandE+0x350>
    3511:	85 c9                	test   %ecx,%ecx
    3513:	be 01 00 00 00       	mov    $0x1,%esi
    3518:	0f 84 82 02 00 00    	je     37a0 <_ZN6db_avlI9list_nodeI6recordEE9search_gtEP8avl_nodeIS2_ERKS0_I7commandE+0x300>
    351e:	8b 73 18             	mov    0x18(%rbx),%esi
    3521:	41 2b 77 18          	sub    0x18(%r15),%esi
    3525:	83 f9 06             	cmp    $0x6,%ecx
    3528:	0f 87 c4 14 00 00    	ja     49f2 <_ZN6db_avlI9list_nodeI6recordEE9search_gtEP8avl_nodeIS2_ERKS0_I7commandE+0x1552>
    352e:	48 8d 3d bf 47 00 00 	lea    0x47bf(%rip),%rdi        # 7cf4 <_IO_stdin_used+0x1f4>
    3535:	48 63 14 8f          	movslq (%rdi,%rcx,4),%rdx
    3539:	48 01 fa             	add    %rdi,%rdx
    353c:	ff e2                	jmpq   *%rdx
    353e:	66 90                	xchg   %ax,%ax
    3540:	48 8b 44 24 08       	mov    0x8(%rsp),%rax
    3545:	49 8b 37             	mov    (%r15),%rsi
    3548:	48 8b 18             	mov    (%rax),%rbx
    354b:	48 8b 2b             	mov    (%rbx),%rbp
    354e:	48 89 ef             	mov    %rbp,%rdi
    3551:	e8 2a d8 ff ff       	callq  d80 <strcmp@plt>
    3556:	85 c0                	test   %eax,%eax
    3558:	0f 8f ca 00 00 00    	jg     3628 <_ZN6db_avlI9list_nodeI6recordEE9search_gtEP8avl_nodeIS2_ERKS0_I7commandE+0x188>
    355e:	48 8b 44 24 08       	mov    0x8(%rsp),%rax
    3563:	48 8b 40 10          	mov    0x10(%rax),%rax
    3567:	48 89 44 24 08       	mov    %rax,0x8(%rsp)
    356c:	48 83 7c 24 08 00    	cmpq   $0x0,0x8(%rsp)
    3572:	0f 85 4a ff ff ff    	jne    34c2 <_ZN6db_avlI9list_nodeI6recordEE9search_gtEP8avl_nodeIS2_ERKS0_I7commandE+0x22>
    3578:	48 83 c4 28          	add    $0x28,%rsp
    357c:	5b                   	pop    %rbx
    357d:	5d                   	pop    %rbp
    357e:	41 5c                	pop    %r12
    3580:	41 5d                	pop    %r13
    3582:	41 5e                	pop    %r14
    3584:	41 5f                	pop    %r15
    3586:	c3                   	retq   
    3587:	66 0f 1f 84 00 00 00 	nopw   0x0(%rax,%rax,1)
    358e:	00 00 
    3590:	83 f8 03             	cmp    $0x3,%eax
    3593:	75 e3                	jne    3578 <_ZN6db_avlI9list_nodeI6recordEE9search_gtEP8avl_nodeIS2_ERKS0_I7commandE+0xd8>
    3595:	48 8b 44 24 08       	mov    0x8(%rsp),%rax
    359a:	49 8b 37             	mov    (%r15),%rsi
    359d:	48 8b 18             	mov    (%rax),%rbx
    35a0:	48 8b 2b             	mov    (%rbx),%rbp
    35a3:	48 89 ef             	mov    %rbp,%rdi
    35a6:	e8 d5 d7 ff ff       	callq  d80 <strcmp@plt>
    35ab:	85 c0                	test   %eax,%eax
    35ad:	0f 88 b5 00 00 00    	js     3668 <_ZN6db_avlI9list_nodeI6recordEE9search_gtEP8avl_nodeIS2_ERKS0_I7commandE+0x1c8>
    35b3:	48 8b 44 24 08       	mov    0x8(%rsp),%rax
    35b8:	48 8b 40 08          	mov    0x8(%rax),%rax
    35bc:	48 89 44 24 08       	mov    %rax,0x8(%rsp)
    35c1:	eb a9                	jmp    356c <_ZN6db_avlI9list_nodeI6recordEE9search_gtEP8avl_nodeIS2_ERKS0_I7commandE+0xcc>
    35c3:	0f 1f 44 00 00       	nopl   0x0(%rax,%rax,1)
    35c8:	48 8b 44 24 08       	mov    0x8(%rsp),%rax
    35cd:	49 8b 37             	mov    (%r15),%rsi
    35d0:	48 8b 18             	mov    (%rax),%rbx
    35d3:	48 8b 2b             	mov    (%rbx),%rbp
    35d6:	48 89 ef             	mov    %rbp,%rdi
    35d9:	e8 a2 d7 ff ff       	callq  d80 <strcmp@plt>
    35de:	85 c0                	test   %eax,%eax
    35e0:	7f d1                	jg     35b3 <_ZN6db_avlI9list_nodeI6recordEE9search_gtEP8avl_nodeIS2_ERKS0_I7commandE+0x113>
    35e2:	41 8b 47 28          	mov    0x28(%r15),%eax
    35e6:	41 8b 4f 24          	mov    0x24(%r15),%ecx
    35ea:	8d 54 08 05          	lea    0x5(%rax,%rcx,1),%edx
    35ee:	85 d2                	test   %edx,%edx
    35f0:	0f 84 ca 03 00 00    	je     39c0 <_ZN6db_avlI9list_nodeI6recordEE9search_gtEP8avl_nodeIS2_ERKS0_I7commandE+0x520>
    35f6:	85 c0                	test   %eax,%eax
    35f8:	ba 01 00 00 00       	mov    $0x1,%edx
    35fd:	0f 84 a5 10 00 00    	je     46a8 <_ZN6db_avlI9list_nodeI6recordEE9search_gtEP8avl_nodeIS2_ERKS0_I7commandE+0x1208>
    3603:	8b 53 18             	mov    0x18(%rbx),%edx
    3606:	41 2b 57 18          	sub    0x18(%r15),%edx
    360a:	83 f8 06             	cmp    $0x6,%eax
    360d:	0f 87 03 14 00 00    	ja     4a16 <_ZN6db_avlI9list_nodeI6recordEE9search_gtEP8avl_nodeIS2_ERKS0_I7commandE+0x1576>
    3613:	48 8d 35 f6 46 00 00 	lea    0x46f6(%rip),%rsi        # 7d10 <_IO_stdin_used+0x210>
    361a:	48 63 04 86          	movslq (%rsi,%rax,4),%rax
    361e:	48 01 f0             	add    %rsi,%rax
    3621:	ff e0                	jmpq   *%rax
    3623:	0f 1f 44 00 00       	nopl   0x0(%rax,%rax,1)
    3628:	41 8b 4f 28          	mov    0x28(%r15),%ecx
    362c:	41 8b 47 24          	mov    0x24(%r15),%eax
    3630:	8d 54 01 04          	lea    0x4(%rcx,%rax,1),%edx
    3634:	85 d2                	test   %edx,%edx
    3636:	0f 84 cc 00 00 00    	je     3708 <_ZN6db_avlI9list_nodeI6recordEE9search_gtEP8avl_nodeIS2_ERKS0_I7commandE+0x268>
    363c:	85 c9                	test   %ecx,%ecx
    363e:	be 01 00 00 00       	mov    $0x1,%esi
    3643:	74 73                	je     36b8 <_ZN6db_avlI9list_nodeI6recordEE9search_gtEP8avl_nodeIS2_ERKS0_I7commandE+0x218>
    3645:	8b 73 18             	mov    0x18(%rbx),%esi
    3648:	41 2b 77 18          	sub    0x18(%r15),%esi
    364c:	83 f9 06             	cmp    $0x6,%ecx
    364f:	0f 87 93 13 00 00    	ja     49e8 <_ZN6db_avlI9list_nodeI6recordEE9search_gtEP8avl_nodeIS2_ERKS0_I7commandE+0x1548>
    3655:	48 8d 3d d0 46 00 00 	lea    0x46d0(%rip),%rdi        # 7d2c <_IO_stdin_used+0x22c>
    365c:	48 63 14 8f          	movslq (%rdi,%rcx,4),%rdx
    3660:	48 01 fa             	add    %rdi,%rdx
    3663:	ff e2                	jmpq   *%rdx
    3665:	0f 1f 00             	nopl   (%rax)
    3668:	41 8b 47 28          	mov    0x28(%r15),%eax
    366c:	41 8b 4f 24          	mov    0x24(%r15),%ecx
    3670:	8d 54 08 03          	lea    0x3(%rax,%rcx,1),%edx
    3674:	85 d2                	test   %edx,%edx
    3676:	0f 84 e4 03 00 00    	je     3a60 <_ZN6db_avlI9list_nodeI6recordEE9search_gtEP8avl_nodeIS2_ERKS0_I7commandE+0x5c0>
    367c:	85 c0                	test   %eax,%eax
    367e:	ba 01 00 00 00       	mov    $0x1,%edx
    3683:	0f 84 e7 0f 00 00    	je     4670 <_ZN6db_avlI9list_nodeI6recordEE9search_gtEP8avl_nodeIS2_ERKS0_I7commandE+0x11d0>
    3689:	8b 53 18             	mov    0x18(%rbx),%edx
    368c:	41 2b 57 18          	sub    0x18(%r15),%edx
    3690:	83 f8 06             	cmp    $0x6,%eax
    3693:	0f 87 73 13 00 00    	ja     4a0c <_ZN6db_avlI9list_nodeI6recordEE9search_gtEP8avl_nodeIS2_ERKS0_I7commandE+0x156c>
    3699:	48 8d 35 a8 46 00 00 	lea    0x46a8(%rip),%rsi        # 7d48 <_IO_stdin_used+0x248>
    36a0:	48 63 04 86          	movslq (%rsi,%rax,4),%rax
    36a4:	48 01 f0             	add    %rsi,%rax
    36a7:	ff e0                	jmpq   *%rax
    36a9:	85 f6                	test   %esi,%esi
    36ab:	40 0f 9e c6          	setle  %sil
    36af:	40 0f b6 f6          	movzbl %sil,%esi
    36b3:	0f 1f 44 00 00       	nopl   0x0(%rax,%rax,1)
    36b8:	85 c0                	test   %eax,%eax
    36ba:	8d 56 01             	lea    0x1(%rsi),%edx
    36bd:	74 31                	je     36f0 <_ZN6db_avlI9list_nodeI6recordEE9search_gtEP8avl_nodeIS2_ERKS0_I7commandE+0x250>
    36bf:	48 8b 53 10          	mov    0x10(%rbx),%rdx
    36c3:	49 2b 57 10          	sub    0x10(%r15),%rdx
    36c7:	83 f8 06             	cmp    $0x6,%eax
    36ca:	0f 87 10 13 00 00    	ja     49e0 <_ZN6db_avlI9list_nodeI6recordEE9search_gtEP8avl_nodeIS2_ERKS0_I7commandE+0x1540>
    36d0:	48 8d 0d 8d 46 00 00 	lea    0x468d(%rip),%rcx        # 7d64 <_IO_stdin_used+0x264>
    36d7:	48 63 04 81          	movslq (%rcx,%rax,4),%rax
    36db:	48 01 c8             	add    %rcx,%rax
    36de:	ff e0                	jmpq   *%rax
    36e0:	48 f7 d2             	not    %rdx
    36e3:	48 c1 ea 3f          	shr    $0x3f,%rdx
    36e7:	01 f2                	add    %esi,%edx
    36e9:	0f 1f 80 00 00 00 00 	nopl   0x0(%rax)
    36f0:	83 fa 02             	cmp    $0x2,%edx
    36f3:	74 13                	je     3708 <_ZN6db_avlI9list_nodeI6recordEE9search_gtEP8avl_nodeIS2_ERKS0_I7commandE+0x268>
    36f5:	83 fa 01             	cmp    $0x1,%edx
    36f8:	75 2c                	jne    3726 <_ZN6db_avlI9list_nodeI6recordEE9search_gtEP8avl_nodeIS2_ERKS0_I7commandE+0x286>
    36fa:	41 83 7f 2c 02       	cmpl   $0x2,0x2c(%r15)
    36ff:	75 25                	jne    3726 <_ZN6db_avlI9list_nodeI6recordEE9search_gtEP8avl_nodeIS2_ERKS0_I7commandE+0x286>
    3701:	0f 1f 80 00 00 00 00 	nopl   0x0(%rax)
    3708:	48 8b 4b 10          	mov    0x10(%rbx),%rcx
    370c:	44 8b 43 18          	mov    0x18(%rbx),%r8d
    3710:	48 8d 35 3e 44 00 00 	lea    0x443e(%rip),%rsi        # 7b55 <_IO_stdin_used+0x55>
    3717:	48 89 ea             	mov    %rbp,%rdx
    371a:	bf 01 00 00 00       	mov    $0x1,%edi
    371f:	31 c0                	xor    %eax,%eax
    3721:	e8 2a d5 ff ff       	callq  c50 <__printf_chk@plt>
    3726:	48 8b 44 24 08       	mov    0x8(%rsp),%rax
    372b:	4c 8b 68 10          	mov    0x10(%rax),%r13
    372f:	4d 85 ed             	test   %r13,%r13
    3732:	0f 84 7b fe ff ff    	je     35b3 <_ZN6db_avlI9list_nodeI6recordEE9search_gtEP8avl_nodeIS2_ERKS0_I7commandE+0x113>
    3738:	48 8d 1d 16 44 00 00 	lea    0x4416(%rip),%rbx        # 7b55 <_IO_stdin_used+0x55>
    373f:	4c 8d 25 aa 46 00 00 	lea    0x46aa(%rip),%r12        # 7df0 <_IO_stdin_used+0x2f0>
    3746:	48 8d 2d 33 46 00 00 	lea    0x4633(%rip),%rbp        # 7d80 <_IO_stdin_used+0x280>
    374d:	41 8b 57 28          	mov    0x28(%r15),%edx
    3751:	41 8b 47 24          	mov    0x24(%r15),%eax
    3755:	41 8b 4f 20          	mov    0x20(%r15),%ecx
    3759:	49 8b 75 00          	mov    0x0(%r13),%rsi
    375d:	01 d1                	add    %edx,%ecx
    375f:	01 c1                	add    %eax,%ecx
    3761:	0f 84 19 02 00 00    	je     3980 <_ZN6db_avlI9list_nodeI6recordEE9search_gtEP8avl_nodeIS2_ERKS0_I7commandE+0x4e0>
    3767:	85 d2                	test   %edx,%edx
    3769:	b9 01 00 00 00       	mov    $0x1,%ecx
    376e:	0f 84 3c 01 00 00    	je     38b0 <_ZN6db_avlI9list_nodeI6recordEE9search_gtEP8avl_nodeIS2_ERKS0_I7commandE+0x410>
    3774:	8b 4e 18             	mov    0x18(%rsi),%ecx
    3777:	41 2b 4f 18          	sub    0x18(%r15),%ecx
    377b:	83 fa 06             	cmp    $0x6,%edx
    377e:	0f 87 4c 10 00 00    	ja     47d0 <_ZN6db_avlI9list_nodeI6recordEE9search_gtEP8avl_nodeIS2_ERKS0_I7commandE+0x1330>
    3784:	48 63 54 95 00       	movslq 0x0(%rbp,%rdx,4),%rdx
    3789:	48 01 ea             	add    %rbp,%rdx
    378c:	ff e2                	jmpq   *%rdx
    378e:	85 f6                	test   %esi,%esi
    3790:	40 0f 9e c6          	setle  %sil
    3794:	40 0f b6 f6          	movzbl %sil,%esi
    3798:	0f 1f 84 00 00 00 00 	nopl   0x0(%rax,%rax,1)
    379f:	00 
    37a0:	85 c0                	test   %eax,%eax
    37a2:	8d 56 01             	lea    0x1(%rsi),%edx
    37a5:	74 31                	je     37d8 <_ZN6db_avlI9list_nodeI6recordEE9search_gtEP8avl_nodeIS2_ERKS0_I7commandE+0x338>
    37a7:	48 8b 53 10          	mov    0x10(%rbx),%rdx
    37ab:	49 2b 57 10          	sub    0x10(%r15),%rdx
    37af:	83 f8 06             	cmp    $0x6,%eax
    37b2:	0f 87 20 12 00 00    	ja     49d8 <_ZN6db_avlI9list_nodeI6recordEE9search_gtEP8avl_nodeIS2_ERKS0_I7commandE+0x1538>
    37b8:	48 8d 0d dd 45 00 00 	lea    0x45dd(%rip),%rcx        # 7d9c <_IO_stdin_used+0x29c>
    37bf:	48 63 04 81          	movslq (%rcx,%rax,4),%rax
    37c3:	48 01 c8             	add    %rcx,%rax
    37c6:	ff e0                	jmpq   *%rax
    37c8:	48 f7 d2             	not    %rdx
    37cb:	48 c1 ea 3f          	shr    $0x3f,%rdx
    37cf:	01 f2                	add    %esi,%edx
    37d1:	0f 1f 80 00 00 00 00 	nopl   0x0(%rax)
    37d8:	83 fa 02             	cmp    $0x2,%edx
    37db:	74 13                	je     37f0 <_ZN6db_avlI9list_nodeI6recordEE9search_gtEP8avl_nodeIS2_ERKS0_I7commandE+0x350>
    37dd:	83 fa 01             	cmp    $0x1,%edx
    37e0:	75 2c                	jne    380e <_ZN6db_avlI9list_nodeI6recordEE9search_gtEP8avl_nodeIS2_ERKS0_I7commandE+0x36e>
    37e2:	41 83 7f 2c 02       	cmpl   $0x2,0x2c(%r15)
    37e7:	75 25                	jne    380e <_ZN6db_avlI9list_nodeI6recordEE9search_gtEP8avl_nodeIS2_ERKS0_I7commandE+0x36e>
    37e9:	0f 1f 80 00 00 00 00 	nopl   0x0(%rax)
    37f0:	48 8b 4b 10          	mov    0x10(%rbx),%rcx
    37f4:	44 8b 43 18          	mov    0x18(%rbx),%r8d
    37f8:	48 8d 35 56 43 00 00 	lea    0x4356(%rip),%rsi        # 7b55 <_IO_stdin_used+0x55>
    37ff:	48 89 ea             	mov    %rbp,%rdx
    3802:	bf 01 00 00 00       	mov    $0x1,%edi
    3807:	31 c0                	xor    %eax,%eax
    3809:	e8 42 d4 ff ff       	callq  c50 <__printf_chk@plt>
    380e:	48 8b 44 24 08       	mov    0x8(%rsp),%rax
    3813:	4c 8b 68 10          	mov    0x10(%rax),%r13
    3817:	4d 85 ed             	test   %r13,%r13
    381a:	0f 84 93 fd ff ff    	je     35b3 <_ZN6db_avlI9list_nodeI6recordEE9search_gtEP8avl_nodeIS2_ERKS0_I7commandE+0x113>
    3820:	48 8d 1d 2e 43 00 00 	lea    0x432e(%rip),%rbx        # 7b55 <_IO_stdin_used+0x55>
    3827:	4c 8d 25 a6 45 00 00 	lea    0x45a6(%rip),%r12        # 7dd4 <_IO_stdin_used+0x2d4>
    382e:	48 8d 2d 83 45 00 00 	lea    0x4583(%rip),%rbp        # 7db8 <_IO_stdin_used+0x2b8>
    3835:	41 8b 57 28          	mov    0x28(%r15),%edx
    3839:	41 8b 47 24          	mov    0x24(%r15),%eax
    383d:	41 8b 4f 20          	mov    0x20(%r15),%ecx
    3841:	49 8b 75 00          	mov    0x0(%r13),%rsi
    3845:	01 d1                	add    %edx,%ecx
    3847:	01 c1                	add    %eax,%ecx
    3849:	0f 84 01 01 00 00    	je     3950 <_ZN6db_avlI9list_nodeI6recordEE9search_gtEP8avl_nodeIS2_ERKS0_I7commandE+0x4b0>
    384f:	85 d2                	test   %edx,%edx
    3851:	b9 01 00 00 00       	mov    $0x1,%ecx
    3856:	74 28                	je     3880 <_ZN6db_avlI9list_nodeI6recordEE9search_gtEP8avl_nodeIS2_ERKS0_I7commandE+0x3e0>
    3858:	8b 4e 18             	mov    0x18(%rsi),%ecx
    385b:	41 2b 4f 18          	sub    0x18(%r15),%ecx
    385f:	83 fa 06             	cmp    $0x6,%edx
    3862:	0f 87 72 0f 00 00    	ja     47da <_ZN6db_avlI9list_nodeI6recordEE9search_gtEP8avl_nodeIS2_ERKS0_I7commandE+0x133a>
    3868:	48 63 54 95 00       	movslq 0x0(%rbp,%rdx,4),%rdx
    386d:	48 01 ea             	add    %rbp,%rdx
    3870:	ff e2                	jmpq   *%rdx
    3872:	85 c9                	test   %ecx,%ecx
    3874:	0f 9e c1             	setle  %cl
    3877:	0f b6 c9             	movzbl %cl,%ecx
    387a:	66 0f 1f 44 00 00    	nopw   0x0(%rax,%rax,1)
    3880:	85 c0                	test   %eax,%eax
    3882:	8d 51 01             	lea    0x1(%rcx),%edx
    3885:	74 59                	je     38e0 <_ZN6db_avlI9list_nodeI6recordEE9search_gtEP8avl_nodeIS2_ERKS0_I7commandE+0x440>
    3887:	48 8b 56 10          	mov    0x10(%rsi),%rdx
    388b:	49 2b 57 10          	sub    0x10(%r15),%rdx
    388f:	83 f8 06             	cmp    $0x6,%eax
    3892:	0f 87 a6 0c 00 00    	ja     453e <_ZN6db_avlI9list_nodeI6recordEE9search_gtEP8avl_nodeIS2_ERKS0_I7commandE+0x109e>
    3898:	49 63 04 84          	movslq (%r12,%rax,4),%rax
    389c:	4c 01 e0             	add    %r12,%rax
    389f:	ff e0                	jmpq   *%rax
    38a1:	85 c9                	test   %ecx,%ecx
    38a3:	0f 9e c1             	setle  %cl
    38a6:	0f b6 c9             	movzbl %cl,%ecx
    38a9:	0f 1f 80 00 00 00 00 	nopl   0x0(%rax)
    38b0:	85 c0                	test   %eax,%eax
    38b2:	8d 51 01             	lea    0x1(%rcx),%edx
    38b5:	74 61                	je     3918 <_ZN6db_avlI9list_nodeI6recordEE9search_gtEP8avl_nodeIS2_ERKS0_I7commandE+0x478>
    38b7:	48 8b 56 10          	mov    0x10(%rsi),%rdx
    38bb:	49 2b 57 10          	sub    0x10(%r15),%rdx
    38bf:	83 f8 06             	cmp    $0x6,%eax
    38c2:	0f 87 6e 0c 00 00    	ja     4536 <_ZN6db_avlI9list_nodeI6recordEE9search_gtEP8avl_nodeIS2_ERKS0_I7commandE+0x1096>
    38c8:	49 63 04 84          	movslq (%r12,%rax,4),%rax
    38cc:	4c 01 e0             	add    %r12,%rax
    38cf:	ff e0                	jmpq   *%rax
    38d1:	48 f7 d2             	not    %rdx
    38d4:	48 c1 ea 3f          	shr    $0x3f,%rdx
    38d8:	01 ca                	add    %ecx,%edx
    38da:	66 0f 1f 44 00 00    	nopw   0x0(%rax,%rax,1)
    38e0:	83 fa 02             	cmp    $0x2,%edx
    38e3:	74 6b                	je     3950 <_ZN6db_avlI9list_nodeI6recordEE9search_gtEP8avl_nodeIS2_ERKS0_I7commandE+0x4b0>
    38e5:	83 fa 01             	cmp    $0x1,%edx
    38e8:	74 5e                	je     3948 <_ZN6db_avlI9list_nodeI6recordEE9search_gtEP8avl_nodeIS2_ERKS0_I7commandE+0x4a8>
    38ea:	49 8b 75 08          	mov    0x8(%r13),%rsi
    38ee:	4c 89 fa             	mov    %r15,%rdx
    38f1:	4c 89 f7             	mov    %r14,%rdi
    38f4:	e8 47 f5 ff ff       	callq  2e40 <_ZN6db_avlI9list_nodeI6recordEE15print_and_countEP8avl_nodeIS2_ERKS0_I7commandE>
    38f9:	4d 8b 6d 10          	mov    0x10(%r13),%r13
    38fd:	4d 85 ed             	test   %r13,%r13
    3900:	0f 85 2f ff ff ff    	jne    3835 <_ZN6db_avlI9list_nodeI6recordEE9search_gtEP8avl_nodeIS2_ERKS0_I7commandE+0x395>
    3906:	e9 a8 fc ff ff       	jmpq   35b3 <_ZN6db_avlI9list_nodeI6recordEE9search_gtEP8avl_nodeIS2_ERKS0_I7commandE+0x113>
    390b:	48 f7 d2             	not    %rdx
    390e:	48 c1 ea 3f          	shr    $0x3f,%rdx
    3912:	01 ca                	add    %ecx,%edx
    3914:	0f 1f 40 00          	nopl   0x0(%rax)
    3918:	83 fa 02             	cmp    $0x2,%edx
    391b:	74 63                	je     3980 <_ZN6db_avlI9list_nodeI6recordEE9search_gtEP8avl_nodeIS2_ERKS0_I7commandE+0x4e0>
    391d:	83 fa 01             	cmp    $0x1,%edx
    3920:	74 4e                	je     3970 <_ZN6db_avlI9list_nodeI6recordEE9search_gtEP8avl_nodeIS2_ERKS0_I7commandE+0x4d0>
    3922:	49 8b 75 08          	mov    0x8(%r13),%rsi
    3926:	4c 89 fa             	mov    %r15,%rdx
    3929:	4c 89 f7             	mov    %r14,%rdi
    392c:	e8 0f f5 ff ff       	callq  2e40 <_ZN6db_avlI9list_nodeI6recordEE15print_and_countEP8avl_nodeIS2_ERKS0_I7commandE>
    3931:	4d 8b 6d 10          	mov    0x10(%r13),%r13
    3935:	4d 85 ed             	test   %r13,%r13
    3938:	0f 85 0f fe ff ff    	jne    374d <_ZN6db_avlI9list_nodeI6recordEE9search_gtEP8avl_nodeIS2_ERKS0_I7commandE+0x2ad>
    393e:	e9 70 fc ff ff       	jmpq   35b3 <_ZN6db_avlI9list_nodeI6recordEE9search_gtEP8avl_nodeIS2_ERKS0_I7commandE+0x113>
    3943:	0f 1f 44 00 00       	nopl   0x0(%rax,%rax,1)
    3948:	41 83 7f 2c 02       	cmpl   $0x2,0x2c(%r15)
    394d:	75 9b                	jne    38ea <_ZN6db_avlI9list_nodeI6recordEE9search_gtEP8avl_nodeIS2_ERKS0_I7commandE+0x44a>
    394f:	90                   	nop
    3950:	48 8b 4e 10          	mov    0x10(%rsi),%rcx
    3954:	44 8b 46 18          	mov    0x18(%rsi),%r8d
    3958:	bf 01 00 00 00       	mov    $0x1,%edi
    395d:	48 8b 16             	mov    (%rsi),%rdx
    3960:	31 c0                	xor    %eax,%eax
    3962:	48 89 de             	mov    %rbx,%rsi
    3965:	e8 e6 d2 ff ff       	callq  c50 <__printf_chk@plt>
    396a:	e9 7b ff ff ff       	jmpq   38ea <_ZN6db_avlI9list_nodeI6recordEE9search_gtEP8avl_nodeIS2_ERKS0_I7commandE+0x44a>
    396f:	90                   	nop
    3970:	41 83 7f 2c 02       	cmpl   $0x2,0x2c(%r15)
    3975:	75 ab                	jne    3922 <_ZN6db_avlI9list_nodeI6recordEE9search_gtEP8avl_nodeIS2_ERKS0_I7commandE+0x482>
    3977:	66 0f 1f 84 00 00 00 	nopw   0x0(%rax,%rax,1)
    397e:	00 00 
    3980:	48 8b 4e 10          	mov    0x10(%rsi),%rcx
    3984:	44 8b 46 18          	mov    0x18(%rsi),%r8d
    3988:	bf 01 00 00 00       	mov    $0x1,%edi
    398d:	48 8b 16             	mov    (%rsi),%rdx
    3990:	31 c0                	xor    %eax,%eax
    3992:	48 89 de             	mov    %rbx,%rsi
    3995:	e8 b6 d2 ff ff       	callq  c50 <__printf_chk@plt>
    399a:	eb 86                	jmp    3922 <_ZN6db_avlI9list_nodeI6recordEE9search_gtEP8avl_nodeIS2_ERKS0_I7commandE+0x482>
    399c:	48 f7 d0             	not    %rax
    399f:	48 c1 e8 3f          	shr    $0x3f,%rax
    39a3:	01 d0                	add    %edx,%eax
    39a5:	0f 1f 00             	nopl   (%rax)
    39a8:	83 f8 02             	cmp    $0x2,%eax
    39ab:	74 13                	je     39c0 <_ZN6db_avlI9list_nodeI6recordEE9search_gtEP8avl_nodeIS2_ERKS0_I7commandE+0x520>
    39ad:	83 f8 01             	cmp    $0x1,%eax
    39b0:	75 2c                	jne    39de <_ZN6db_avlI9list_nodeI6recordEE9search_gtEP8avl_nodeIS2_ERKS0_I7commandE+0x53e>
    39b2:	41 83 7f 2c 02       	cmpl   $0x2,0x2c(%r15)
    39b7:	75 25                	jne    39de <_ZN6db_avlI9list_nodeI6recordEE9search_gtEP8avl_nodeIS2_ERKS0_I7commandE+0x53e>
    39b9:	0f 1f 80 00 00 00 00 	nopl   0x0(%rax)
    39c0:	48 8b 4b 10          	mov    0x10(%rbx),%rcx
    39c4:	44 8b 43 18          	mov    0x18(%rbx),%r8d
    39c8:	48 8d 35 86 41 00 00 	lea    0x4186(%rip),%rsi        # 7b55 <_IO_stdin_used+0x55>
    39cf:	48 89 ea             	mov    %rbp,%rdx
    39d2:	bf 01 00 00 00       	mov    $0x1,%edi
    39d7:	31 c0                	xor    %eax,%eax
    39d9:	e8 72 d2 ff ff       	callq  c50 <__printf_chk@plt>
    39de:	48 8b 44 24 08       	mov    0x8(%rsp),%rax
    39e3:	48 8b 40 08          	mov    0x8(%rax),%rax
    39e7:	48 85 c0             	test   %rax,%rax
    39ea:	48 89 44 24 10       	mov    %rax,0x10(%rsp)
    39ef:	0f 84 69 fb ff ff    	je     355e <_ZN6db_avlI9list_nodeI6recordEE9search_gtEP8avl_nodeIS2_ERKS0_I7commandE+0xbe>
    39f5:	48 8b 10             	mov    (%rax),%rdx
    39f8:	41 8b 47 28          	mov    0x28(%r15),%eax
    39fc:	41 8b 77 24          	mov    0x24(%r15),%esi
    3a00:	41 8b 4f 20          	mov    0x20(%r15),%ecx
    3a04:	01 c1                	add    %eax,%ecx
    3a06:	01 f1                	add    %esi,%ecx
    3a08:	0f 84 32 0c 00 00    	je     4640 <_ZN6db_avlI9list_nodeI6recordEE9search_gtEP8avl_nodeIS2_ERKS0_I7commandE+0x11a0>
    3a0e:	85 c0                	test   %eax,%eax
    3a10:	b9 01 00 00 00       	mov    $0x1,%ecx
    3a15:	0f 84 65 06 00 00    	je     4080 <_ZN6db_avlI9list_nodeI6recordEE9search_gtEP8avl_nodeIS2_ERKS0_I7commandE+0xbe0>
    3a1b:	8b 4a 18             	mov    0x18(%rdx),%ecx
    3a1e:	41 2b 4f 18          	sub    0x18(%r15),%ecx
    3a22:	83 f8 06             	cmp    $0x6,%eax
    3a25:	0f 87 c1 0e 00 00    	ja     48ec <_ZN6db_avlI9list_nodeI6recordEE9search_gtEP8avl_nodeIS2_ERKS0_I7commandE+0x144c>
    3a2b:	48 8d 3d da 43 00 00 	lea    0x43da(%rip),%rdi        # 7e0c <_IO_stdin_used+0x30c>
    3a32:	48 63 04 87          	movslq (%rdi,%rax,4),%rax
    3a36:	48 01 f8             	add    %rdi,%rax
    3a39:	ff e0                	jmpq   *%rax
    3a3b:	48 f7 d0             	not    %rax
    3a3e:	48 c1 e8 3f          	shr    $0x3f,%rax
    3a42:	01 d0                	add    %edx,%eax
    3a44:	0f 1f 40 00          	nopl   0x0(%rax)
    3a48:	83 f8 02             	cmp    $0x2,%eax
    3a4b:	74 13                	je     3a60 <_ZN6db_avlI9list_nodeI6recordEE9search_gtEP8avl_nodeIS2_ERKS0_I7commandE+0x5c0>
    3a4d:	83 f8 01             	cmp    $0x1,%eax
    3a50:	75 2c                	jne    3a7e <_ZN6db_avlI9list_nodeI6recordEE9search_gtEP8avl_nodeIS2_ERKS0_I7commandE+0x5de>
    3a52:	41 83 7f 2c 02       	cmpl   $0x2,0x2c(%r15)
    3a57:	75 25                	jne    3a7e <_ZN6db_avlI9list_nodeI6recordEE9search_gtEP8avl_nodeIS2_ERKS0_I7commandE+0x5de>
    3a59:	0f 1f 80 00 00 00 00 	nopl   0x0(%rax)
    3a60:	48 8b 4b 10          	mov    0x10(%rbx),%rcx
    3a64:	44 8b 43 18          	mov    0x18(%rbx),%r8d
    3a68:	48 8d 35 e6 40 00 00 	lea    0x40e6(%rip),%rsi        # 7b55 <_IO_stdin_used+0x55>
    3a6f:	48 89 ea             	mov    %rbp,%rdx
    3a72:	bf 01 00 00 00       	mov    $0x1,%edi
    3a77:	31 c0                	xor    %eax,%eax
    3a79:	e8 d2 d1 ff ff       	callq  c50 <__printf_chk@plt>
    3a7e:	48 8b 44 24 08       	mov    0x8(%rsp),%rax
    3a83:	48 8b 40 08          	mov    0x8(%rax),%rax
    3a87:	48 85 c0             	test   %rax,%rax
    3a8a:	48 89 44 24 10       	mov    %rax,0x10(%rsp)
    3a8f:	0f 84 c9 fa ff ff    	je     355e <_ZN6db_avlI9list_nodeI6recordEE9search_gtEP8avl_nodeIS2_ERKS0_I7commandE+0xbe>
    3a95:	48 8b 10             	mov    (%rax),%rdx
    3a98:	41 8b 47 28          	mov    0x28(%r15),%eax
    3a9c:	41 8b 77 24          	mov    0x24(%r15),%esi
    3aa0:	41 8b 4f 20          	mov    0x20(%r15),%ecx
    3aa4:	01 c1                	add    %eax,%ecx
    3aa6:	01 f1                	add    %esi,%ecx
    3aa8:	0f 84 62 0b 00 00    	je     4610 <_ZN6db_avlI9list_nodeI6recordEE9search_gtEP8avl_nodeIS2_ERKS0_I7commandE+0x1170>
    3aae:	85 c0                	test   %eax,%eax
    3ab0:	b9 01 00 00 00       	mov    $0x1,%ecx
    3ab5:	0f 84 0d 01 00 00    	je     3bc8 <_ZN6db_avlI9list_nodeI6recordEE9search_gtEP8avl_nodeIS2_ERKS0_I7commandE+0x728>
    3abb:	8b 4a 18             	mov    0x18(%rdx),%ecx
    3abe:	41 2b 4f 18          	sub    0x18(%r15),%ecx
    3ac2:	83 f8 06             	cmp    $0x6,%eax
    3ac5:	0f 87 17 0e 00 00    	ja     48e2 <_ZN6db_avlI9list_nodeI6recordEE9search_gtEP8avl_nodeIS2_ERKS0_I7commandE+0x1442>
    3acb:	48 8d 3d 56 43 00 00 	lea    0x4356(%rip),%rdi        # 7e28 <_IO_stdin_used+0x328>
    3ad2:	48 63 04 87          	movslq (%rdi,%rax,4),%rax
    3ad6:	48 01 f8             	add    %rdi,%rax
    3ad9:	ff e0                	jmpq   *%rax
    3adb:	f7 d1                	not    %ecx
    3add:	c1 e9 1f             	shr    $0x1f,%ecx
    3ae0:	e9 cb fd ff ff       	jmpq   38b0 <_ZN6db_avlI9list_nodeI6recordEE9search_gtEP8avl_nodeIS2_ERKS0_I7commandE+0x410>
    3ae5:	f7 d1                	not    %ecx
    3ae7:	c1 e9 1f             	shr    $0x1f,%ecx
    3aea:	e9 91 fd ff ff       	jmpq   3880 <_ZN6db_avlI9list_nodeI6recordEE9search_gtEP8avl_nodeIS2_ERKS0_I7commandE+0x3e0>
    3aef:	48 85 d2             	test   %rdx,%rdx
    3af2:	0f 9e c2             	setle  %dl
    3af5:	0f b6 d2             	movzbl %dl,%edx
    3af8:	01 ca                	add    %ecx,%edx
    3afa:	e9 19 fe ff ff       	jmpq   3918 <_ZN6db_avlI9list_nodeI6recordEE9search_gtEP8avl_nodeIS2_ERKS0_I7commandE+0x478>
    3aff:	48 85 d2             	test   %rdx,%rdx
    3b02:	0f 9f c2             	setg   %dl
    3b05:	0f b6 d2             	movzbl %dl,%edx
    3b08:	01 ca                	add    %ecx,%edx
    3b0a:	e9 09 fe ff ff       	jmpq   3918 <_ZN6db_avlI9list_nodeI6recordEE9search_gtEP8avl_nodeIS2_ERKS0_I7commandE+0x478>
    3b0f:	85 c9                	test   %ecx,%ecx
    3b11:	0f 95 c1             	setne  %cl
    3b14:	0f b6 c9             	movzbl %cl,%ecx
    3b17:	e9 64 fd ff ff       	jmpq   3880 <_ZN6db_avlI9list_nodeI6recordEE9search_gtEP8avl_nodeIS2_ERKS0_I7commandE+0x3e0>
    3b1c:	85 c9                	test   %ecx,%ecx
    3b1e:	0f 94 c1             	sete   %cl
    3b21:	0f b6 c9             	movzbl %cl,%ecx
    3b24:	e9 57 fd ff ff       	jmpq   3880 <_ZN6db_avlI9list_nodeI6recordEE9search_gtEP8avl_nodeIS2_ERKS0_I7commandE+0x3e0>
    3b29:	85 c9                	test   %ecx,%ecx
    3b2b:	0f 9f c1             	setg   %cl
    3b2e:	0f b6 c9             	movzbl %cl,%ecx
    3b31:	e9 4a fd ff ff       	jmpq   3880 <_ZN6db_avlI9list_nodeI6recordEE9search_gtEP8avl_nodeIS2_ERKS0_I7commandE+0x3e0>
    3b36:	48 85 d2             	test   %rdx,%rdx
    3b39:	0f 94 c2             	sete   %dl
    3b3c:	0f b6 d2             	movzbl %dl,%edx
    3b3f:	01 ca                	add    %ecx,%edx
    3b41:	e9 9a fd ff ff       	jmpq   38e0 <_ZN6db_avlI9list_nodeI6recordEE9search_gtEP8avl_nodeIS2_ERKS0_I7commandE+0x440>
    3b46:	85 c9                	test   %ecx,%ecx
    3b48:	0f 9f c1             	setg   %cl
    3b4b:	0f b6 c9             	movzbl %cl,%ecx
    3b4e:	e9 5d fd ff ff       	jmpq   38b0 <_ZN6db_avlI9list_nodeI6recordEE9search_gtEP8avl_nodeIS2_ERKS0_I7commandE+0x410>
    3b53:	85 c9                	test   %ecx,%ecx
    3b55:	0f 95 c1             	setne  %cl
    3b58:	0f b6 c9             	movzbl %cl,%ecx
    3b5b:	e9 50 fd ff ff       	jmpq   38b0 <_ZN6db_avlI9list_nodeI6recordEE9search_gtEP8avl_nodeIS2_ERKS0_I7commandE+0x410>
    3b60:	85 c9                	test   %ecx,%ecx
    3b62:	0f 94 c1             	sete   %cl
    3b65:	0f b6 c9             	movzbl %cl,%ecx
    3b68:	e9 43 fd ff ff       	jmpq   38b0 <_ZN6db_avlI9list_nodeI6recordEE9search_gtEP8avl_nodeIS2_ERKS0_I7commandE+0x410>
    3b6d:	48 85 d2             	test   %rdx,%rdx
    3b70:	0f 95 c2             	setne  %dl
    3b73:	0f b6 d2             	movzbl %dl,%edx
    3b76:	01 ca                	add    %ecx,%edx
    3b78:	e9 63 fd ff ff       	jmpq   38e0 <_ZN6db_avlI9list_nodeI6recordEE9search_gtEP8avl_nodeIS2_ERKS0_I7commandE+0x440>
    3b7d:	48 85 d2             	test   %rdx,%rdx
    3b80:	0f 9e c2             	setle  %dl
    3b83:	0f b6 d2             	movzbl %dl,%edx
    3b86:	01 ca                	add    %ecx,%edx
    3b88:	e9 53 fd ff ff       	jmpq   38e0 <_ZN6db_avlI9list_nodeI6recordEE9search_gtEP8avl_nodeIS2_ERKS0_I7commandE+0x440>
    3b8d:	48 85 d2             	test   %rdx,%rdx
    3b90:	0f 9f c2             	setg   %dl
    3b93:	0f b6 d2             	movzbl %dl,%edx
    3b96:	01 ca                	add    %ecx,%edx
    3b98:	e9 43 fd ff ff       	jmpq   38e0 <_ZN6db_avlI9list_nodeI6recordEE9search_gtEP8avl_nodeIS2_ERKS0_I7commandE+0x440>
    3b9d:	48 85 d2             	test   %rdx,%rdx
    3ba0:	0f 95 c2             	setne  %dl
    3ba3:	0f b6 d2             	movzbl %dl,%edx
    3ba6:	01 ca                	add    %ecx,%edx
    3ba8:	e9 6b fd ff ff       	jmpq   3918 <_ZN6db_avlI9list_nodeI6recordEE9search_gtEP8avl_nodeIS2_ERKS0_I7commandE+0x478>
    3bad:	48 85 d2             	test   %rdx,%rdx
    3bb0:	0f 94 c2             	sete   %dl
    3bb3:	0f b6 d2             	movzbl %dl,%edx
    3bb6:	01 ca                	add    %ecx,%edx
    3bb8:	e9 5b fd ff ff       	jmpq   3918 <_ZN6db_avlI9list_nodeI6recordEE9search_gtEP8avl_nodeIS2_ERKS0_I7commandE+0x478>
    3bbd:	f7 d1                	not    %ecx
    3bbf:	c1 e9 1f             	shr    $0x1f,%ecx
    3bc2:	66 0f 1f 44 00 00    	nopw   0x0(%rax,%rax,1)
    3bc8:	85 f6                	test   %esi,%esi
    3bca:	8d 41 01             	lea    0x1(%rcx),%eax
    3bcd:	74 31                	je     3c00 <_ZN6db_avlI9list_nodeI6recordEE9search_gtEP8avl_nodeIS2_ERKS0_I7commandE+0x760>
    3bcf:	48 8b 42 10          	mov    0x10(%rdx),%rax
    3bd3:	49 2b 47 10          	sub    0x10(%r15),%rax
    3bd7:	83 fe 06             	cmp    $0x6,%esi
    3bda:	0f 87 fa 0c 00 00    	ja     48da <_ZN6db_avlI9list_nodeI6recordEE9search_gtEP8avl_nodeIS2_ERKS0_I7commandE+0x143a>
    3be0:	48 8d 3d 5d 42 00 00 	lea    0x425d(%rip),%rdi        # 7e44 <_IO_stdin_used+0x344>
    3be7:	48 63 34 b7          	movslq (%rdi,%rsi,4),%rsi
    3beb:	48 01 fe             	add    %rdi,%rsi
    3bee:	ff e6                	jmpq   *%rsi
    3bf0:	48 f7 d0             	not    %rax
    3bf3:	48 c1 e8 3f          	shr    $0x3f,%rax
    3bf7:	01 c8                	add    %ecx,%eax
    3bf9:	0f 1f 80 00 00 00 00 	nopl   0x0(%rax)
    3c00:	83 f8 02             	cmp    $0x2,%eax
    3c03:	0f 84 07 0a 00 00    	je     4610 <_ZN6db_avlI9list_nodeI6recordEE9search_gtEP8avl_nodeIS2_ERKS0_I7commandE+0x1170>
    3c09:	83 f8 01             	cmp    $0x1,%eax
    3c0c:	0f 84 ee 09 00 00    	je     4600 <_ZN6db_avlI9list_nodeI6recordEE9search_gtEP8avl_nodeIS2_ERKS0_I7commandE+0x1160>
    3c12:	48 8b 44 24 10       	mov    0x10(%rsp),%rax
    3c17:	4c 8b 68 08          	mov    0x8(%rax),%r13
    3c1b:	4d 85 ed             	test   %r13,%r13
    3c1e:	0f 84 25 02 00 00    	je     3e49 <_ZN6db_avlI9list_nodeI6recordEE9search_gtEP8avl_nodeIS2_ERKS0_I7commandE+0x9a9>
    3c24:	41 8b 47 28          	mov    0x28(%r15),%eax
    3c28:	41 8b 77 24          	mov    0x24(%r15),%esi
    3c2c:	41 8b 4f 20          	mov    0x20(%r15),%ecx
    3c30:	49 8b 55 00          	mov    0x0(%r13),%rdx
    3c34:	01 c1                	add    %eax,%ecx
    3c36:	01 f1                	add    %esi,%ecx
    3c38:	0f 84 7a 09 00 00    	je     45b8 <_ZN6db_avlI9list_nodeI6recordEE9search_gtEP8avl_nodeIS2_ERKS0_I7commandE+0x1118>
    3c3e:	85 c0                	test   %eax,%eax
    3c40:	b9 01 00 00 00       	mov    $0x1,%ecx
    3c45:	74 29                	je     3c70 <_ZN6db_avlI9list_nodeI6recordEE9search_gtEP8avl_nodeIS2_ERKS0_I7commandE+0x7d0>
    3c47:	8b 4a 18             	mov    0x18(%rdx),%ecx
    3c4a:	41 2b 4f 18          	sub    0x18(%r15),%ecx
    3c4e:	83 f8 06             	cmp    $0x6,%eax
    3c51:	0f 87 87 0a 00 00    	ja     46de <_ZN6db_avlI9list_nodeI6recordEE9search_gtEP8avl_nodeIS2_ERKS0_I7commandE+0x123e>
    3c57:	48 8d 3d 02 42 00 00 	lea    0x4202(%rip),%rdi        # 7e60 <_IO_stdin_used+0x360>
    3c5e:	48 63 04 87          	movslq (%rdi,%rax,4),%rax
    3c62:	48 01 f8             	add    %rdi,%rax
    3c65:	ff e0                	jmpq   *%rax
    3c67:	f7 d1                	not    %ecx
    3c69:	c1 e9 1f             	shr    $0x1f,%ecx
    3c6c:	0f 1f 40 00          	nopl   0x0(%rax)
    3c70:	85 f6                	test   %esi,%esi
    3c72:	8d 41 01             	lea    0x1(%rcx),%eax
    3c75:	74 31                	je     3ca8 <_ZN6db_avlI9list_nodeI6recordEE9search_gtEP8avl_nodeIS2_ERKS0_I7commandE+0x808>
    3c77:	48 8b 42 10          	mov    0x10(%rdx),%rax
    3c7b:	49 2b 47 10          	sub    0x10(%r15),%rax
    3c7f:	83 fe 06             	cmp    $0x6,%esi
    3c82:	0f 87 e6 03 00 00    	ja     406e <_ZN6db_avlI9list_nodeI6recordEE9search_gtEP8avl_nodeIS2_ERKS0_I7commandE+0xbce>
    3c88:	48 8d 1d ed 41 00 00 	lea    0x41ed(%rip),%rbx        # 7e7c <_IO_stdin_used+0x37c>
    3c8f:	48 63 34 b3          	movslq (%rbx,%rsi,4),%rsi
    3c93:	48 01 de             	add    %rbx,%rsi
    3c96:	ff e6                	jmpq   *%rsi
    3c98:	48 f7 d0             	not    %rax
    3c9b:	48 c1 e8 3f          	shr    $0x3f,%rax
    3c9f:	01 c8                	add    %ecx,%eax
    3ca1:	0f 1f 80 00 00 00 00 	nopl   0x0(%rax)
    3ca8:	83 f8 02             	cmp    $0x2,%eax
    3cab:	0f 84 07 09 00 00    	je     45b8 <_ZN6db_avlI9list_nodeI6recordEE9search_gtEP8avl_nodeIS2_ERKS0_I7commandE+0x1118>
    3cb1:	83 f8 01             	cmp    $0x1,%eax
    3cb4:	0f 84 ee 08 00 00    	je     45a8 <_ZN6db_avlI9list_nodeI6recordEE9search_gtEP8avl_nodeIS2_ERKS0_I7commandE+0x1108>
    3cba:	49 8b 5d 08          	mov    0x8(%r13),%rbx
    3cbe:	48 85 db             	test   %rbx,%rbx
    3cc1:	0f 84 75 01 00 00    	je     3e3c <_ZN6db_avlI9list_nodeI6recordEE9search_gtEP8avl_nodeIS2_ERKS0_I7commandE+0x99c>
    3cc7:	4c 89 6c 24 18       	mov    %r13,0x18(%rsp)
    3ccc:	41 8b 47 28          	mov    0x28(%r15),%eax
    3cd0:	41 8b 77 24          	mov    0x24(%r15),%esi
    3cd4:	41 8b 4f 20          	mov    0x20(%r15),%ecx
    3cd8:	48 8b 13             	mov    (%rbx),%rdx
    3cdb:	01 c1                	add    %eax,%ecx
    3cdd:	01 f1                	add    %esi,%ecx
    3cdf:	0f 84 63 02 00 00    	je     3f48 <_ZN6db_avlI9list_nodeI6recordEE9search_gtEP8avl_nodeIS2_ERKS0_I7commandE+0xaa8>
    3ce5:	85 c0                	test   %eax,%eax
    3ce7:	b9 01 00 00 00       	mov    $0x1,%ecx
    3cec:	74 2a                	je     3d18 <_ZN6db_avlI9list_nodeI6recordEE9search_gtEP8avl_nodeIS2_ERKS0_I7commandE+0x878>
    3cee:	8b 4a 18             	mov    0x18(%rdx),%ecx
    3cf1:	41 2b 4f 18          	sub    0x18(%r15),%ecx
    3cf5:	83 f8 06             	cmp    $0x6,%eax
    3cf8:	0f 87 f2 02 00 00    	ja     3ff0 <_ZN6db_avlI9list_nodeI6recordEE9search_gtEP8avl_nodeIS2_ERKS0_I7commandE+0xb50>
    3cfe:	48 8d 3d 93 41 00 00 	lea    0x4193(%rip),%rdi        # 7e98 <_IO_stdin_used+0x398>
    3d05:	48 63 04 87          	movslq (%rdi,%rax,4),%rax
    3d09:	48 01 f8             	add    %rdi,%rax
    3d0c:	ff e0                	jmpq   *%rax
    3d0e:	66 90                	xchg   %ax,%ax
    3d10:	f7 d1                	not    %ecx
    3d12:	c1 e9 1f             	shr    $0x1f,%ecx
    3d15:	0f 1f 00             	nopl   (%rax)
    3d18:	85 f6                	test   %esi,%esi
    3d1a:	8d 41 01             	lea    0x1(%rcx),%eax
    3d1d:	74 31                	je     3d50 <_ZN6db_avlI9list_nodeI6recordEE9search_gtEP8avl_nodeIS2_ERKS0_I7commandE+0x8b0>
    3d1f:	48 8b 42 10          	mov    0x10(%rdx),%rax
    3d23:	49 2b 47 10          	sub    0x10(%r15),%rax
    3d27:	83 fe 06             	cmp    $0x6,%esi
    3d2a:	0f 87 b0 02 00 00    	ja     3fe0 <_ZN6db_avlI9list_nodeI6recordEE9search_gtEP8avl_nodeIS2_ERKS0_I7commandE+0xb40>
    3d30:	48 8d 3d 7d 41 00 00 	lea    0x417d(%rip),%rdi        # 7eb4 <_IO_stdin_used+0x3b4>
    3d37:	48 63 34 b7          	movslq (%rdi,%rsi,4),%rsi
    3d3b:	48 01 fe             	add    %rdi,%rsi
    3d3e:	ff e6                	jmpq   *%rsi
    3d40:	48 f7 d0             	not    %rax
    3d43:	48 c1 e8 3f          	shr    $0x3f,%rax
    3d47:	01 c8                	add    %ecx,%eax
    3d49:	0f 1f 80 00 00 00 00 	nopl   0x0(%rax)
    3d50:	83 f8 02             	cmp    $0x2,%eax
    3d53:	0f 84 ef 01 00 00    	je     3f48 <_ZN6db_avlI9list_nodeI6recordEE9search_gtEP8avl_nodeIS2_ERKS0_I7commandE+0xaa8>
    3d59:	83 f8 01             	cmp    $0x1,%eax
    3d5c:	0f 84 8e 08 00 00    	je     45f0 <_ZN6db_avlI9list_nodeI6recordEE9search_gtEP8avl_nodeIS2_ERKS0_I7commandE+0x1150>
    3d62:	4c 8b 6b 08          	mov    0x8(%rbx),%r13
    3d66:	4d 85 ed             	test   %r13,%r13
    3d69:	0f 84 bb 00 00 00    	je     3e2a <_ZN6db_avlI9list_nodeI6recordEE9search_gtEP8avl_nodeIS2_ERKS0_I7commandE+0x98a>
    3d6f:	48 8d 2d df 3d 00 00 	lea    0x3ddf(%rip),%rbp        # 7b55 <_IO_stdin_used+0x55>
    3d76:	4c 8d 25 53 41 00 00 	lea    0x4153(%rip),%r12        # 7ed0 <_IO_stdin_used+0x3d0>
    3d7d:	41 8b 47 28          	mov    0x28(%r15),%eax
    3d81:	41 8b 77 24          	mov    0x24(%r15),%esi
    3d85:	41 8b 4f 20          	mov    0x20(%r15),%ecx
    3d89:	49 8b 55 00          	mov    0x0(%r13),%rdx
    3d8d:	01 c1                	add    %eax,%ecx
    3d8f:	01 f1                	add    %esi,%ecx
    3d91:	0f 84 e9 00 00 00    	je     3e80 <_ZN6db_avlI9list_nodeI6recordEE9search_gtEP8avl_nodeIS2_ERKS0_I7commandE+0x9e0>
    3d97:	85 c0                	test   %eax,%eax
    3d99:	b9 01 00 00 00       	mov    $0x1,%ecx
    3d9e:	74 28                	je     3dc8 <_ZN6db_avlI9list_nodeI6recordEE9search_gtEP8avl_nodeIS2_ERKS0_I7commandE+0x928>
    3da0:	8b 4a 18             	mov    0x18(%rdx),%ecx
    3da3:	41 2b 4f 18          	sub    0x18(%r15),%ecx
    3da7:	83 f8 06             	cmp    $0x6,%eax
    3daa:	0f 87 70 01 00 00    	ja     3f20 <_ZN6db_avlI9list_nodeI6recordEE9search_gtEP8avl_nodeIS2_ERKS0_I7commandE+0xa80>
    3db0:	49 63 04 84          	movslq (%r12,%rax,4),%rax
    3db4:	4c 01 e0             	add    %r12,%rax
    3db7:	ff e0                	jmpq   *%rax
    3db9:	0f 1f 80 00 00 00 00 	nopl   0x0(%rax)
    3dc0:	f7 d1                	not    %ecx
    3dc2:	c1 e9 1f             	shr    $0x1f,%ecx
    3dc5:	0f 1f 00             	nopl   (%rax)
    3dc8:	85 f6                	test   %esi,%esi
    3dca:	8d 41 01             	lea    0x1(%rcx),%eax
    3dcd:	74 31                	je     3e00 <_ZN6db_avlI9list_nodeI6recordEE9search_gtEP8avl_nodeIS2_ERKS0_I7commandE+0x960>
    3dcf:	48 8b 42 10          	mov    0x10(%rdx),%rax
    3dd3:	49 2b 47 10          	sub    0x10(%r15),%rax
    3dd7:	83 fe 06             	cmp    $0x6,%esi
    3dda:	0f 87 30 01 00 00    	ja     3f10 <_ZN6db_avlI9list_nodeI6recordEE9search_gtEP8avl_nodeIS2_ERKS0_I7commandE+0xa70>
    3de0:	48 8d 3d 05 41 00 00 	lea    0x4105(%rip),%rdi        # 7eec <_IO_stdin_used+0x3ec>
    3de7:	48 63 34 b7          	movslq (%rdi,%rsi,4),%rsi
    3deb:	48 01 fe             	add    %rdi,%rsi
    3dee:	ff e6                	jmpq   *%rsi
    3df0:	48 f7 d0             	not    %rax
    3df3:	48 c1 e8 3f          	shr    $0x3f,%rax
    3df7:	01 c8                	add    %ecx,%eax
    3df9:	0f 1f 80 00 00 00 00 	nopl   0x0(%rax)
    3e00:	83 f8 02             	cmp    $0x2,%eax
    3e03:	74 7b                	je     3e80 <_ZN6db_avlI9list_nodeI6recordEE9search_gtEP8avl_nodeIS2_ERKS0_I7commandE+0x9e0>
    3e05:	83 f8 01             	cmp    $0x1,%eax
    3e08:	0f 84 42 07 00 00    	je     4550 <_ZN6db_avlI9list_nodeI6recordEE9search_gtEP8avl_nodeIS2_ERKS0_I7commandE+0x10b0>
    3e0e:	49 8b 75 08          	mov    0x8(%r13),%rsi
    3e12:	4c 89 fa             	mov    %r15,%rdx
    3e15:	4c 89 f7             	mov    %r14,%rdi
    3e18:	e8 23 f0 ff ff       	callq  2e40 <_ZN6db_avlI9list_nodeI6recordEE15print_and_countEP8avl_nodeIS2_ERKS0_I7commandE>
    3e1d:	4d 8b 6d 10          	mov    0x10(%r13),%r13
    3e21:	4d 85 ed             	test   %r13,%r13
    3e24:	0f 85 53 ff ff ff    	jne    3d7d <_ZN6db_avlI9list_nodeI6recordEE9search_gtEP8avl_nodeIS2_ERKS0_I7commandE+0x8dd>
    3e2a:	48 8b 5b 10          	mov    0x10(%rbx),%rbx
    3e2e:	48 85 db             	test   %rbx,%rbx
    3e31:	0f 85 95 fe ff ff    	jne    3ccc <_ZN6db_avlI9list_nodeI6recordEE9search_gtEP8avl_nodeIS2_ERKS0_I7commandE+0x82c>
    3e37:	4c 8b 6c 24 18       	mov    0x18(%rsp),%r13
    3e3c:	4d 8b 6d 10          	mov    0x10(%r13),%r13
    3e40:	4d 85 ed             	test   %r13,%r13
    3e43:	0f 85 db fd ff ff    	jne    3c24 <_ZN6db_avlI9list_nodeI6recordEE9search_gtEP8avl_nodeIS2_ERKS0_I7commandE+0x784>
    3e49:	48 8b 44 24 10       	mov    0x10(%rsp),%rax
    3e4e:	48 8b 40 10          	mov    0x10(%rax),%rax
    3e52:	48 85 c0             	test   %rax,%rax
    3e55:	48 89 44 24 10       	mov    %rax,0x10(%rsp)
    3e5a:	0f 85 35 fc ff ff    	jne    3a95 <_ZN6db_avlI9list_nodeI6recordEE9search_gtEP8avl_nodeIS2_ERKS0_I7commandE+0x5f5>
    3e60:	e9 f9 f6 ff ff       	jmpq   355e <_ZN6db_avlI9list_nodeI6recordEE9search_gtEP8avl_nodeIS2_ERKS0_I7commandE+0xbe>
    3e65:	0f 1f 00             	nopl   (%rax)
    3e68:	48 85 c0             	test   %rax,%rax
    3e6b:	0f 95 c0             	setne  %al
    3e6e:	0f b6 c0             	movzbl %al,%eax
    3e71:	01 c8                	add    %ecx,%eax
    3e73:	83 f8 02             	cmp    $0x2,%eax
    3e76:	75 8d                	jne    3e05 <_ZN6db_avlI9list_nodeI6recordEE9search_gtEP8avl_nodeIS2_ERKS0_I7commandE+0x965>
    3e78:	0f 1f 84 00 00 00 00 	nopl   0x0(%rax,%rax,1)
    3e7f:	00 
    3e80:	48 8b 4a 10          	mov    0x10(%rdx),%rcx
    3e84:	44 8b 42 18          	mov    0x18(%rdx),%r8d
    3e88:	48 89 ee             	mov    %rbp,%rsi
    3e8b:	48 8b 12             	mov    (%rdx),%rdx
    3e8e:	bf 01 00 00 00       	mov    $0x1,%edi
    3e93:	31 c0                	xor    %eax,%eax
    3e95:	e8 b6 cd ff ff       	callq  c50 <__printf_chk@plt>
    3e9a:	e9 6f ff ff ff       	jmpq   3e0e <_ZN6db_avlI9list_nodeI6recordEE9search_gtEP8avl_nodeIS2_ERKS0_I7commandE+0x96e>
    3e9f:	90                   	nop
    3ea0:	48 85 c0             	test   %rax,%rax
    3ea3:	0f 94 c0             	sete   %al
    3ea6:	0f b6 c0             	movzbl %al,%eax
    3ea9:	01 c8                	add    %ecx,%eax
    3eab:	e9 50 ff ff ff       	jmpq   3e00 <_ZN6db_avlI9list_nodeI6recordEE9search_gtEP8avl_nodeIS2_ERKS0_I7commandE+0x960>
    3eb0:	85 c9                	test   %ecx,%ecx
    3eb2:	0f 95 c1             	setne  %cl
    3eb5:	0f b6 c9             	movzbl %cl,%ecx
    3eb8:	e9 0b ff ff ff       	jmpq   3dc8 <_ZN6db_avlI9list_nodeI6recordEE9search_gtEP8avl_nodeIS2_ERKS0_I7commandE+0x928>
    3ebd:	0f 1f 00             	nopl   (%rax)
    3ec0:	48 85 c0             	test   %rax,%rax
    3ec3:	0f 9e c0             	setle  %al
    3ec6:	0f b6 c0             	movzbl %al,%eax
    3ec9:	01 c8                	add    %ecx,%eax
    3ecb:	e9 30 ff ff ff       	jmpq   3e00 <_ZN6db_avlI9list_nodeI6recordEE9search_gtEP8avl_nodeIS2_ERKS0_I7commandE+0x960>
    3ed0:	48 85 c0             	test   %rax,%rax
    3ed3:	0f 9f c0             	setg   %al
    3ed6:	0f b6 c0             	movzbl %al,%eax
    3ed9:	01 c8                	add    %ecx,%eax
    3edb:	e9 20 ff ff ff       	jmpq   3e00 <_ZN6db_avlI9list_nodeI6recordEE9search_gtEP8avl_nodeIS2_ERKS0_I7commandE+0x960>
    3ee0:	85 c9                	test   %ecx,%ecx
    3ee2:	0f 94 c1             	sete   %cl
    3ee5:	0f b6 c9             	movzbl %cl,%ecx
    3ee8:	e9 db fe ff ff       	jmpq   3dc8 <_ZN6db_avlI9list_nodeI6recordEE9search_gtEP8avl_nodeIS2_ERKS0_I7commandE+0x928>
    3eed:	0f 1f 00             	nopl   (%rax)
    3ef0:	85 c9                	test   %ecx,%ecx
    3ef2:	0f 9e c1             	setle  %cl
    3ef5:	0f b6 c9             	movzbl %cl,%ecx
    3ef8:	e9 cb fe ff ff       	jmpq   3dc8 <_ZN6db_avlI9list_nodeI6recordEE9search_gtEP8avl_nodeIS2_ERKS0_I7commandE+0x928>
    3efd:	0f 1f 00             	nopl   (%rax)
    3f00:	85 c9                	test   %ecx,%ecx
    3f02:	0f 9f c1             	setg   %cl
    3f05:	0f b6 c9             	movzbl %cl,%ecx
    3f08:	e9 bb fe ff ff       	jmpq   3dc8 <_ZN6db_avlI9list_nodeI6recordEE9search_gtEP8avl_nodeIS2_ERKS0_I7commandE+0x928>
    3f0d:	0f 1f 00             	nopl   (%rax)
    3f10:	8d 41 01             	lea    0x1(%rcx),%eax
    3f13:	e9 e8 fe ff ff       	jmpq   3e00 <_ZN6db_avlI9list_nodeI6recordEE9search_gtEP8avl_nodeIS2_ERKS0_I7commandE+0x960>
    3f18:	0f 1f 84 00 00 00 00 	nopl   0x0(%rax,%rax,1)
    3f1f:	00 
    3f20:	b9 01 00 00 00       	mov    $0x1,%ecx
    3f25:	e9 9e fe ff ff       	jmpq   3dc8 <_ZN6db_avlI9list_nodeI6recordEE9search_gtEP8avl_nodeIS2_ERKS0_I7commandE+0x928>
    3f2a:	66 0f 1f 44 00 00    	nopw   0x0(%rax,%rax,1)
    3f30:	48 85 c0             	test   %rax,%rax
    3f33:	0f 95 c0             	setne  %al
    3f36:	0f b6 c0             	movzbl %al,%eax
    3f39:	01 c8                	add    %ecx,%eax
    3f3b:	83 f8 02             	cmp    $0x2,%eax
    3f3e:	0f 85 15 fe ff ff    	jne    3d59 <_ZN6db_avlI9list_nodeI6recordEE9search_gtEP8avl_nodeIS2_ERKS0_I7commandE+0x8b9>
    3f44:	0f 1f 40 00          	nopl   0x0(%rax)
    3f48:	48 8b 4a 10          	mov    0x10(%rdx),%rcx
    3f4c:	44 8b 42 18          	mov    0x18(%rdx),%r8d
    3f50:	48 8d 35 fe 3b 00 00 	lea    0x3bfe(%rip),%rsi        # 7b55 <_IO_stdin_used+0x55>
    3f57:	48 8b 12             	mov    (%rdx),%rdx
    3f5a:	bf 01 00 00 00       	mov    $0x1,%edi
    3f5f:	31 c0                	xor    %eax,%eax
    3f61:	e8 ea cc ff ff       	callq  c50 <__printf_chk@plt>
    3f66:	e9 f7 fd ff ff       	jmpq   3d62 <_ZN6db_avlI9list_nodeI6recordEE9search_gtEP8avl_nodeIS2_ERKS0_I7commandE+0x8c2>
    3f6b:	0f 1f 44 00 00       	nopl   0x0(%rax,%rax,1)
    3f70:	48 85 c0             	test   %rax,%rax
    3f73:	0f 94 c0             	sete   %al
    3f76:	0f b6 c0             	movzbl %al,%eax
    3f79:	01 c8                	add    %ecx,%eax
    3f7b:	e9 d0 fd ff ff       	jmpq   3d50 <_ZN6db_avlI9list_nodeI6recordEE9search_gtEP8avl_nodeIS2_ERKS0_I7commandE+0x8b0>
    3f80:	48 85 c0             	test   %rax,%rax
    3f83:	0f 9e c0             	setle  %al
    3f86:	0f b6 c0             	movzbl %al,%eax
    3f89:	01 c8                	add    %ecx,%eax
    3f8b:	e9 c0 fd ff ff       	jmpq   3d50 <_ZN6db_avlI9list_nodeI6recordEE9search_gtEP8avl_nodeIS2_ERKS0_I7commandE+0x8b0>
    3f90:	48 85 c0             	test   %rax,%rax
    3f93:	0f 9f c0             	setg   %al
    3f96:	0f b6 c0             	movzbl %al,%eax
    3f99:	01 c8                	add    %ecx,%eax
    3f9b:	e9 b0 fd ff ff       	jmpq   3d50 <_ZN6db_avlI9list_nodeI6recordEE9search_gtEP8avl_nodeIS2_ERKS0_I7commandE+0x8b0>
    3fa0:	85 c9                	test   %ecx,%ecx
    3fa2:	0f 95 c1             	setne  %cl
    3fa5:	0f b6 c9             	movzbl %cl,%ecx
    3fa8:	e9 6b fd ff ff       	jmpq   3d18 <_ZN6db_avlI9list_nodeI6recordEE9search_gtEP8avl_nodeIS2_ERKS0_I7commandE+0x878>
    3fad:	0f 1f 00             	nopl   (%rax)
    3fb0:	85 c9                	test   %ecx,%ecx
    3fb2:	0f 94 c1             	sete   %cl
    3fb5:	0f b6 c9             	movzbl %cl,%ecx
    3fb8:	e9 5b fd ff ff       	jmpq   3d18 <_ZN6db_avlI9list_nodeI6recordEE9search_gtEP8avl_nodeIS2_ERKS0_I7commandE+0x878>
    3fbd:	0f 1f 00             	nopl   (%rax)
    3fc0:	85 c9                	test   %ecx,%ecx
    3fc2:	0f 9e c1             	setle  %cl
    3fc5:	0f b6 c9             	movzbl %cl,%ecx
    3fc8:	e9 4b fd ff ff       	jmpq   3d18 <_ZN6db_avlI9list_nodeI6recordEE9search_gtEP8avl_nodeIS2_ERKS0_I7commandE+0x878>
    3fcd:	0f 1f 00             	nopl   (%rax)
    3fd0:	85 c9                	test   %ecx,%ecx
    3fd2:	0f 9f c1             	setg   %cl
    3fd5:	0f b6 c9             	movzbl %cl,%ecx
    3fd8:	e9 3b fd ff ff       	jmpq   3d18 <_ZN6db_avlI9list_nodeI6recordEE9search_gtEP8avl_nodeIS2_ERKS0_I7commandE+0x878>
    3fdd:	0f 1f 00             	nopl   (%rax)
    3fe0:	8d 41 01             	lea    0x1(%rcx),%eax
    3fe3:	e9 68 fd ff ff       	jmpq   3d50 <_ZN6db_avlI9list_nodeI6recordEE9search_gtEP8avl_nodeIS2_ERKS0_I7commandE+0x8b0>
    3fe8:	0f 1f 84 00 00 00 00 	nopl   0x0(%rax,%rax,1)
    3fef:	00 
    3ff0:	b9 01 00 00 00       	mov    $0x1,%ecx
    3ff5:	e9 1e fd ff ff       	jmpq   3d18 <_ZN6db_avlI9list_nodeI6recordEE9search_gtEP8avl_nodeIS2_ERKS0_I7commandE+0x878>
    3ffa:	48 85 c0             	test   %rax,%rax
    3ffd:	0f 95 c0             	setne  %al
    4000:	0f b6 c0             	movzbl %al,%eax
    4003:	01 c8                	add    %ecx,%eax
    4005:	e9 9e fc ff ff       	jmpq   3ca8 <_ZN6db_avlI9list_nodeI6recordEE9search_gtEP8avl_nodeIS2_ERKS0_I7commandE+0x808>
    400a:	48 85 c0             	test   %rax,%rax
    400d:	0f 94 c0             	sete   %al
    4010:	0f b6 c0             	movzbl %al,%eax
    4013:	01 c8                	add    %ecx,%eax
    4015:	e9 8e fc ff ff       	jmpq   3ca8 <_ZN6db_avlI9list_nodeI6recordEE9search_gtEP8avl_nodeIS2_ERKS0_I7commandE+0x808>
    401a:	85 c9                	test   %ecx,%ecx
    401c:	0f 94 c1             	sete   %cl
    401f:	0f b6 c9             	movzbl %cl,%ecx
    4022:	e9 49 fc ff ff       	jmpq   3c70 <_ZN6db_avlI9list_nodeI6recordEE9search_gtEP8avl_nodeIS2_ERKS0_I7commandE+0x7d0>
    4027:	85 c9                	test   %ecx,%ecx
    4029:	0f 95 c1             	setne  %cl
    402c:	0f b6 c9             	movzbl %cl,%ecx
    402f:	e9 3c fc ff ff       	jmpq   3c70 <_ZN6db_avlI9list_nodeI6recordEE9search_gtEP8avl_nodeIS2_ERKS0_I7commandE+0x7d0>
    4034:	48 85 c0             	test   %rax,%rax
    4037:	0f 9e c0             	setle  %al
    403a:	0f b6 c0             	movzbl %al,%eax
    403d:	01 c8                	add    %ecx,%eax
    403f:	e9 64 fc ff ff       	jmpq   3ca8 <_ZN6db_avlI9list_nodeI6recordEE9search_gtEP8avl_nodeIS2_ERKS0_I7commandE+0x808>
    4044:	48 85 c0             	test   %rax,%rax
    4047:	0f 9f c0             	setg   %al
    404a:	0f b6 c0             	movzbl %al,%eax
    404d:	01 c8                	add    %ecx,%eax
    404f:	e9 54 fc ff ff       	jmpq   3ca8 <_ZN6db_avlI9list_nodeI6recordEE9search_gtEP8avl_nodeIS2_ERKS0_I7commandE+0x808>
    4054:	85 c9                	test   %ecx,%ecx
    4056:	0f 9e c1             	setle  %cl
    4059:	0f b6 c9             	movzbl %cl,%ecx
    405c:	e9 0f fc ff ff       	jmpq   3c70 <_ZN6db_avlI9list_nodeI6recordEE9search_gtEP8avl_nodeIS2_ERKS0_I7commandE+0x7d0>
    4061:	85 c9                	test   %ecx,%ecx
    4063:	0f 9f c1             	setg   %cl
    4066:	0f b6 c9             	movzbl %cl,%ecx
    4069:	e9 02 fc ff ff       	jmpq   3c70 <_ZN6db_avlI9list_nodeI6recordEE9search_gtEP8avl_nodeIS2_ERKS0_I7commandE+0x7d0>
    406e:	8d 41 01             	lea    0x1(%rcx),%eax
    4071:	e9 32 fc ff ff       	jmpq   3ca8 <_ZN6db_avlI9list_nodeI6recordEE9search_gtEP8avl_nodeIS2_ERKS0_I7commandE+0x808>
    4076:	f7 d1                	not    %ecx
    4078:	c1 e9 1f             	shr    $0x1f,%ecx
    407b:	0f 1f 44 00 00       	nopl   0x0(%rax,%rax,1)
    4080:	85 f6                	test   %esi,%esi
    4082:	8d 41 01             	lea    0x1(%rcx),%eax
    4085:	74 31                	je     40b8 <_ZN6db_avlI9list_nodeI6recordEE9search_gtEP8avl_nodeIS2_ERKS0_I7commandE+0xc18>
    4087:	48 8b 42 10          	mov    0x10(%rdx),%rax
    408b:	49 2b 47 10          	sub    0x10(%r15),%rax
    408f:	83 fe 06             	cmp    $0x6,%esi
    4092:	0f 87 3a 08 00 00    	ja     48d2 <_ZN6db_avlI9list_nodeI6recordEE9search_gtEP8avl_nodeIS2_ERKS0_I7commandE+0x1432>
    4098:	48 8d 3d 69 3e 00 00 	lea    0x3e69(%rip),%rdi        # 7f08 <_IO_stdin_used+0x408>
    409f:	48 63 34 b7          	movslq (%rdi,%rsi,4),%rsi
    40a3:	48 01 fe             	add    %rdi,%rsi
    40a6:	ff e6                	jmpq   *%rsi
    40a8:	48 f7 d0             	not    %rax
    40ab:	48 c1 e8 3f          	shr    $0x3f,%rax
    40af:	01 c8                	add    %ecx,%eax
    40b1:	0f 1f 80 00 00 00 00 	nopl   0x0(%rax)
    40b8:	83 f8 02             	cmp    $0x2,%eax
    40bb:	0f 84 7f 05 00 00    	je     4640 <_ZN6db_avlI9list_nodeI6recordEE9search_gtEP8avl_nodeIS2_ERKS0_I7commandE+0x11a0>
    40c1:	83 f8 01             	cmp    $0x1,%eax
    40c4:	0f 84 69 05 00 00    	je     4633 <_ZN6db_avlI9list_nodeI6recordEE9search_gtEP8avl_nodeIS2_ERKS0_I7commandE+0x1193>
    40ca:	48 8b 44 24 10       	mov    0x10(%rsp),%rax
    40cf:	4c 8b 68 08          	mov    0x8(%rax),%r13
    40d3:	4d 85 ed             	test   %r13,%r13
    40d6:	0f 84 2d 02 00 00    	je     4309 <_ZN6db_avlI9list_nodeI6recordEE9search_gtEP8avl_nodeIS2_ERKS0_I7commandE+0xe69>
    40dc:	41 8b 47 28          	mov    0x28(%r15),%eax
    40e0:	41 8b 77 24          	mov    0x24(%r15),%esi
    40e4:	41 8b 4f 20          	mov    0x20(%r15),%ecx
    40e8:	49 8b 55 00          	mov    0x0(%r13),%rdx
    40ec:	01 c1                	add    %eax,%ecx
    40ee:	01 f1                	add    %esi,%ecx
    40f0:	0f 84 8a 04 00 00    	je     4580 <_ZN6db_avlI9list_nodeI6recordEE9search_gtEP8avl_nodeIS2_ERKS0_I7commandE+0x10e0>
    40f6:	85 c0                	test   %eax,%eax
    40f8:	b9 01 00 00 00       	mov    $0x1,%ecx
    40fd:	74 29                	je     4128 <_ZN6db_avlI9list_nodeI6recordEE9search_gtEP8avl_nodeIS2_ERKS0_I7commandE+0xc88>
    40ff:	8b 4a 18             	mov    0x18(%rdx),%ecx
    4102:	41 2b 4f 18          	sub    0x18(%r15),%ecx
    4106:	83 f8 06             	cmp    $0x6,%eax
    4109:	0f 87 c5 05 00 00    	ja     46d4 <_ZN6db_avlI9list_nodeI6recordEE9search_gtEP8avl_nodeIS2_ERKS0_I7commandE+0x1234>
    410f:	48 8d 3d 0e 3e 00 00 	lea    0x3e0e(%rip),%rdi        # 7f24 <_IO_stdin_used+0x424>
    4116:	48 63 04 87          	movslq (%rdi,%rax,4),%rax
    411a:	48 01 f8             	add    %rdi,%rax
    411d:	ff e0                	jmpq   *%rax
    411f:	f7 d1                	not    %ecx
    4121:	c1 e9 1f             	shr    $0x1f,%ecx
    4124:	0f 1f 40 00          	nopl   0x0(%rax)
    4128:	85 f6                	test   %esi,%esi
    412a:	8d 41 01             	lea    0x1(%rcx),%eax
    412d:	74 31                	je     4160 <_ZN6db_avlI9list_nodeI6recordEE9search_gtEP8avl_nodeIS2_ERKS0_I7commandE+0xcc0>
    412f:	48 8b 42 10          	mov    0x10(%rdx),%rax
    4133:	49 2b 47 10          	sub    0x10(%r15),%rax
    4137:	83 fe 06             	cmp    $0x6,%esi
    413a:	0f 87 ee 03 00 00    	ja     452e <_ZN6db_avlI9list_nodeI6recordEE9search_gtEP8avl_nodeIS2_ERKS0_I7commandE+0x108e>
    4140:	48 8d 1d f9 3d 00 00 	lea    0x3df9(%rip),%rbx        # 7f40 <_IO_stdin_used+0x440>
    4147:	48 63 34 b3          	movslq (%rbx,%rsi,4),%rsi
    414b:	48 01 de             	add    %rbx,%rsi
    414e:	ff e6                	jmpq   *%rsi
    4150:	48 f7 d0             	not    %rax
    4153:	48 c1 e8 3f          	shr    $0x3f,%rax
    4157:	01 c8                	add    %ecx,%eax
    4159:	0f 1f 80 00 00 00 00 	nopl   0x0(%rax)
    4160:	83 f8 02             	cmp    $0x2,%eax
    4163:	0f 84 17 04 00 00    	je     4580 <_ZN6db_avlI9list_nodeI6recordEE9search_gtEP8avl_nodeIS2_ERKS0_I7commandE+0x10e0>
    4169:	83 f8 01             	cmp    $0x1,%eax
    416c:	0f 84 fe 03 00 00    	je     4570 <_ZN6db_avlI9list_nodeI6recordEE9search_gtEP8avl_nodeIS2_ERKS0_I7commandE+0x10d0>
    4172:	49 8b 5d 08          	mov    0x8(%r13),%rbx
    4176:	48 85 db             	test   %rbx,%rbx
    4179:	0f 84 7d 01 00 00    	je     42fc <_ZN6db_avlI9list_nodeI6recordEE9search_gtEP8avl_nodeIS2_ERKS0_I7commandE+0xe5c>
    417f:	4c 89 6c 24 18       	mov    %r13,0x18(%rsp)
    4184:	41 8b 47 28          	mov    0x28(%r15),%eax
    4188:	41 8b 77 24          	mov    0x24(%r15),%esi
    418c:	41 8b 4f 20          	mov    0x20(%r15),%ecx
    4190:	48 8b 13             	mov    (%rbx),%rdx
    4193:	01 c1                	add    %eax,%ecx
    4195:	01 f1                	add    %esi,%ecx
    4197:	0f 84 6b 02 00 00    	je     4408 <_ZN6db_avlI9list_nodeI6recordEE9search_gtEP8avl_nodeIS2_ERKS0_I7commandE+0xf68>
    419d:	85 c0                	test   %eax,%eax
    419f:	b9 01 00 00 00       	mov    $0x1,%ecx
    41a4:	74 32                	je     41d8 <_ZN6db_avlI9list_nodeI6recordEE9search_gtEP8avl_nodeIS2_ERKS0_I7commandE+0xd38>
    41a6:	8b 4a 18             	mov    0x18(%rdx),%ecx
    41a9:	41 2b 4f 18          	sub    0x18(%r15),%ecx
    41ad:	83 f8 06             	cmp    $0x6,%eax
    41b0:	0f 87 fa 02 00 00    	ja     44b0 <_ZN6db_avlI9list_nodeI6recordEE9search_gtEP8avl_nodeIS2_ERKS0_I7commandE+0x1010>
    41b6:	48 8d 3d 9f 3d 00 00 	lea    0x3d9f(%rip),%rdi        # 7f5c <_IO_stdin_used+0x45c>
    41bd:	48 63 04 87          	movslq (%rdi,%rax,4),%rax
    41c1:	48 01 f8             	add    %rdi,%rax
    41c4:	ff e0                	jmpq   *%rax
    41c6:	66 2e 0f 1f 84 00 00 	nopw   %cs:0x0(%rax,%rax,1)
    41cd:	00 00 00 
    41d0:	f7 d1                	not    %ecx
    41d2:	c1 e9 1f             	shr    $0x1f,%ecx
    41d5:	0f 1f 00             	nopl   (%rax)
    41d8:	85 f6                	test   %esi,%esi
    41da:	8d 41 01             	lea    0x1(%rcx),%eax
    41dd:	74 31                	je     4210 <_ZN6db_avlI9list_nodeI6recordEE9search_gtEP8avl_nodeIS2_ERKS0_I7commandE+0xd70>
    41df:	48 8b 42 10          	mov    0x10(%rdx),%rax
    41e3:	49 2b 47 10          	sub    0x10(%r15),%rax
    41e7:	83 fe 06             	cmp    $0x6,%esi
    41ea:	0f 87 b0 02 00 00    	ja     44a0 <_ZN6db_avlI9list_nodeI6recordEE9search_gtEP8avl_nodeIS2_ERKS0_I7commandE+0x1000>
    41f0:	48 8d 3d 81 3d 00 00 	lea    0x3d81(%rip),%rdi        # 7f78 <_IO_stdin_used+0x478>
    41f7:	48 63 34 b7          	movslq (%rdi,%rsi,4),%rsi
    41fb:	48 01 fe             	add    %rdi,%rsi
    41fe:	ff e6                	jmpq   *%rsi
    4200:	48 f7 d0             	not    %rax
    4203:	48 c1 e8 3f          	shr    $0x3f,%rax
    4207:	01 c8                	add    %ecx,%eax
    4209:	0f 1f 80 00 00 00 00 	nopl   0x0(%rax)
    4210:	83 f8 02             	cmp    $0x2,%eax
    4213:	0f 84 ef 01 00 00    	je     4408 <_ZN6db_avlI9list_nodeI6recordEE9search_gtEP8avl_nodeIS2_ERKS0_I7commandE+0xf68>
    4219:	83 f8 01             	cmp    $0x1,%eax
    421c:	0f 84 be 03 00 00    	je     45e0 <_ZN6db_avlI9list_nodeI6recordEE9search_gtEP8avl_nodeIS2_ERKS0_I7commandE+0x1140>
    4222:	4c 8b 6b 08          	mov    0x8(%rbx),%r13
    4226:	4d 85 ed             	test   %r13,%r13
    4229:	0f 84 bb 00 00 00    	je     42ea <_ZN6db_avlI9list_nodeI6recordEE9search_gtEP8avl_nodeIS2_ERKS0_I7commandE+0xe4a>
    422f:	48 8d 2d 1f 39 00 00 	lea    0x391f(%rip),%rbp        # 7b55 <_IO_stdin_used+0x55>
    4236:	4c 8d 25 57 3d 00 00 	lea    0x3d57(%rip),%r12        # 7f94 <_IO_stdin_used+0x494>
    423d:	41 8b 47 28          	mov    0x28(%r15),%eax
    4241:	41 8b 77 24          	mov    0x24(%r15),%esi
    4245:	41 8b 4f 20          	mov    0x20(%r15),%ecx
    4249:	49 8b 55 00          	mov    0x0(%r13),%rdx
    424d:	01 c1                	add    %eax,%ecx
    424f:	01 f1                	add    %esi,%ecx
    4251:	0f 84 e9 00 00 00    	je     4340 <_ZN6db_avlI9list_nodeI6recordEE9search_gtEP8avl_nodeIS2_ERKS0_I7commandE+0xea0>
    4257:	85 c0                	test   %eax,%eax
    4259:	b9 01 00 00 00       	mov    $0x1,%ecx
    425e:	74 28                	je     4288 <_ZN6db_avlI9list_nodeI6recordEE9search_gtEP8avl_nodeIS2_ERKS0_I7commandE+0xde8>
    4260:	8b 4a 18             	mov    0x18(%rdx),%ecx
    4263:	41 2b 4f 18          	sub    0x18(%r15),%ecx
    4267:	83 f8 06             	cmp    $0x6,%eax
    426a:	0f 87 70 01 00 00    	ja     43e0 <_ZN6db_avlI9list_nodeI6recordEE9search_gtEP8avl_nodeIS2_ERKS0_I7commandE+0xf40>
    4270:	49 63 04 84          	movslq (%r12,%rax,4),%rax
    4274:	4c 01 e0             	add    %r12,%rax
    4277:	ff e0                	jmpq   *%rax
    4279:	0f 1f 80 00 00 00 00 	nopl   0x0(%rax)
    4280:	f7 d1                	not    %ecx
    4282:	c1 e9 1f             	shr    $0x1f,%ecx
    4285:	0f 1f 00             	nopl   (%rax)
    4288:	85 f6                	test   %esi,%esi
    428a:	8d 41 01             	lea    0x1(%rcx),%eax
    428d:	74 31                	je     42c0 <_ZN6db_avlI9list_nodeI6recordEE9search_gtEP8avl_nodeIS2_ERKS0_I7commandE+0xe20>
    428f:	48 8b 42 10          	mov    0x10(%rdx),%rax
    4293:	49 2b 47 10          	sub    0x10(%r15),%rax
    4297:	83 fe 06             	cmp    $0x6,%esi
    429a:	0f 87 30 01 00 00    	ja     43d0 <_ZN6db_avlI9list_nodeI6recordEE9search_gtEP8avl_nodeIS2_ERKS0_I7commandE+0xf30>
    42a0:	48 8d 3d 09 3d 00 00 	lea    0x3d09(%rip),%rdi        # 7fb0 <_IO_stdin_used+0x4b0>
    42a7:	48 63 34 b7          	movslq (%rdi,%rsi,4),%rsi
    42ab:	48 01 fe             	add    %rdi,%rsi
    42ae:	ff e6                	jmpq   *%rsi
    42b0:	48 f7 d0             	not    %rax
    42b3:	48 c1 e8 3f          	shr    $0x3f,%rax
    42b7:	01 c8                	add    %ecx,%eax
    42b9:	0f 1f 80 00 00 00 00 	nopl   0x0(%rax)
    42c0:	83 f8 02             	cmp    $0x2,%eax
    42c3:	74 7b                	je     4340 <_ZN6db_avlI9list_nodeI6recordEE9search_gtEP8avl_nodeIS2_ERKS0_I7commandE+0xea0>
    42c5:	83 f8 01             	cmp    $0x1,%eax
    42c8:	0f 84 92 02 00 00    	je     4560 <_ZN6db_avlI9list_nodeI6recordEE9search_gtEP8avl_nodeIS2_ERKS0_I7commandE+0x10c0>
    42ce:	49 8b 75 08          	mov    0x8(%r13),%rsi
    42d2:	4c 89 fa             	mov    %r15,%rdx
    42d5:	4c 89 f7             	mov    %r14,%rdi
    42d8:	e8 63 eb ff ff       	callq  2e40 <_ZN6db_avlI9list_nodeI6recordEE15print_and_countEP8avl_nodeIS2_ERKS0_I7commandE>
    42dd:	4d 8b 6d 10          	mov    0x10(%r13),%r13
    42e1:	4d 85 ed             	test   %r13,%r13
    42e4:	0f 85 53 ff ff ff    	jne    423d <_ZN6db_avlI9list_nodeI6recordEE9search_gtEP8avl_nodeIS2_ERKS0_I7commandE+0xd9d>
    42ea:	48 8b 5b 10          	mov    0x10(%rbx),%rbx
    42ee:	48 85 db             	test   %rbx,%rbx
    42f1:	0f 85 8d fe ff ff    	jne    4184 <_ZN6db_avlI9list_nodeI6recordEE9search_gtEP8avl_nodeIS2_ERKS0_I7commandE+0xce4>
    42f7:	4c 8b 6c 24 18       	mov    0x18(%rsp),%r13
    42fc:	4d 8b 6d 10          	mov    0x10(%r13),%r13
    4300:	4d 85 ed             	test   %r13,%r13
    4303:	0f 85 d3 fd ff ff    	jne    40dc <_ZN6db_avlI9list_nodeI6recordEE9search_gtEP8avl_nodeIS2_ERKS0_I7commandE+0xc3c>
    4309:	48 8b 44 24 10       	mov    0x10(%rsp),%rax
    430e:	48 8b 40 10          	mov    0x10(%rax),%rax
    4312:	48 85 c0             	test   %rax,%rax
    4315:	48 89 44 24 10       	mov    %rax,0x10(%rsp)
    431a:	0f 85 d5 f6 ff ff    	jne    39f5 <_ZN6db_avlI9list_nodeI6recordEE9search_gtEP8avl_nodeIS2_ERKS0_I7commandE+0x555>
    4320:	e9 39 f2 ff ff       	jmpq   355e <_ZN6db_avlI9list_nodeI6recordEE9search_gtEP8avl_nodeIS2_ERKS0_I7commandE+0xbe>
    4325:	0f 1f 00             	nopl   (%rax)
    4328:	48 85 c0             	test   %rax,%rax
    432b:	0f 9e c0             	setle  %al
    432e:	0f b6 c0             	movzbl %al,%eax
    4331:	01 c8                	add    %ecx,%eax
    4333:	83 f8 02             	cmp    $0x2,%eax
    4336:	75 8d                	jne    42c5 <_ZN6db_avlI9list_nodeI6recordEE9search_gtEP8avl_nodeIS2_ERKS0_I7commandE+0xe25>
    4338:	0f 1f 84 00 00 00 00 	nopl   0x0(%rax,%rax,1)
    433f:	00 
    4340:	48 8b 4a 10          	mov    0x10(%rdx),%rcx
    4344:	44 8b 42 18          	mov    0x18(%rdx),%r8d
    4348:	48 89 ee             	mov    %rbp,%rsi
    434b:	48 8b 12             	mov    (%rdx),%rdx
    434e:	bf 01 00 00 00       	mov    $0x1,%edi
    4353:	31 c0                	xor    %eax,%eax
    4355:	e8 f6 c8 ff ff       	callq  c50 <__printf_chk@plt>
    435a:	e9 6f ff ff ff       	jmpq   42ce <_ZN6db_avlI9list_nodeI6recordEE9search_gtEP8avl_nodeIS2_ERKS0_I7commandE+0xe2e>
    435f:	90                   	nop
    4360:	48 85 c0             	test   %rax,%rax
    4363:	0f 9f c0             	setg   %al
    4366:	0f b6 c0             	movzbl %al,%eax
    4369:	01 c8                	add    %ecx,%eax
    436b:	e9 50 ff ff ff       	jmpq   42c0 <_ZN6db_avlI9list_nodeI6recordEE9search_gtEP8avl_nodeIS2_ERKS0_I7commandE+0xe20>
    4370:	48 85 c0             	test   %rax,%rax
    4373:	0f 94 c0             	sete   %al
    4376:	0f b6 c0             	movzbl %al,%eax
    4379:	01 c8                	add    %ecx,%eax
    437b:	e9 40 ff ff ff       	jmpq   42c0 <_ZN6db_avlI9list_nodeI6recordEE9search_gtEP8avl_nodeIS2_ERKS0_I7commandE+0xe20>
    4380:	48 85 c0             	test   %rax,%rax
    4383:	0f 95 c0             	setne  %al
    4386:	0f b6 c0             	movzbl %al,%eax
    4389:	01 c8                	add    %ecx,%eax
    438b:	e9 30 ff ff ff       	jmpq   42c0 <_ZN6db_avlI9list_nodeI6recordEE9search_gtEP8avl_nodeIS2_ERKS0_I7commandE+0xe20>
    4390:	85 c9                	test   %ecx,%ecx
    4392:	0f 94 c1             	sete   %cl
    4395:	0f b6 c9             	movzbl %cl,%ecx
    4398:	e9 eb fe ff ff       	jmpq   4288 <_ZN6db_avlI9list_nodeI6recordEE9search_gtEP8avl_nodeIS2_ERKS0_I7commandE+0xde8>
    439d:	0f 1f 00             	nopl   (%rax)
    43a0:	85 c9                	test   %ecx,%ecx
    43a2:	0f 95 c1             	setne  %cl
    43a5:	0f b6 c9             	movzbl %cl,%ecx
    43a8:	e9 db fe ff ff       	jmpq   4288 <_ZN6db_avlI9list_nodeI6recordEE9search_gtEP8avl_nodeIS2_ERKS0_I7commandE+0xde8>
    43ad:	0f 1f 00             	nopl   (%rax)
    43b0:	85 c9                	test   %ecx,%ecx
    43b2:	0f 9e c1             	setle  %cl
    43b5:	0f b6 c9             	movzbl %cl,%ecx
    43b8:	e9 cb fe ff ff       	jmpq   4288 <_ZN6db_avlI9list_nodeI6recordEE9search_gtEP8avl_nodeIS2_ERKS0_I7commandE+0xde8>
    43bd:	0f 1f 00             	nopl   (%rax)
    43c0:	85 c9                	test   %ecx,%ecx
    43c2:	0f 9f c1             	setg   %cl
    43c5:	0f b6 c9             	movzbl %cl,%ecx
    43c8:	e9 bb fe ff ff       	jmpq   4288 <_ZN6db_avlI9list_nodeI6recordEE9search_gtEP8avl_nodeIS2_ERKS0_I7commandE+0xde8>
    43cd:	0f 1f 00             	nopl   (%rax)
    43d0:	8d 41 01             	lea    0x1(%rcx),%eax
    43d3:	e9 e8 fe ff ff       	jmpq   42c0 <_ZN6db_avlI9list_nodeI6recordEE9search_gtEP8avl_nodeIS2_ERKS0_I7commandE+0xe20>
    43d8:	0f 1f 84 00 00 00 00 	nopl   0x0(%rax,%rax,1)
    43df:	00 
    43e0:	b9 01 00 00 00       	mov    $0x1,%ecx
    43e5:	e9 9e fe ff ff       	jmpq   4288 <_ZN6db_avlI9list_nodeI6recordEE9search_gtEP8avl_nodeIS2_ERKS0_I7commandE+0xde8>
    43ea:	66 0f 1f 44 00 00    	nopw   0x0(%rax,%rax,1)
    43f0:	48 85 c0             	test   %rax,%rax
    43f3:	0f 94 c0             	sete   %al
    43f6:	0f b6 c0             	movzbl %al,%eax
    43f9:	01 c8                	add    %ecx,%eax
    43fb:	83 f8 02             	cmp    $0x2,%eax
    43fe:	0f 85 15 fe ff ff    	jne    4219 <_ZN6db_avlI9list_nodeI6recordEE9search_gtEP8avl_nodeIS2_ERKS0_I7commandE+0xd79>
    4404:	0f 1f 40 00          	nopl   0x0(%rax)
    4408:	48 8b 4a 10          	mov    0x10(%rdx),%rcx
    440c:	44 8b 42 18          	mov    0x18(%rdx),%r8d
    4410:	48 8d 35 3e 37 00 00 	lea    0x373e(%rip),%rsi        # 7b55 <_IO_stdin_used+0x55>
    4417:	48 8b 12             	mov    (%rdx),%rdx
    441a:	bf 01 00 00 00       	mov    $0x1,%edi
    441f:	31 c0                	xor    %eax,%eax
    4421:	e8 2a c8 ff ff       	callq  c50 <__printf_chk@plt>
    4426:	e9 f7 fd ff ff       	jmpq   4222 <_ZN6db_avlI9list_nodeI6recordEE9search_gtEP8avl_nodeIS2_ERKS0_I7commandE+0xd82>
    442b:	0f 1f 44 00 00       	nopl   0x0(%rax,%rax,1)
    4430:	48 85 c0             	test   %rax,%rax
    4433:	0f 95 c0             	setne  %al
    4436:	0f b6 c0             	movzbl %al,%eax
    4439:	01 c8                	add    %ecx,%eax
    443b:	e9 d0 fd ff ff       	jmpq   4210 <_ZN6db_avlI9list_nodeI6recordEE9search_gtEP8avl_nodeIS2_ERKS0_I7commandE+0xd70>
    4440:	48 85 c0             	test   %rax,%rax
    4443:	0f 9e c0             	setle  %al
    4446:	0f b6 c0             	movzbl %al,%eax
    4449:	01 c8                	add    %ecx,%eax
    444b:	e9 c0 fd ff ff       	jmpq   4210 <_ZN6db_avlI9list_nodeI6recordEE9search_gtEP8avl_nodeIS2_ERKS0_I7commandE+0xd70>
    4450:	48 85 c0             	test   %rax,%rax
    4453:	0f 9f c0             	setg   %al
    4456:	0f b6 c0             	movzbl %al,%eax
    4459:	01 c8                	add    %ecx,%eax
    445b:	e9 b0 fd ff ff       	jmpq   4210 <_ZN6db_avlI9list_nodeI6recordEE9search_gtEP8avl_nodeIS2_ERKS0_I7commandE+0xd70>
    4460:	85 c9                	test   %ecx,%ecx
    4462:	0f 95 c1             	setne  %cl
    4465:	0f b6 c9             	movzbl %cl,%ecx
    4468:	e9 6b fd ff ff       	jmpq   41d8 <_ZN6db_avlI9list_nodeI6recordEE9search_gtEP8avl_nodeIS2_ERKS0_I7commandE+0xd38>
    446d:	0f 1f 00             	nopl   (%rax)
    4470:	85 c9                	test   %ecx,%ecx
    4472:	0f 94 c1             	sete   %cl
    4475:	0f b6 c9             	movzbl %cl,%ecx
    4478:	e9 5b fd ff ff       	jmpq   41d8 <_ZN6db_avlI9list_nodeI6recordEE9search_gtEP8avl_nodeIS2_ERKS0_I7commandE+0xd38>
    447d:	0f 1f 00             	nopl   (%rax)
    4480:	85 c9                	test   %ecx,%ecx
    4482:	0f 9e c1             	setle  %cl
    4485:	0f b6 c9             	movzbl %cl,%ecx
    4488:	e9 4b fd ff ff       	jmpq   41d8 <_ZN6db_avlI9list_nodeI6recordEE9search_gtEP8avl_nodeIS2_ERKS0_I7commandE+0xd38>
    448d:	0f 1f 00             	nopl   (%rax)
    4490:	85 c9                	test   %ecx,%ecx
    4492:	0f 9f c1             	setg   %cl
    4495:	0f b6 c9             	movzbl %cl,%ecx
    4498:	e9 3b fd ff ff       	jmpq   41d8 <_ZN6db_avlI9list_nodeI6recordEE9search_gtEP8avl_nodeIS2_ERKS0_I7commandE+0xd38>
    449d:	0f 1f 00             	nopl   (%rax)
    44a0:	8d 41 01             	lea    0x1(%rcx),%eax
    44a3:	e9 68 fd ff ff       	jmpq   4210 <_ZN6db_avlI9list_nodeI6recordEE9search_gtEP8avl_nodeIS2_ERKS0_I7commandE+0xd70>
    44a8:	0f 1f 84 00 00 00 00 	nopl   0x0(%rax,%rax,1)
    44af:	00 
    44b0:	b9 01 00 00 00       	mov    $0x1,%ecx
    44b5:	e9 1e fd ff ff       	jmpq   41d8 <_ZN6db_avlI9list_nodeI6recordEE9search_gtEP8avl_nodeIS2_ERKS0_I7commandE+0xd38>
    44ba:	48 85 c0             	test   %rax,%rax
    44bd:	0f 95 c0             	setne  %al
    44c0:	0f b6 c0             	movzbl %al,%eax
    44c3:	01 c8                	add    %ecx,%eax
    44c5:	e9 96 fc ff ff       	jmpq   4160 <_ZN6db_avlI9list_nodeI6recordEE9search_gtEP8avl_nodeIS2_ERKS0_I7commandE+0xcc0>
    44ca:	48 85 c0             	test   %rax,%rax
    44cd:	0f 94 c0             	sete   %al
    44d0:	0f b6 c0             	movzbl %al,%eax
    44d3:	01 c8                	add    %ecx,%eax
    44d5:	e9 86 fc ff ff       	jmpq   4160 <_ZN6db_avlI9list_nodeI6recordEE9search_gtEP8avl_nodeIS2_ERKS0_I7commandE+0xcc0>
    44da:	85 c9                	test   %ecx,%ecx
    44dc:	0f 95 c1             	setne  %cl
    44df:	0f b6 c9             	movzbl %cl,%ecx
    44e2:	e9 41 fc ff ff       	jmpq   4128 <_ZN6db_avlI9list_nodeI6recordEE9search_gtEP8avl_nodeIS2_ERKS0_I7commandE+0xc88>
    44e7:	85 c9                	test   %ecx,%ecx
    44e9:	0f 94 c1             	sete   %cl
    44ec:	0f b6 c9             	movzbl %cl,%ecx
    44ef:	e9 34 fc ff ff       	jmpq   4128 <_ZN6db_avlI9list_nodeI6recordEE9search_gtEP8avl_nodeIS2_ERKS0_I7commandE+0xc88>
    44f4:	48 85 c0             	test   %rax,%rax
    44f7:	0f 9e c0             	setle  %al
    44fa:	0f b6 c0             	movzbl %al,%eax
    44fd:	01 c8                	add    %ecx,%eax
    44ff:	e9 5c fc ff ff       	jmpq   4160 <_ZN6db_avlI9list_nodeI6recordEE9search_gtEP8avl_nodeIS2_ERKS0_I7commandE+0xcc0>
    4504:	48 85 c0             	test   %rax,%rax
    4507:	0f 9f c0             	setg   %al
    450a:	0f b6 c0             	movzbl %al,%eax
    450d:	01 c8                	add    %ecx,%eax
    450f:	e9 4c fc ff ff       	jmpq   4160 <_ZN6db_avlI9list_nodeI6recordEE9search_gtEP8avl_nodeIS2_ERKS0_I7commandE+0xcc0>
    4514:	85 c9                	test   %ecx,%ecx
    4516:	0f 9e c1             	setle  %cl
    4519:	0f b6 c9             	movzbl %cl,%ecx
    451c:	e9 07 fc ff ff       	jmpq   4128 <_ZN6db_avlI9list_nodeI6recordEE9search_gtEP8avl_nodeIS2_ERKS0_I7commandE+0xc88>
    4521:	85 c9                	test   %ecx,%ecx
    4523:	0f 9f c1             	setg   %cl
    4526:	0f b6 c9             	movzbl %cl,%ecx
    4529:	e9 fa fb ff ff       	jmpq   4128 <_ZN6db_avlI9list_nodeI6recordEE9search_gtEP8avl_nodeIS2_ERKS0_I7commandE+0xc88>
    452e:	8d 41 01             	lea    0x1(%rcx),%eax
    4531:	e9 2a fc ff ff       	jmpq   4160 <_ZN6db_avlI9list_nodeI6recordEE9search_gtEP8avl_nodeIS2_ERKS0_I7commandE+0xcc0>
    4536:	8d 51 01             	lea    0x1(%rcx),%edx
    4539:	e9 da f3 ff ff       	jmpq   3918 <_ZN6db_avlI9list_nodeI6recordEE9search_gtEP8avl_nodeIS2_ERKS0_I7commandE+0x478>
    453e:	8d 51 01             	lea    0x1(%rcx),%edx
    4541:	e9 9a f3 ff ff       	jmpq   38e0 <_ZN6db_avlI9list_nodeI6recordEE9search_gtEP8avl_nodeIS2_ERKS0_I7commandE+0x440>
    4546:	66 2e 0f 1f 84 00 00 	nopw   %cs:0x0(%rax,%rax,1)
    454d:	00 00 00 
    4550:	41 83 7f 2c 02       	cmpl   $0x2,0x2c(%r15)
    4555:	0f 85 b3 f8 ff ff    	jne    3e0e <_ZN6db_avlI9list_nodeI6recordEE9search_gtEP8avl_nodeIS2_ERKS0_I7commandE+0x96e>
    455b:	e9 20 f9 ff ff       	jmpq   3e80 <_ZN6db_avlI9list_nodeI6recordEE9search_gtEP8avl_nodeIS2_ERKS0_I7commandE+0x9e0>
    4560:	41 83 7f 2c 02       	cmpl   $0x2,0x2c(%r15)
    4565:	0f 85 63 fd ff ff    	jne    42ce <_ZN6db_avlI9list_nodeI6recordEE9search_gtEP8avl_nodeIS2_ERKS0_I7commandE+0xe2e>
    456b:	e9 d0 fd ff ff       	jmpq   4340 <_ZN6db_avlI9list_nodeI6recordEE9search_gtEP8avl_nodeIS2_ERKS0_I7commandE+0xea0>
    4570:	41 83 7f 2c 02       	cmpl   $0x2,0x2c(%r15)
    4575:	0f 85 f7 fb ff ff    	jne    4172 <_ZN6db_avlI9list_nodeI6recordEE9search_gtEP8avl_nodeIS2_ERKS0_I7commandE+0xcd2>
    457b:	0f 1f 44 00 00       	nopl   0x0(%rax,%rax,1)
    4580:	48 8b 4a 10          	mov    0x10(%rdx),%rcx
    4584:	44 8b 42 18          	mov    0x18(%rdx),%r8d
    4588:	48 8d 35 c6 35 00 00 	lea    0x35c6(%rip),%rsi        # 7b55 <_IO_stdin_used+0x55>
    458f:	48 8b 12             	mov    (%rdx),%rdx
    4592:	bf 01 00 00 00       	mov    $0x1,%edi
    4597:	31 c0                	xor    %eax,%eax
    4599:	e8 b2 c6 ff ff       	callq  c50 <__printf_chk@plt>
    459e:	e9 cf fb ff ff       	jmpq   4172 <_ZN6db_avlI9list_nodeI6recordEE9search_gtEP8avl_nodeIS2_ERKS0_I7commandE+0xcd2>
    45a3:	0f 1f 44 00 00       	nopl   0x0(%rax,%rax,1)
    45a8:	41 83 7f 2c 02       	cmpl   $0x2,0x2c(%r15)
    45ad:	0f 85 07 f7 ff ff    	jne    3cba <_ZN6db_avlI9list_nodeI6recordEE9search_gtEP8avl_nodeIS2_ERKS0_I7commandE+0x81a>
    45b3:	0f 1f 44 00 00       	nopl   0x0(%rax,%rax,1)
    45b8:	48 8b 4a 10          	mov    0x10(%rdx),%rcx
    45bc:	44 8b 42 18          	mov    0x18(%rdx),%r8d
    45c0:	48 8d 35 8e 35 00 00 	lea    0x358e(%rip),%rsi        # 7b55 <_IO_stdin_used+0x55>
    45c7:	48 8b 12             	mov    (%rdx),%rdx
    45ca:	bf 01 00 00 00       	mov    $0x1,%edi
    45cf:	31 c0                	xor    %eax,%eax
    45d1:	e8 7a c6 ff ff       	callq  c50 <__printf_chk@plt>
    45d6:	e9 df f6 ff ff       	jmpq   3cba <_ZN6db_avlI9list_nodeI6recordEE9search_gtEP8avl_nodeIS2_ERKS0_I7commandE+0x81a>
    45db:	0f 1f 44 00 00       	nopl   0x0(%rax,%rax,1)
    45e0:	41 83 7f 2c 02       	cmpl   $0x2,0x2c(%r15)
    45e5:	0f 85 37 fc ff ff    	jne    4222 <_ZN6db_avlI9list_nodeI6recordEE9search_gtEP8avl_nodeIS2_ERKS0_I7commandE+0xd82>
    45eb:	e9 18 fe ff ff       	jmpq   4408 <_ZN6db_avlI9list_nodeI6recordEE9search_gtEP8avl_nodeIS2_ERKS0_I7commandE+0xf68>
    45f0:	41 83 7f 2c 02       	cmpl   $0x2,0x2c(%r15)
    45f5:	0f 85 67 f7 ff ff    	jne    3d62 <_ZN6db_avlI9list_nodeI6recordEE9search_gtEP8avl_nodeIS2_ERKS0_I7commandE+0x8c2>
    45fb:	e9 48 f9 ff ff       	jmpq   3f48 <_ZN6db_avlI9list_nodeI6recordEE9search_gtEP8avl_nodeIS2_ERKS0_I7commandE+0xaa8>
    4600:	41 83 7f 2c 02       	cmpl   $0x2,0x2c(%r15)
    4605:	0f 85 07 f6 ff ff    	jne    3c12 <_ZN6db_avlI9list_nodeI6recordEE9search_gtEP8avl_nodeIS2_ERKS0_I7commandE+0x772>
    460b:	0f 1f 44 00 00       	nopl   0x0(%rax,%rax,1)
    4610:	48 8b 4a 10          	mov    0x10(%rdx),%rcx
    4614:	44 8b 42 18          	mov    0x18(%rdx),%r8d
    4618:	48 8d 35 36 35 00 00 	lea    0x3536(%rip),%rsi        # 7b55 <_IO_stdin_used+0x55>
    461f:	48 8b 12             	mov    (%rdx),%rdx
    4622:	bf 01 00 00 00       	mov    $0x1,%edi
    4627:	31 c0                	xor    %eax,%eax
    4629:	e8 22 c6 ff ff       	callq  c50 <__printf_chk@plt>
    462e:	e9 df f5 ff ff       	jmpq   3c12 <_ZN6db_avlI9list_nodeI6recordEE9search_gtEP8avl_nodeIS2_ERKS0_I7commandE+0x772>
    4633:	41 83 7f 2c 02       	cmpl   $0x2,0x2c(%r15)
    4638:	0f 85 8c fa ff ff    	jne    40ca <_ZN6db_avlI9list_nodeI6recordEE9search_gtEP8avl_nodeIS2_ERKS0_I7commandE+0xc2a>
    463e:	66 90                	xchg   %ax,%ax
    4640:	48 8b 4a 10          	mov    0x10(%rdx),%rcx
    4644:	44 8b 42 18          	mov    0x18(%rdx),%r8d
    4648:	48 8d 35 06 35 00 00 	lea    0x3506(%rip),%rsi        # 7b55 <_IO_stdin_used+0x55>
    464f:	48 8b 12             	mov    (%rdx),%rdx
    4652:	bf 01 00 00 00       	mov    $0x1,%edi
    4657:	31 c0                	xor    %eax,%eax
    4659:	e8 f2 c5 ff ff       	callq  c50 <__printf_chk@plt>
    465e:	e9 67 fa ff ff       	jmpq   40ca <_ZN6db_avlI9list_nodeI6recordEE9search_gtEP8avl_nodeIS2_ERKS0_I7commandE+0xc2a>
    4663:	85 d2                	test   %edx,%edx
    4665:	0f 9e c2             	setle  %dl
    4668:	0f b6 d2             	movzbl %dl,%edx
    466b:	0f 1f 44 00 00       	nopl   0x0(%rax,%rax,1)
    4670:	85 c9                	test   %ecx,%ecx
    4672:	8d 42 01             	lea    0x1(%rdx),%eax
    4675:	0f 84 cd f3 ff ff    	je     3a48 <_ZN6db_avlI9list_nodeI6recordEE9search_gtEP8avl_nodeIS2_ERKS0_I7commandE+0x5a8>
    467b:	48 8b 43 10          	mov    0x10(%rbx),%rax
    467f:	49 2b 47 10          	sub    0x10(%r15),%rax
    4683:	83 f9 06             	cmp    $0x6,%ecx
    4686:	0f 87 78 03 00 00    	ja     4a04 <_ZN6db_avlI9list_nodeI6recordEE9search_gtEP8avl_nodeIS2_ERKS0_I7commandE+0x1564>
    468c:	48 8d 35 39 39 00 00 	lea    0x3939(%rip),%rsi        # 7fcc <_IO_stdin_used+0x4cc>
    4693:	48 63 0c 8e          	movslq (%rsi,%rcx,4),%rcx
    4697:	48 01 f1             	add    %rsi,%rcx
    469a:	ff e1                	jmpq   *%rcx
    469c:	85 d2                	test   %edx,%edx
    469e:	0f 9e c2             	setle  %dl
    46a1:	0f b6 d2             	movzbl %dl,%edx
    46a4:	0f 1f 40 00          	nopl   0x0(%rax)
    46a8:	85 c9                	test   %ecx,%ecx
    46aa:	8d 42 01             	lea    0x1(%rdx),%eax
    46ad:	0f 84 f5 f2 ff ff    	je     39a8 <_ZN6db_avlI9list_nodeI6recordEE9search_gtEP8avl_nodeIS2_ERKS0_I7commandE+0x508>
    46b3:	48 8b 43 10          	mov    0x10(%rbx),%rax
    46b7:	49 2b 47 10          	sub    0x10(%r15),%rax
    46bb:	83 f9 06             	cmp    $0x6,%ecx
    46be:	0f 87 38 03 00 00    	ja     49fc <_ZN6db_avlI9list_nodeI6recordEE9search_gtEP8avl_nodeIS2_ERKS0_I7commandE+0x155c>
    46c4:	48 8d 35 1d 39 00 00 	lea    0x391d(%rip),%rsi        # 7fe8 <_IO_stdin_used+0x4e8>
    46cb:	48 63 0c 8e          	movslq (%rsi,%rcx,4),%rcx
    46cf:	48 01 f1             	add    %rsi,%rcx
    46d2:	ff e1                	jmpq   *%rcx
    46d4:	b9 01 00 00 00       	mov    $0x1,%ecx
    46d9:	e9 4a fa ff ff       	jmpq   4128 <_ZN6db_avlI9list_nodeI6recordEE9search_gtEP8avl_nodeIS2_ERKS0_I7commandE+0xc88>
    46de:	b9 01 00 00 00       	mov    $0x1,%ecx
    46e3:	e9 88 f5 ff ff       	jmpq   3c70 <_ZN6db_avlI9list_nodeI6recordEE9search_gtEP8avl_nodeIS2_ERKS0_I7commandE+0x7d0>
    46e8:	48 85 c0             	test   %rax,%rax
    46eb:	0f 9e c0             	setle  %al
    46ee:	0f b6 c0             	movzbl %al,%eax
    46f1:	01 c8                	add    %ecx,%eax
    46f3:	e9 08 f5 ff ff       	jmpq   3c00 <_ZN6db_avlI9list_nodeI6recordEE9search_gtEP8avl_nodeIS2_ERKS0_I7commandE+0x760>
    46f8:	48 85 c0             	test   %rax,%rax
    46fb:	0f 9f c0             	setg   %al
    46fe:	0f b6 c0             	movzbl %al,%eax
    4701:	01 c8                	add    %ecx,%eax
    4703:	e9 f8 f4 ff ff       	jmpq   3c00 <_ZN6db_avlI9list_nodeI6recordEE9search_gtEP8avl_nodeIS2_ERKS0_I7commandE+0x760>
    4708:	48 85 c0             	test   %rax,%rax
    470b:	0f 95 c0             	setne  %al
    470e:	0f b6 c0             	movzbl %al,%eax
    4711:	01 c8                	add    %ecx,%eax
    4713:	e9 e8 f4 ff ff       	jmpq   3c00 <_ZN6db_avlI9list_nodeI6recordEE9search_gtEP8avl_nodeIS2_ERKS0_I7commandE+0x760>
    4718:	48 85 c0             	test   %rax,%rax
    471b:	0f 94 c0             	sete   %al
    471e:	0f b6 c0             	movzbl %al,%eax
    4721:	01 c8                	add    %ecx,%eax
    4723:	e9 d8 f4 ff ff       	jmpq   3c00 <_ZN6db_avlI9list_nodeI6recordEE9search_gtEP8avl_nodeIS2_ERKS0_I7commandE+0x760>
    4728:	85 c9                	test   %ecx,%ecx
    472a:	0f 9e c1             	setle  %cl
    472d:	0f b6 c9             	movzbl %cl,%ecx
    4730:	e9 93 f4 ff ff       	jmpq   3bc8 <_ZN6db_avlI9list_nodeI6recordEE9search_gtEP8avl_nodeIS2_ERKS0_I7commandE+0x728>
    4735:	85 c9                	test   %ecx,%ecx
    4737:	0f 9f c1             	setg   %cl
    473a:	0f b6 c9             	movzbl %cl,%ecx
    473d:	e9 86 f4 ff ff       	jmpq   3bc8 <_ZN6db_avlI9list_nodeI6recordEE9search_gtEP8avl_nodeIS2_ERKS0_I7commandE+0x728>
    4742:	85 c9                	test   %ecx,%ecx
    4744:	0f 95 c1             	setne  %cl
    4747:	0f b6 c9             	movzbl %cl,%ecx
    474a:	e9 79 f4 ff ff       	jmpq   3bc8 <_ZN6db_avlI9list_nodeI6recordEE9search_gtEP8avl_nodeIS2_ERKS0_I7commandE+0x728>
    474f:	85 c9                	test   %ecx,%ecx
    4751:	0f 94 c1             	sete   %cl
    4754:	0f b6 c9             	movzbl %cl,%ecx
    4757:	e9 6c f4 ff ff       	jmpq   3bc8 <_ZN6db_avlI9list_nodeI6recordEE9search_gtEP8avl_nodeIS2_ERKS0_I7commandE+0x728>
    475c:	85 c9                	test   %ecx,%ecx
    475e:	0f 9e c1             	setle  %cl
    4761:	0f b6 c9             	movzbl %cl,%ecx
    4764:	e9 17 f9 ff ff       	jmpq   4080 <_ZN6db_avlI9list_nodeI6recordEE9search_gtEP8avl_nodeIS2_ERKS0_I7commandE+0xbe0>
    4769:	48 85 c0             	test   %rax,%rax
    476c:	0f 9e c0             	setle  %al
    476f:	0f b6 c0             	movzbl %al,%eax
    4772:	01 c8                	add    %ecx,%eax
