
a.out:     file format elf64-x86-64


Disassembly of section .init:

0000000000000c28 <_init>:
 c28:	48 83 ec 08          	sub    $0x8,%rsp
 c2c:	48 8b 05 bd 83 20 00 	mov    0x2083bd(%rip),%rax        # 208ff0 <__gmon_start__>
 c33:	48 85 c0             	test   %rax,%rax
 c36:	74 02                	je     c3a <_init+0x12>
 c38:	ff d0                	callq  *%rax
 c3a:	48 83 c4 08          	add    $0x8,%rsp
 c3e:	c3                   	retq   

Disassembly of section .plt:

0000000000000c40 <.plt>:
 c40:	ff 35 b2 82 20 00    	pushq  0x2082b2(%rip)        # 208ef8 <_GLOBAL_OFFSET_TABLE_+0x8>
 c46:	ff 25 b4 82 20 00    	jmpq   *0x2082b4(%rip)        # 208f00 <_GLOBAL_OFFSET_TABLE_+0x10>
 c4c:	0f 1f 40 00          	nopl   0x0(%rax)

0000000000000c50 <__printf_chk@plt>:
 c50:	ff 25 b2 82 20 00    	jmpq   *0x2082b2(%rip)        # 208f08 <__printf_chk@GLIBC_2.3.4>
 c56:	68 00 00 00 00       	pushq  $0x0
 c5b:	e9 e0 ff ff ff       	jmpq   c40 <.plt>

0000000000000c60 <_Znam@plt>:
 c60:	ff 25 aa 82 20 00    	jmpq   *0x2082aa(%rip)        # 208f10 <_Znam@GLIBCXX_3.4>
 c66:	68 01 00 00 00       	pushq  $0x1
 c6b:	e9 d0 ff ff ff       	jmpq   c40 <.plt>

0000000000000c70 <__stpcpy_chk@plt>:
 c70:	ff 25 a2 82 20 00    	jmpq   *0x2082a2(%rip)        # 208f18 <__stpcpy_chk@GLIBC_2.3.4>
 c76:	68 02 00 00 00       	pushq  $0x2
 c7b:	e9 c0 ff ff ff       	jmpq   c40 <.plt>

0000000000000c80 <strchr@plt>:
 c80:	ff 25 9a 82 20 00    	jmpq   *0x20829a(%rip)        # 208f20 <strchr@GLIBC_2.2.5>
 c86:	68 03 00 00 00       	pushq  $0x3
 c8b:	e9 b0 ff ff ff       	jmpq   c40 <.plt>

0000000000000c90 <strlen@plt>:
 c90:	ff 25 92 82 20 00    	jmpq   *0x208292(%rip)        # 208f28 <strlen@GLIBC_2.2.5>
 c96:	68 04 00 00 00       	pushq  $0x4
 c9b:	e9 a0 ff ff ff       	jmpq   c40 <.plt>

0000000000000ca0 <memset@plt>:
 ca0:	ff 25 8a 82 20 00    	jmpq   *0x20828a(%rip)        # 208f30 <memset@GLIBC_2.2.5>
 ca6:	68 05 00 00 00       	pushq  $0x5
 cab:	e9 90 ff ff ff       	jmpq   c40 <.plt>

0000000000000cb0 <__assert_fail@plt>:
 cb0:	ff 25 82 82 20 00    	jmpq   *0x208282(%rip)        # 208f38 <__assert_fail@GLIBC_2.2.5>
 cb6:	68 06 00 00 00       	pushq  $0x6
 cbb:	e9 80 ff ff ff       	jmpq   c40 <.plt>

0000000000000cc0 <clock@plt>:
 cc0:	ff 25 7a 82 20 00    	jmpq   *0x20827a(%rip)        # 208f40 <clock@GLIBC_2.2.5>
 cc6:	68 07 00 00 00       	pushq  $0x7
 ccb:	e9 70 ff ff ff       	jmpq   c40 <.plt>

0000000000000cd0 <strtod@plt>:
 cd0:	ff 25 72 82 20 00    	jmpq   *0x208272(%rip)        # 208f48 <strtod@GLIBC_2.2.5>
 cd6:	68 08 00 00 00       	pushq  $0x8
 cdb:	e9 60 ff ff ff       	jmpq   c40 <.plt>

0000000000000ce0 <memcpy@plt>:
 ce0:	ff 25 6a 82 20 00    	jmpq   *0x20826a(%rip)        # 208f50 <memcpy@GLIBC_2.14>
 ce6:	68 09 00 00 00       	pushq  $0x9
 ceb:	e9 50 ff ff ff       	jmpq   c40 <.plt>

0000000000000cf0 <__strcpy_chk@plt>:
 cf0:	ff 25 62 82 20 00    	jmpq   *0x208262(%rip)        # 208f58 <__strcpy_chk@GLIBC_2.3.4>
 cf6:	68 0a 00 00 00       	pushq  $0xa
 cfb:	e9 40 ff ff ff       	jmpq   c40 <.plt>

0000000000000d00 <strcpy@plt>:
 d00:	ff 25 5a 82 20 00    	jmpq   *0x20825a(%rip)        # 208f60 <strcpy@GLIBC_2.2.5>
 d06:	68 0b 00 00 00       	pushq  $0xb
 d0b:	e9 30 ff ff ff       	jmpq   c40 <.plt>

0000000000000d10 <fclose@plt>:
 d10:	ff 25 52 82 20 00    	jmpq   *0x208252(%rip)        # 208f68 <fclose@GLIBC_2.2.5>
 d16:	68 0c 00 00 00       	pushq  $0xc
 d1b:	e9 20 ff ff ff       	jmpq   c40 <.plt>

0000000000000d20 <_Znwm@plt>:
 d20:	ff 25 4a 82 20 00    	jmpq   *0x20824a(%rip)        # 208f70 <_Znwm@GLIBCXX_3.4>
 d26:	68 0d 00 00 00       	pushq  $0xd
 d2b:	e9 10 ff ff ff       	jmpq   c40 <.plt>

0000000000000d30 <_ZdlPvm@plt>:
 d30:	ff 25 42 82 20 00    	jmpq   *0x208242(%rip)        # 208f78 <_ZdlPvm@CXXABI_1.3.9>
 d36:	68 0e 00 00 00       	pushq  $0xe
 d3b:	e9 00 ff ff ff       	jmpq   c40 <.plt>

0000000000000d40 <strrchr@plt>:
 d40:	ff 25 3a 82 20 00    	jmpq   *0x20823a(%rip)        # 208f80 <strrchr@GLIBC_2.2.5>
 d46:	68 0f 00 00 00       	pushq  $0xf
 d4b:	e9 f0 fe ff ff       	jmpq   c40 <.plt>

0000000000000d50 <__stack_chk_fail@plt>:
 d50:	ff 25 32 82 20 00    	jmpq   *0x208232(%rip)        # 208f88 <__stack_chk_fail@GLIBC_2.4>
 d56:	68 10 00 00 00       	pushq  $0x10
 d5b:	e9 e0 fe ff ff       	jmpq   c40 <.plt>

0000000000000d60 <fopen@plt>:
 d60:	ff 25 2a 82 20 00    	jmpq   *0x20822a(%rip)        # 208f90 <fopen@GLIBC_2.2.5>
 d66:	68 11 00 00 00       	pushq  $0x11
 d6b:	e9 d0 fe ff ff       	jmpq   c40 <.plt>

0000000000000d70 <_ZdaPv@plt>:
 d70:	ff 25 22 82 20 00    	jmpq   *0x208222(%rip)        # 208f98 <_ZdaPv@GLIBCXX_3.4>
 d76:	68 12 00 00 00       	pushq  $0x12
 d7b:	e9 c0 fe ff ff       	jmpq   c40 <.plt>

0000000000000d80 <strcmp@plt>:
 d80:	ff 25 1a 82 20 00    	jmpq   *0x20821a(%rip)        # 208fa0 <strcmp@GLIBC_2.2.5>
 d86:	68 13 00 00 00       	pushq  $0x13
 d8b:	e9 b0 fe ff ff       	jmpq   c40 <.plt>

0000000000000d90 <strtol@plt>:
 d90:	ff 25 12 82 20 00    	jmpq   *0x208212(%rip)        # 208fa8 <strtol@GLIBC_2.2.5>
 d96:	68 14 00 00 00       	pushq  $0x14
 d9b:	e9 a0 fe ff ff       	jmpq   c40 <.plt>

0000000000000da0 <puts@plt>:
 da0:	ff 25 0a 82 20 00    	jmpq   *0x20820a(%rip)        # 208fb0 <puts@GLIBC_2.2.5>
 da6:	68 15 00 00 00       	pushq  $0x15
 dab:	e9 90 fe ff ff       	jmpq   c40 <.plt>

0000000000000db0 <fgets@plt>:
 db0:	ff 25 02 82 20 00    	jmpq   *0x208202(%rip)        # 208fb8 <fgets@GLIBC_2.2.5>
 db6:	68 16 00 00 00       	pushq  $0x16
 dbb:	e9 80 fe ff ff       	jmpq   c40 <.plt>

0000000000000dc0 <__memcpy_chk@plt>:
 dc0:	ff 25 fa 81 20 00    	jmpq   *0x2081fa(%rip)        # 208fc0 <__memcpy_chk@GLIBC_2.3.4>
 dc6:	68 17 00 00 00       	pushq  $0x17
 dcb:	e9 70 fe ff ff       	jmpq   c40 <.plt>

0000000000000dd0 <_Unwind_Resume@plt>:
 dd0:	ff 25 f2 81 20 00    	jmpq   *0x2081f2(%rip)        # 208fc8 <_Unwind_Resume@GCC_3.0>
 dd6:	68 18 00 00 00       	pushq  $0x18
 ddb:	e9 60 fe ff ff       	jmpq   c40 <.plt>

0000000000000de0 <fscanf@plt>:
 de0:	ff 25 ea 81 20 00    	jmpq   *0x2081ea(%rip)        # 208fd0 <fscanf@GLIBC_2.2.5>
 de6:	68 19 00 00 00       	pushq  $0x19
 deb:	e9 50 fe ff ff       	jmpq   c40 <.plt>

Disassembly of section .plt.got:

0000000000000df0 <__cxa_finalize@plt>:
 df0:	ff 25 e2 81 20 00    	jmpq   *0x2081e2(%rip)        # 208fd8 <__cxa_finalize@GLIBC_2.2.5>
 df6:	66 90                	xchg   %ax,%ax

Disassembly of section .text:

0000000000000e00 <main>:
     e00:	41 54                	push   %r12
     e02:	55                   	push   %rbp
     e03:	48 89 f5             	mov    %rsi,%rbp
     e06:	53                   	push   %rbx
     e07:	89 fb                	mov    %edi,%ebx
     e09:	bf 20 00 00 00       	mov    $0x20,%edi
     e0e:	48 83 ec 50          	sub    $0x50,%rsp
     e12:	64 48 8b 04 25 28 00 	mov    %fs:0x28,%rax
     e19:	00 00 
     e1b:	48 89 44 24 48       	mov    %rax,0x48(%rsp)
     e20:	31 c0                	xor    %eax,%eax
     e22:	48 c7 44 24 08 00 00 	movq   $0x0,0x8(%rsp)
     e29:	00 00 
     e2b:	48 c7 04 24 00 00 00 	movq   $0x0,(%rsp)
     e32:	00 
     e33:	c7 44 24 10 00 00 00 	movl   $0x0,0x10(%rsp)
     e3a:	00 
     e3b:	c7 44 24 30 00 00 00 	movl   $0x0,0x30(%rsp)
     e42:	00 
     e43:	48 c7 44 24 20 00 00 	movq   $0x0,0x20(%rsp)
     e4a:	00 00 
     e4c:	48 c7 44 24 18 00 00 	movq   $0x0,0x18(%rsp)
     e53:	00 00 
     e55:	e8 c6 fe ff ff       	callq  d20 <_Znwm@plt>
     e5a:	83 fb 01             	cmp    $0x1,%ebx
     e5d:	48 c7 40 10 00 00 00 	movq   $0x0,0x10(%rax)
     e64:	00 
     e65:	48 c7 40 08 00 00 00 	movq   $0x0,0x8(%rax)
     e6c:	00 
     e6d:	c7 40 18 00 00 00 00 	movl   $0x0,0x18(%rax)
     e74:	48 c7 00 00 00 00 00 	movq   $0x0,(%rax)
     e7b:	48 89 44 24 28       	mov    %rax,0x28(%rsp)
     e80:	c7 44 24 30 00 00 00 	movl   $0x0,0x30(%rsp)
     e87:	00 
     e88:	7e 3f                	jle    ec9 <main+0xc9>
     e8a:	e8 31 fe ff ff       	callq  cc0 <clock@plt>
     e8f:	48 8b 75 08          	mov    0x8(%rbp),%rsi
     e93:	48 89 e3             	mov    %rsp,%rbx
     e96:	48 89 df             	mov    %rbx,%rdi
     e99:	e8 c2 15 00 00       	callq  2460 <_ZN8DatabaseI6recordE14init_from_fileEPKc>
     e9e:	48 89 df             	mov    %rbx,%rdi
     ea1:	e8 7a 3b 00 00       	callq  4a20 <_ZN8DatabaseI6recordE9run_shellEv>
     ea6:	48 89 df             	mov    %rbx,%rdi
     ea9:	e8 42 0d 00 00       	callq  1bf0 <_ZN8DatabaseI6recordED1Ev>
     eae:	31 c0                	xor    %eax,%eax
     eb0:	48 8b 54 24 48       	mov    0x48(%rsp),%rdx
     eb5:	64 48 33 14 25 28 00 	xor    %fs:0x28,%rdx
     ebc:	00 00 
     ebe:	75 0e                	jne    ece <main+0xce>
     ec0:	48 83 c4 50          	add    $0x50,%rsp
     ec4:	5b                   	pop    %rbx
     ec5:	5d                   	pop    %rbp
     ec6:	41 5c                	pop    %r12
     ec8:	c3                   	retq   
     ec9:	48 89 e3             	mov    %rsp,%rbx
     ecc:	eb d0                	jmp    e9e <main+0x9e>
     ece:	e8 7d fe ff ff       	callq  d50 <__stack_chk_fail@plt>
     ed3:	48 8b 1c 24          	mov    (%rsp),%rbx
     ed7:	48 89 c5             	mov    %rax,%rbp
     eda:	48 85 db             	test   %rbx,%rbx
     edd:	74 3e                	je     f1d <main+0x11d>
     edf:	48 8b 3b             	mov    (%rbx),%rdi
     ee2:	4c 8b 63 20          	mov    0x20(%rbx),%r12
     ee6:	48 c7 43 28 00 00 00 	movq   $0x0,0x28(%rbx)
     eed:	00 
     eee:	48 c7 43 20 00 00 00 	movq   $0x0,0x20(%rbx)
     ef5:	00 
     ef6:	48 85 ff             	test   %rdi,%rdi
     ef9:	74 05                	je     f00 <main+0x100>
     efb:	e8 70 fe ff ff       	callq  d70 <_ZdaPv@plt>
     f00:	48 89 df             	mov    %rbx,%rdi
     f03:	be 30 00 00 00       	mov    $0x30,%esi
     f08:	4c 89 e3             	mov    %r12,%rbx
     f0b:	e8 20 fe ff ff       	callq  d30 <_ZdlPvm@plt>
     f10:	eb c8                	jmp    eda <main+0xda>
     f12:	48 89 df             	mov    %rbx,%rdi
     f15:	48 89 c5             	mov    %rax,%rbp
     f18:	e8 d3 0c 00 00       	callq  1bf0 <_ZN8DatabaseI6recordED1Ev>
     f1d:	48 89 ef             	mov    %rbp,%rdi
     f20:	e8 ab fe ff ff       	callq  dd0 <_Unwind_Resume@plt>
     f25:	66 2e 0f 1f 84 00 00 	nopw   %cs:0x0(%rax,%rax,1)
     f2c:	00 00 00 
     f2f:	90                   	nop

0000000000000f30 <_start>:
     f30:	31 ed                	xor    %ebp,%ebp
     f32:	49 89 d1             	mov    %rdx,%r9
     f35:	5e                   	pop    %rsi
     f36:	48 89 e2             	mov    %rsp,%rdx
     f39:	48 83 e4 f0          	and    $0xfffffffffffffff0,%rsp
     f3d:	50                   	push   %rax
     f3e:	54                   	push   %rsp
     f3f:	4c 8d 05 aa 6b 00 00 	lea    0x6baa(%rip),%r8        # 7af0 <__libc_csu_fini>
     f46:	48 8d 0d 33 6b 00 00 	lea    0x6b33(%rip),%rcx        # 7a80 <__libc_csu_init>
     f4d:	48 8d 3d ac fe ff ff 	lea    -0x154(%rip),%rdi        # e00 <main>
     f54:	ff 15 8e 80 20 00    	callq  *0x20808e(%rip)        # 208fe8 <__libc_start_main@GLIBC_2.2.5>
     f5a:	f4                   	hlt    
     f5b:	0f 1f 44 00 00       	nopl   0x0(%rax,%rax,1)

0000000000000f60 <deregister_tm_clones>:
     f60:	48 8d 3d b1 80 20 00 	lea    0x2080b1(%rip),%rdi        # 209018 <__TMC_END__>
     f67:	55                   	push   %rbp
     f68:	48 8d 05 a9 80 20 00 	lea    0x2080a9(%rip),%rax        # 209018 <__TMC_END__>
     f6f:	48 39 f8             	cmp    %rdi,%rax
     f72:	48 89 e5             	mov    %rsp,%rbp
     f75:	74 19                	je     f90 <deregister_tm_clones+0x30>
     f77:	48 8b 05 62 80 20 00 	mov    0x208062(%rip),%rax        # 208fe0 <_ITM_deregisterTMCloneTable>
     f7e:	48 85 c0             	test   %rax,%rax
     f81:	74 0d                	je     f90 <deregister_tm_clones+0x30>
     f83:	5d                   	pop    %rbp
     f84:	ff e0                	jmpq   *%rax
     f86:	66 2e 0f 1f 84 00 00 	nopw   %cs:0x0(%rax,%rax,1)
     f8d:	00 00 00 
     f90:	5d                   	pop    %rbp
     f91:	c3                   	retq   
     f92:	0f 1f 40 00          	nopl   0x0(%rax)
     f96:	66 2e 0f 1f 84 00 00 	nopw   %cs:0x0(%rax,%rax,1)
     f9d:	00 00 00 

0000000000000fa0 <register_tm_clones>:
     fa0:	48 8d 3d 71 80 20 00 	lea    0x208071(%rip),%rdi        # 209018 <__TMC_END__>
     fa7:	48 8d 35 6a 80 20 00 	lea    0x20806a(%rip),%rsi        # 209018 <__TMC_END__>
     fae:	55                   	push   %rbp
     faf:	48 29 fe             	sub    %rdi,%rsi
     fb2:	48 89 e5             	mov    %rsp,%rbp
     fb5:	48 c1 fe 03          	sar    $0x3,%rsi
     fb9:	48 89 f0             	mov    %rsi,%rax
     fbc:	48 c1 e8 3f          	shr    $0x3f,%rax
     fc0:	48 01 c6             	add    %rax,%rsi
     fc3:	48 d1 fe             	sar    %rsi
     fc6:	74 18                	je     fe0 <register_tm_clones+0x40>
     fc8:	48 8b 05 29 80 20 00 	mov    0x208029(%rip),%rax        # 208ff8 <_ITM_registerTMCloneTable>
     fcf:	48 85 c0             	test   %rax,%rax
     fd2:	74 0c                	je     fe0 <register_tm_clones+0x40>
     fd4:	5d                   	pop    %rbp
     fd5:	ff e0                	jmpq   *%rax
     fd7:	66 0f 1f 84 00 00 00 	nopw   0x0(%rax,%rax,1)
     fde:	00 00 
     fe0:	5d                   	pop    %rbp
     fe1:	c3                   	retq   
     fe2:	0f 1f 40 00          	nopl   0x0(%rax)
     fe6:	66 2e 0f 1f 84 00 00 	nopw   %cs:0x0(%rax,%rax,1)
     fed:	00 00 00 

0000000000000ff0 <__do_global_dtors_aux>:
     ff0:	80 3d 31 80 20 00 00 	cmpb   $0x0,0x208031(%rip)        # 209028 <completed.7696>
     ff7:	75 2f                	jne    1028 <__do_global_dtors_aux+0x38>
     ff9:	48 83 3d d7 7f 20 00 	cmpq   $0x0,0x207fd7(%rip)        # 208fd8 <__cxa_finalize@GLIBC_2.2.5>
    1000:	00 
    1001:	55                   	push   %rbp
    1002:	48 89 e5             	mov    %rsp,%rbp
    1005:	74 0c                	je     1013 <__do_global_dtors_aux+0x23>
    1007:	48 8b 3d fa 7f 20 00 	mov    0x207ffa(%rip),%rdi        # 209008 <__dso_handle>
    100e:	e8 dd fd ff ff       	callq  df0 <__cxa_finalize@plt>
    1013:	e8 48 ff ff ff       	callq  f60 <deregister_tm_clones>
    1018:	c6 05 09 80 20 00 01 	movb   $0x1,0x208009(%rip)        # 209028 <completed.7696>
    101f:	5d                   	pop    %rbp
    1020:	c3                   	retq   
    1021:	0f 1f 80 00 00 00 00 	nopl   0x0(%rax)
    1028:	f3 c3                	repz retq 
    102a:	66 0f 1f 44 00 00    	nopw   0x0(%rax,%rax,1)

0000000000001030 <frame_dummy>:
    1030:	55                   	push   %rbp
    1031:	48 89 e5             	mov    %rsp,%rbp
    1034:	5d                   	pop    %rbp
    1035:	e9 66 ff ff ff       	jmpq   fa0 <register_tm_clones>
    103a:	66 0f 1f 44 00 00    	nopw   0x0(%rax,%rax,1)

0000000000001040 <_Z7task_6mPKciS0_i>:
    1040:	41 55                	push   %r13
    1042:	41 54                	push   %r12
    1044:	49 89 fc             	mov    %rdi,%r12
    1047:	55                   	push   %rbp
    1048:	53                   	push   %rbx
    1049:	48 89 d3             	mov    %rdx,%rbx
    104c:	89 f5                	mov    %esi,%ebp
    104e:	ba b0 04 00 00       	mov    $0x4b0,%edx
    1053:	48 89 de             	mov    %rbx,%rsi
    1056:	48 81 ec c8 04 00 00 	sub    $0x4c8,%rsp
    105d:	4c 63 e9             	movslq %ecx,%r13
    1060:	49 89 e0             	mov    %rsp,%r8
    1063:	4c 89 c7             	mov    %r8,%rdi
    1066:	64 48 8b 04 25 28 00 	mov    %fs:0x28,%rax
    106d:	00 00 
    106f:	48 89 84 24 b8 04 00 	mov    %rax,0x4b8(%rsp)
    1076:	00 
    1077:	31 c0                	xor    %eax,%eax
    1079:	e8 72 fc ff ff       	callq  cf0 <__strcpy_chk@plt>
    107e:	85 ed                	test   %ebp,%ebp
    1080:	42 c6 04 2c 00       	movb   $0x0,(%rsp,%r13,1)
    1085:	0f 8e c9 00 00 00    	jle    1154 <_Z7task_6mPKciS0_i+0x114>
    108b:	49 89 c0             	mov    %rax,%r8
    108e:	31 c9                	xor    %ecx,%ecx
    1090:	31 d2                	xor    %edx,%edx
    1092:	66 0f 1f 44 00 00    	nopw   0x0(%rax,%rax,1)
    1098:	48 63 c2             	movslq %edx,%rax
    109b:	48 63 f9             	movslq %ecx,%rdi
    109e:	31 f6                	xor    %esi,%esi
    10a0:	4d 8d 1c 00          	lea    (%r8,%rax,1),%r11
    10a4:	8d 41 01             	lea    0x1(%rcx),%eax
    10a7:	4c 01 e7             	add    %r12,%rdi
    10aa:	44 8d 0c 31          	lea    (%rcx,%rsi,1),%r9d
    10ae:	29 d0                	sub    %edx,%eax
    10b0:	41 89 c2             	mov    %eax,%r10d
    10b3:	0f b6 04 37          	movzbl (%rdi,%rsi,1),%eax
    10b7:	3c 5c                	cmp    $0x5c,%al
    10b9:	74 2e                	je     10e9 <_Z7task_6mPKciS0_i+0xa9>
    10bb:	3c 5f                	cmp    $0x5f,%al
    10bd:	45 0f b6 0c 33       	movzbl (%r11,%rsi,1),%r9d
    10c2:	74 74                	je     1138 <_Z7task_6mPKciS0_i+0xf8>
    10c4:	44 38 c8             	cmp    %r9b,%al
    10c7:	0f 85 83 00 00 00    	jne    1150 <_Z7task_6mPKciS0_i+0x110>
    10cd:	8d 42 01             	lea    0x1(%rdx),%eax
    10d0:	44 01 d2             	add    %r10d,%edx
    10d3:	39 ea                	cmp    %ebp,%edx
    10d5:	7d 70                	jge    1147 <_Z7task_6mPKciS0_i+0x107>
    10d7:	48 83 c6 01          	add    $0x1,%rsi
    10db:	89 c2                	mov    %eax,%edx
    10dd:	0f b6 04 37          	movzbl (%rdi,%rsi,1),%eax
    10e1:	44 8d 0c 31          	lea    (%rcx,%rsi,1),%r9d
    10e5:	3c 5c                	cmp    $0x5c,%al
    10e7:	75 d2                	jne    10bb <_Z7task_6mPKciS0_i+0x7b>
    10e9:	41 8d 49 01          	lea    0x1(%r9),%ecx
    10ed:	39 cd                	cmp    %ecx,%ebp
    10ef:	7e 1b                	jle    110c <_Z7task_6mPKciS0_i+0xcc>
    10f1:	48 63 c2             	movslq %edx,%rax
    10f4:	48 63 c9             	movslq %ecx,%rcx
    10f7:	0f b6 04 04          	movzbl (%rsp,%rax,1),%eax
    10fb:	41 38 04 0c          	cmp    %al,(%r12,%rcx,1)
    10ff:	75 4f                	jne    1150 <_Z7task_6mPKciS0_i+0x110>
    1101:	41 8d 49 02          	lea    0x2(%r9),%ecx
    1105:	83 c2 01             	add    $0x1,%edx
    1108:	39 cd                	cmp    %ecx,%ebp
    110a:	7f 8c                	jg     1098 <_Z7task_6mPKciS0_i+0x58>
    110c:	48 63 d2             	movslq %edx,%rdx
    110f:	48 8d 04 13          	lea    (%rbx,%rdx,1),%rax
    1113:	48 8b 9c 24 b8 04 00 	mov    0x4b8(%rsp),%rbx
    111a:	00 
    111b:	64 48 33 1c 25 28 00 	xor    %fs:0x28,%rbx
    1122:	00 00 
    1124:	75 33                	jne    1159 <_Z7task_6mPKciS0_i+0x119>
    1126:	48 81 c4 c8 04 00 00 	add    $0x4c8,%rsp
    112d:	5b                   	pop    %rbx
    112e:	5d                   	pop    %rbp
    112f:	41 5c                	pop    %r12
    1131:	41 5d                	pop    %r13
    1133:	c3                   	retq   
    1134:	0f 1f 40 00          	nopl   0x0(%rax)
    1138:	45 84 c9             	test   %r9b,%r9b
    113b:	74 13                	je     1150 <_Z7task_6mPKciS0_i+0x110>
    113d:	8d 42 01             	lea    0x1(%rdx),%eax
    1140:	44 01 d2             	add    %r10d,%edx
    1143:	39 d5                	cmp    %edx,%ebp
    1145:	7f 90                	jg     10d7 <_Z7task_6mPKciS0_i+0x97>
    1147:	48 98                	cltq   
    1149:	48 01 d8             	add    %rbx,%rax
    114c:	eb c5                	jmp    1113 <_Z7task_6mPKciS0_i+0xd3>
    114e:	66 90                	xchg   %ax,%ax
    1150:	31 c0                	xor    %eax,%eax
    1152:	eb bf                	jmp    1113 <_Z7task_6mPKciS0_i+0xd3>
    1154:	48 89 d8             	mov    %rbx,%rax
    1157:	eb ba                	jmp    1113 <_Z7task_6mPKciS0_i+0xd3>
    1159:	e8 f2 fb ff ff       	callq  d50 <__stack_chk_fail@plt>
    115e:	66 90                	xchg   %ax,%ax

0000000000001160 <_Z15find_first_nextPKciS0_iPS0_>:
    1160:	85 c9                	test   %ecx,%ecx
    1162:	7e 7c                	jle    11e0 <_Z15find_first_nextPKciS0_iPS0_+0x80>
    1164:	41 57                	push   %r15
    1166:	8d 41 ff             	lea    -0x1(%rcx),%eax
    1169:	41 56                	push   %r14
    116b:	41 55                	push   %r13
    116d:	41 54                	push   %r12
    116f:	4d 89 c5             	mov    %r8,%r13
    1172:	55                   	push   %rbp
    1173:	53                   	push   %rbx
    1174:	89 cd                	mov    %ecx,%ebp
    1176:	41 89 f6             	mov    %esi,%r14d
    1179:	49 89 fc             	mov    %rdi,%r12
    117c:	48 89 d3             	mov    %rdx,%rbx
    117f:	48 83 ec 08          	sub    $0x8,%rsp
    1183:	4c 8d 7c 02 01       	lea    0x1(%rdx,%rax,1),%r15
    1188:	eb 0f                	jmp    1199 <_Z15find_first_nextPKciS0_iPS0_+0x39>
    118a:	66 0f 1f 44 00 00    	nopw   0x0(%rax,%rax,1)
    1190:	48 83 c3 01          	add    $0x1,%rbx
    1194:	4c 39 fb             	cmp    %r15,%rbx
    1197:	74 2f                	je     11c8 <_Z15find_first_nextPKciS0_iPS0_+0x68>
    1199:	89 e9                	mov    %ebp,%ecx
    119b:	48 89 da             	mov    %rbx,%rdx
    119e:	44 89 f6             	mov    %r14d,%esi
    11a1:	4c 89 e7             	mov    %r12,%rdi
    11a4:	e8 97 fe ff ff       	callq  1040 <_Z7task_6mPKciS0_i>
    11a9:	48 85 c0             	test   %rax,%rax
    11ac:	74 e2                	je     1190 <_Z15find_first_nextPKciS0_iPS0_+0x30>
    11ae:	49 89 5d 00          	mov    %rbx,0x0(%r13)
    11b2:	48 83 c4 08          	add    $0x8,%rsp
    11b6:	5b                   	pop    %rbx
    11b7:	5d                   	pop    %rbp
    11b8:	41 5c                	pop    %r12
    11ba:	41 5d                	pop    %r13
    11bc:	41 5e                	pop    %r14
    11be:	41 5f                	pop    %r15
    11c0:	c3                   	retq   
    11c1:	0f 1f 80 00 00 00 00 	nopl   0x0(%rax)
    11c8:	48 83 c4 08          	add    $0x8,%rsp
    11cc:	31 c0                	xor    %eax,%eax
    11ce:	5b                   	pop    %rbx
    11cf:	5d                   	pop    %rbp
    11d0:	41 5c                	pop    %r12
    11d2:	41 5d                	pop    %r13
    11d4:	41 5e                	pop    %r14
    11d6:	41 5f                	pop    %r15
    11d8:	c3                   	retq   
    11d9:	0f 1f 80 00 00 00 00 	nopl   0x0(%rax)
    11e0:	31 c0                	xor    %eax,%eax
    11e2:	c3                   	retq   
    11e3:	0f 1f 00             	nopl   (%rax)
    11e6:	66 2e 0f 1f 84 00 00 	nopw   %cs:0x0(%rax,%rax,1)
    11ed:	00 00 00 

00000000000011f0 <_Z14find_last_nextPKciS0_iPS0_>:
    11f0:	89 c8                	mov    %ecx,%eax
    11f2:	29 f0                	sub    %esi,%eax
    11f4:	78 7a                	js     1270 <_Z14find_last_nextPKciS0_iPS0_+0x80>
    11f6:	41 57                	push   %r15
    11f8:	41 56                	push   %r14
    11fa:	48 98                	cltq   
    11fc:	41 55                	push   %r13
    11fe:	41 54                	push   %r12
    1200:	4c 8d 74 02 01       	lea    0x1(%rdx,%rax,1),%r14
    1205:	55                   	push   %rbp
    1206:	53                   	push   %rbx
    1207:	4d 89 c5             	mov    %r8,%r13
    120a:	89 cd                	mov    %ecx,%ebp
    120c:	89 f3                	mov    %esi,%ebx
    120e:	49 89 fc             	mov    %rdi,%r12
    1211:	48 83 ec 18          	sub    $0x18,%rsp
    1215:	49 89 d7             	mov    %rdx,%r15
    1218:	48 c7 44 24 08 00 00 	movq   $0x0,0x8(%rsp)
    121f:	00 00 
    1221:	0f 1f 80 00 00 00 00 	nopl   0x0(%rax)
    1228:	89 e9                	mov    %ebp,%ecx
    122a:	4c 89 fa             	mov    %r15,%rdx
    122d:	89 de                	mov    %ebx,%esi
    122f:	4c 89 e7             	mov    %r12,%rdi
    1232:	e8 09 fe ff ff       	callq  1040 <_Z7task_6mPKciS0_i>
    1237:	48 85 c0             	test   %rax,%rax
    123a:	74 14                	je     1250 <_Z14find_last_nextPKciS0_iPS0_+0x60>
    123c:	4d 89 7d 00          	mov    %r15,0x0(%r13)
    1240:	49 83 c7 01          	add    $0x1,%r15
    1244:	4d 39 f7             	cmp    %r14,%r15
    1247:	74 15                	je     125e <_Z14find_last_nextPKciS0_iPS0_+0x6e>
    1249:	48 89 44 24 08       	mov    %rax,0x8(%rsp)
    124e:	eb d8                	jmp    1228 <_Z14find_last_nextPKciS0_iPS0_+0x38>
    1250:	49 83 c7 01          	add    $0x1,%r15
    1254:	4d 39 f7             	cmp    %r14,%r15
    1257:	75 cf                	jne    1228 <_Z14find_last_nextPKciS0_iPS0_+0x38>
    1259:	48 8b 44 24 08       	mov    0x8(%rsp),%rax
    125e:	48 83 c4 18          	add    $0x18,%rsp
    1262:	5b                   	pop    %rbx
    1263:	5d                   	pop    %rbp
    1264:	41 5c                	pop    %r12
    1266:	41 5d                	pop    %r13
    1268:	41 5e                	pop    %r14
    126a:	41 5f                	pop    %r15
    126c:	c3                   	retq   
    126d:	0f 1f 00             	nopl   (%rax)
    1270:	31 c0                	xor    %eax,%eax
    1272:	c3                   	retq   
    1273:	0f 1f 00             	nopl   (%rax)
    1276:	66 2e 0f 1f 84 00 00 	nopw   %cs:0x0(%rax,%rax,1)
    127d:	00 00 00 

0000000000001280 <_Z11isProtectedPKcS0_>:
    1280:	48 8d 56 ff          	lea    -0x1(%rsi),%rdx
    1284:	48 39 fa             	cmp    %rdi,%rdx
    1287:	72 2f                	jb     12b8 <_Z11isProtectedPKcS0_+0x38>
    1289:	48 83 ef 01          	sub    $0x1,%rdi
    128d:	31 c0                	xor    %eax,%eax
    128f:	80 7e ff 5c          	cmpb   $0x5c,-0x1(%rsi)
    1293:	74 10                	je     12a5 <_Z11isProtectedPKcS0_+0x25>
    1295:	eb 21                	jmp    12b8 <_Z11isProtectedPKcS0_+0x38>
    1297:	66 0f 1f 84 00 00 00 	nopw   0x0(%rax,%rax,1)
    129e:	00 00 
    12a0:	80 3a 5c             	cmpb   $0x5c,(%rdx)
    12a3:	75 0c                	jne    12b1 <_Z11isProtectedPKcS0_+0x31>
    12a5:	48 83 ea 01          	sub    $0x1,%rdx
    12a9:	83 c0 01             	add    $0x1,%eax
    12ac:	48 39 d7             	cmp    %rdx,%rdi
    12af:	75 ef                	jne    12a0 <_Z11isProtectedPKcS0_+0x20>
    12b1:	83 e0 01             	and    $0x1,%eax
    12b4:	c3                   	retq   
    12b5:	0f 1f 00             	nopl   (%rax)
    12b8:	31 c0                	xor    %eax,%eax
    12ba:	c3                   	retq   
    12bb:	0f 1f 44 00 00       	nopl   0x0(%rax,%rax,1)

00000000000012c0 <_Z13isUnprotectedPKcS0_>:
    12c0:	48 8d 56 ff          	lea    -0x1(%rsi),%rdx
    12c4:	48 39 d7             	cmp    %rdx,%rdi
    12c7:	77 37                	ja     1300 <_Z13isUnprotectedPKcS0_+0x40>
    12c9:	48 83 ef 01          	sub    $0x1,%rdi
    12cd:	31 c0                	xor    %eax,%eax
    12cf:	80 7e ff 5c          	cmpb   $0x5c,-0x1(%rsi)
    12d3:	74 10                	je     12e5 <_Z13isUnprotectedPKcS0_+0x25>
    12d5:	eb 29                	jmp    1300 <_Z13isUnprotectedPKcS0_+0x40>
    12d7:	66 0f 1f 84 00 00 00 	nopw   0x0(%rax,%rax,1)
    12de:	00 00 
    12e0:	80 3a 5c             	cmpb   $0x5c,(%rdx)
    12e3:	75 0c                	jne    12f1 <_Z13isUnprotectedPKcS0_+0x31>
    12e5:	48 83 ea 01          	sub    $0x1,%rdx
    12e9:	83 c0 01             	add    $0x1,%eax
    12ec:	48 39 fa             	cmp    %rdi,%rdx
    12ef:	75 ef                	jne    12e0 <_Z13isUnprotectedPKcS0_+0x20>
    12f1:	f7 d0                	not    %eax
    12f3:	83 e0 01             	and    $0x1,%eax
    12f6:	c3                   	retq   
    12f7:	66 0f 1f 84 00 00 00 	nopw   0x0(%rax,%rax,1)
    12fe:	00 00 
    1300:	b8 01 00 00 00       	mov    $0x1,%eax
    1305:	c3                   	retq   
    1306:	66 2e 0f 1f 84 00 00 	nopw   %cs:0x0(%rax,%rax,1)
    130d:	00 00 00 

0000000000001310 <_Z4likePKcS0_>:
    1310:	41 57                	push   %r15
    1312:	41 56                	push   %r14
    1314:	ba b0 04 00 00       	mov    $0x4b0,%edx
    1319:	41 55                	push   %r13
    131b:	41 54                	push   %r12
    131d:	49 89 fe             	mov    %rdi,%r14
    1320:	55                   	push   %rbp
    1321:	53                   	push   %rbx
    1322:	48 81 ec 88 0e 00 00 	sub    $0xe88,%rsp
    1329:	4c 8d 7c 24 60       	lea    0x60(%rsp),%r15
    132e:	48 89 7c 24 28       	mov    %rdi,0x28(%rsp)
    1333:	64 48 8b 04 25 28 00 	mov    %fs:0x28,%rax
    133a:	00 00 
    133c:	48 89 84 24 78 0e 00 	mov    %rax,0xe78(%rsp)
    1343:	00 
    1344:	31 c0                	xor    %eax,%eax
    1346:	4c 89 ff             	mov    %r15,%rdi
    1349:	4c 89 7c 24 20       	mov    %r15,0x20(%rsp)
    134e:	e8 1d f9 ff ff       	callq  c70 <__stpcpy_chk@plt>
    1353:	4c 89 f7             	mov    %r14,%rdi
    1356:	4c 29 f8             	sub    %r15,%rax
    1359:	48 89 c3             	mov    %rax,%rbx
    135c:	e8 2f f9 ff ff       	callq  c90 <strlen@plt>
    1361:	85 c0                	test   %eax,%eax
    1363:	0f 8e 27 06 00 00    	jle    1990 <_Z4likePKcS0_+0x680>
    1369:	4c 8b 6c 24 20       	mov    0x20(%rsp),%r13
    136e:	48 8d bc 24 10 05 00 	lea    0x510(%rsp),%rdi
    1375:	00 
    1376:	48 8d 53 01          	lea    0x1(%rbx),%rdx
    137a:	b9 b0 04 00 00       	mov    $0x4b0,%ecx
    137f:	48 63 db             	movslq %ebx,%rbx
    1382:	48 89 c5             	mov    %rax,%rbp
    1385:	48 89 7c 24 40       	mov    %rdi,0x40(%rsp)
    138a:	48 63 ed             	movslq %ebp,%rbp
    138d:	4c 89 ee             	mov    %r13,%rsi
    1390:	e8 2b fa ff ff       	callq  dc0 <__memcpy_chk@plt>
    1395:	49 8d 44 1d 00       	lea    0x0(%r13,%rbx,1),%rax
    139a:	48 8b 7c 24 28       	mov    0x28(%rsp),%rdi
    139f:	49 8d 5c 1d ff       	lea    -0x1(%r13,%rbx,1),%rbx
    13a4:	48 89 44 24 50       	mov    %rax,0x50(%rsp)
    13a9:	48 89 e8             	mov    %rbp,%rax
    13ac:	48 89 1c 24          	mov    %rbx,(%rsp)
    13b0:	48 01 f8             	add    %rdi,%rax
    13b3:	4c 39 eb             	cmp    %r13,%rbx
    13b6:	48 89 44 24 58       	mov    %rax,0x58(%rsp)
    13bb:	0f 82 51 05 00 00    	jb     1912 <_Z4likePKcS0_+0x602>
    13c1:	48 89 44 24 30       	mov    %rax,0x30(%rsp)
    13c6:	48 89 7c 24 08       	mov    %rdi,0x8(%rsp)
    13cb:	48 8d ac 24 c0 09 00 	lea    0x9c0(%rsp),%rbp
    13d2:	00 
    13d3:	48 89 44 24 10       	mov    %rax,0x10(%rsp)
    13d8:	c7 44 24 38 01 00 00 	movl   $0x1,0x38(%rsp)
    13df:	00 
    13e0:	c6 44 24 3f 00       	movb   $0x0,0x3f(%rsp)
    13e5:	c6 44 24 3e 00       	movb   $0x0,0x3e(%rsp)
    13ea:	eb 26                	jmp    1412 <_Z4likePKcS0_+0x102>
    13ec:	0f 1f 40 00          	nopl   0x0(%rax)
    13f0:	41 80 7d 00 25       	cmpb   $0x25,0x0(%r13)
    13f5:	0f 85 7d 02 00 00    	jne    1678 <_Z4likePKcS0_+0x368>
    13fb:	49 83 c5 01          	add    $0x1,%r13
    13ff:	c6 44 24 3e 01       	movb   $0x1,0x3e(%rsp)
    1404:	f7 5c 24 38          	negl   0x38(%rsp)
    1408:	4c 39 2c 24          	cmp    %r13,(%rsp)
    140c:	0f 82 1b 02 00 00    	jb     162d <_Z4likePKcS0_+0x31d>
    1412:	83 7c 24 38 01       	cmpl   $0x1,0x38(%rsp)
    1417:	74 d7                	je     13f0 <_Z4likePKcS0_+0xe0>
    1419:	48 8b 04 24          	mov    (%rsp),%rax
    141d:	80 38 25             	cmpb   $0x25,(%rax)
    1420:	0f 84 45 04 00 00    	je     186b <_Z4likePKcS0_+0x55b>
    1426:	4c 8b 34 24          	mov    (%rsp),%r14
    142a:	48 8b 5c 24 20       	mov    0x20(%rsp),%rbx
    142f:	be 25 00 00 00       	mov    $0x25,%esi
    1434:	4c 8b 64 24 40       	mov    0x40(%rsp),%r12
    1439:	49 29 de             	sub    %rbx,%r14
    143c:	4c 89 e7             	mov    %r12,%rdi
    143f:	42 c6 84 34 10 05 00 	movb   $0x0,0x510(%rsp,%r14,1)
    1446:	00 00 
    1448:	e8 f3 f8 ff ff       	callq  d40 <strrchr@plt>
    144d:	48 85 c0             	test   %rax,%rax
    1450:	0f 84 b4 04 00 00    	je     190a <_Z4likePKcS0_+0x5fa>
    1456:	66 2e 0f 1f 84 00 00 	nopw   %cs:0x0(%rax,%rax,1)
    145d:	00 00 00 
    1460:	48 8d 50 ff          	lea    -0x1(%rax),%rdx
    1464:	48 39 da             	cmp    %rbx,%rdx
    1467:	0f 82 e3 03 00 00    	jb     1850 <_Z4likePKcS0_+0x540>
    146d:	80 78 ff 5c          	cmpb   $0x5c,-0x1(%rax)
    1471:	0f 85 d9 03 00 00    	jne    1850 <_Z4likePKcS0_+0x540>
    1477:	31 c9                	xor    %ecx,%ecx
    1479:	0f 1f 80 00 00 00 00 	nopl   0x0(%rax)
    1480:	48 83 ea 01          	sub    $0x1,%rdx
    1484:	83 c1 01             	add    $0x1,%ecx
    1487:	80 3a 5c             	cmpb   $0x5c,(%rdx)
    148a:	74 f4                	je     1480 <_Z4likePKcS0_+0x170>
    148c:	83 e1 01             	and    $0x1,%ecx
    148f:	0f 84 bb 03 00 00    	je     1850 <_Z4likePKcS0_+0x540>
    1495:	c6 00 00             	movb   $0x0,(%rax)
    1498:	be 25 00 00 00       	mov    $0x25,%esi
    149d:	4c 89 e7             	mov    %r12,%rdi
    14a0:	e8 9b f8 ff ff       	callq  d40 <strrchr@plt>
    14a5:	48 85 c0             	test   %rax,%rax
    14a8:	75 b6                	jne    1460 <_Z4likePKcS0_+0x150>
    14aa:	4c 8b 7c 24 20       	mov    0x20(%rsp),%r15
    14af:	48 8b 44 24 10       	mov    0x10(%rsp),%rax
    14b4:	48 8b 7c 24 08       	mov    0x8(%rsp),%rdi
    14b9:	41 83 c6 01          	add    $0x1,%r14d
    14bd:	48 29 f8             	sub    %rdi,%rax
    14c0:	89 c2                	mov    %eax,%edx
    14c2:	44 29 f2             	sub    %r14d,%edx
    14c5:	0f 88 1f 03 00 00    	js     17ea <_Z4likePKcS0_+0x4da>
    14cb:	48 63 d2             	movslq %edx,%rdx
    14ce:	48 89 fb             	mov    %rdi,%rbx
    14d1:	48 98                	cltq   
    14d3:	48 8d 7c 17 01       	lea    0x1(%rdi,%rdx,1),%rdi
    14d8:	48 01 e8             	add    %rbp,%rax
    14db:	4c 89 6c 24 48       	mov    %r13,0x48(%rsp)
    14e0:	48 c7 44 24 18 00 00 	movq   $0x0,0x18(%rsp)
    14e7:	00 00 
    14e9:	49 89 dd             	mov    %rbx,%r13
    14ec:	45 31 e4             	xor    %r12d,%r12d
    14ef:	48 89 3c 24          	mov    %rdi,(%rsp)
    14f3:	48 89 c3             	mov    %rax,%rbx
    14f6:	66 2e 0f 1f 84 00 00 	nopw   %cs:0x0(%rax,%rax,1)
    14fd:	00 00 00 
    1500:	ba b0 04 00 00       	mov    $0x4b0,%edx
    1505:	4c 89 ee             	mov    %r13,%rsi
    1508:	48 89 ef             	mov    %rbp,%rdi
    150b:	e8 e0 f7 ff ff       	callq  cf0 <__strcpy_chk@plt>
    1510:	45 85 f6             	test   %r14d,%r14d
    1513:	c6 03 00             	movb   $0x0,(%rbx)
    1516:	0f 8e e6 03 00 00    	jle    1902 <_Z4likePKcS0_+0x5f2>
    151c:	31 d2                	xor    %edx,%edx
    151e:	31 c0                	xor    %eax,%eax
    1520:	48 63 f8             	movslq %eax,%rdi
    1523:	31 f6                	xor    %esi,%esi
    1525:	8d 4a 01             	lea    0x1(%rdx),%ecx
    1528:	4c 01 ff             	add    %r15,%rdi
    152b:	4c 63 c2             	movslq %edx,%r8
    152e:	44 0f b6 0c 37       	movzbl (%rdi,%rsi,1),%r9d
    1533:	29 c1                	sub    %eax,%ecx
    1535:	49 01 e8             	add    %rbp,%r8
    1538:	41 89 ca             	mov    %ecx,%r10d
    153b:	8d 0c 32             	lea    (%rdx,%rsi,1),%ecx
    153e:	41 80 f9 5c          	cmp    $0x5c,%r9b
    1542:	74 36                	je     157a <_Z4likePKcS0_+0x26a>
    1544:	41 80 f9 5f          	cmp    $0x5f,%r9b
    1548:	41 0f b6 0c 30       	movzbl (%r8,%rsi,1),%ecx
    154d:	0f 84 fd 00 00 00    	je     1650 <_Z4likePKcS0_+0x340>
    1553:	41 38 c9             	cmp    %cl,%r9b
    1556:	75 64                	jne    15bc <_Z4likePKcS0_+0x2ac>
    1558:	41 8d 0c 02          	lea    (%r10,%rax,1),%ecx
    155c:	83 c0 01             	add    $0x1,%eax
    155f:	41 39 c6             	cmp    %eax,%r14d
    1562:	0f 8e 00 01 00 00    	jle    1668 <_Z4likePKcS0_+0x358>
    1568:	48 83 c6 01          	add    $0x1,%rsi
    156c:	44 0f b6 0c 37       	movzbl (%rdi,%rsi,1),%r9d
    1571:	8d 0c 32             	lea    (%rdx,%rsi,1),%ecx
    1574:	41 80 f9 5c          	cmp    $0x5c,%r9b
    1578:	75 ca                	jne    1544 <_Z4likePKcS0_+0x234>
    157a:	8d 50 01             	lea    0x1(%rax),%edx
    157d:	41 39 d6             	cmp    %edx,%r14d
    1580:	0f 8e e2 00 00 00    	jle    1668 <_Z4likePKcS0_+0x358>
    1586:	48 63 f1             	movslq %ecx,%rsi
    1589:	48 63 d2             	movslq %edx,%rdx
    158c:	0f b6 bc 34 c0 09 00 	movzbl 0x9c0(%rsp,%rsi,1),%edi
    1593:	00 
    1594:	41 38 3c 17          	cmp    %dil,(%r15,%rdx,1)
    1598:	75 22                	jne    15bc <_Z4likePKcS0_+0x2ac>
    159a:	83 c0 02             	add    $0x2,%eax
    159d:	8d 51 01             	lea    0x1(%rcx),%edx
    15a0:	41 39 c6             	cmp    %eax,%r14d
    15a3:	0f 8f 77 ff ff ff    	jg     1520 <_Z4likePKcS0_+0x210>
    15a9:	48 63 c2             	movslq %edx,%rax
    15ac:	4c 01 e8             	add    %r13,%rax
    15af:	48 85 c0             	test   %rax,%rax
    15b2:	74 08                	je     15bc <_Z4likePKcS0_+0x2ac>
    15b4:	4c 89 6c 24 18       	mov    %r13,0x18(%rsp)
    15b9:	49 89 c4             	mov    %rax,%r12
    15bc:	49 83 c5 01          	add    $0x1,%r13
    15c0:	4c 39 2c 24          	cmp    %r13,(%rsp)
    15c4:	0f 85 36 ff ff ff    	jne    1500 <_Z4likePKcS0_+0x1f0>
    15ca:	4d 85 e4             	test   %r12,%r12
    15cd:	4c 8b 6c 24 48       	mov    0x48(%rsp),%r13
    15d2:	0f 84 12 02 00 00    	je     17ea <_Z4likePKcS0_+0x4da>
    15d8:	4c 3b 64 24 30       	cmp    0x30(%rsp),%r12
    15dd:	74 0b                	je     15ea <_Z4likePKcS0_+0x2da>
    15df:	80 7c 24 3f 00       	cmpb   $0x0,0x3f(%rsp)
    15e4:	0f 84 00 02 00 00    	je     17ea <_Z4likePKcS0_+0x4da>
    15ea:	4c 3b 64 24 10       	cmp    0x10(%rsp),%r12
    15ef:	0f 87 f5 01 00 00    	ja     17ea <_Z4likePKcS0_+0x4da>
    15f5:	48 8b 44 24 18       	mov    0x18(%rsp),%rax
    15fa:	48 8b 5c 24 08       	mov    0x8(%rsp),%rbx
    15ff:	48 39 d8             	cmp    %rbx,%rax
    1602:	0f 82 e2 01 00 00    	jb     17ea <_Z4likePKcS0_+0x4da>
    1608:	49 8d 5f fe          	lea    -0x2(%r15),%rbx
    160c:	f7 5c 24 38          	negl   0x38(%rsp)
    1610:	4c 89 64 24 30       	mov    %r12,0x30(%rsp)
    1615:	48 89 44 24 10       	mov    %rax,0x10(%rsp)
    161a:	c6 44 24 3f 01       	movb   $0x1,0x3f(%rsp)
    161f:	48 89 1c 24          	mov    %rbx,(%rsp)
    1623:	4c 39 2c 24          	cmp    %r13,(%rsp)
    1627:	0f 83 e5 fd ff ff    	jae    1412 <_Z4likePKcS0_+0x102>
    162d:	48 8b 5c 24 58       	mov    0x58(%rsp),%rbx
    1632:	48 39 5c 24 10       	cmp    %rbx,0x10(%rsp)
    1637:	0f 84 e9 02 00 00    	je     1926 <_Z4likePKcS0_+0x616>
    163d:	b8 01 00 00 00       	mov    $0x1,%eax
    1642:	e9 a5 01 00 00       	jmpq   17ec <_Z4likePKcS0_+0x4dc>
    1647:	66 0f 1f 84 00 00 00 	nopw   0x0(%rax,%rax,1)
    164e:	00 00 
    1650:	84 c9                	test   %cl,%cl
    1652:	0f 84 64 ff ff ff    	je     15bc <_Z4likePKcS0_+0x2ac>
    1658:	41 8d 0c 02          	lea    (%r10,%rax,1),%ecx
    165c:	83 c0 01             	add    $0x1,%eax
    165f:	41 39 c6             	cmp    %eax,%r14d
    1662:	0f 8f 00 ff ff ff    	jg     1568 <_Z4likePKcS0_+0x258>
    1668:	48 63 c1             	movslq %ecx,%rax
    166b:	4c 01 e8             	add    %r13,%rax
    166e:	e9 3c ff ff ff       	jmpq   15af <_Z4likePKcS0_+0x29f>
    1673:	0f 1f 44 00 00       	nopl   0x0(%rax,%rax,1)
    1678:	be 25 00 00 00       	mov    $0x25,%esi
    167d:	4c 89 ef             	mov    %r13,%rdi
    1680:	e8 fb f5 ff ff       	callq  c80 <strchr@plt>
    1685:	48 85 c0             	test   %rax,%rax
    1688:	74 53                	je     16dd <_Z4likePKcS0_+0x3cd>
    168a:	49 8d 5d ff          	lea    -0x1(%r13),%rbx
    168e:	66 90                	xchg   %ax,%ax
    1690:	48 8d 50 ff          	lea    -0x1(%rax),%rdx
    1694:	49 39 d5             	cmp    %rdx,%r13
    1697:	0f 87 a3 01 00 00    	ja     1840 <_Z4likePKcS0_+0x530>
    169d:	80 78 ff 5c          	cmpb   $0x5c,-0x1(%rax)
    16a1:	0f 85 99 01 00 00    	jne    1840 <_Z4likePKcS0_+0x530>
    16a7:	31 c9                	xor    %ecx,%ecx
    16a9:	eb 0a                	jmp    16b5 <_Z4likePKcS0_+0x3a5>
    16ab:	0f 1f 44 00 00       	nopl   0x0(%rax,%rax,1)
    16b0:	80 3a 5c             	cmpb   $0x5c,(%rdx)
    16b3:	75 0c                	jne    16c1 <_Z4likePKcS0_+0x3b1>
    16b5:	48 83 ea 01          	sub    $0x1,%rdx
    16b9:	83 c1 01             	add    $0x1,%ecx
    16bc:	48 39 da             	cmp    %rbx,%rdx
    16bf:	75 ef                	jne    16b0 <_Z4likePKcS0_+0x3a0>
    16c1:	83 e1 01             	and    $0x1,%ecx
    16c4:	0f 84 76 01 00 00    	je     1840 <_Z4likePKcS0_+0x530>
    16ca:	48 8d 78 01          	lea    0x1(%rax),%rdi
    16ce:	be 25 00 00 00       	mov    $0x25,%esi
    16d3:	e8 a8 f5 ff ff       	callq  c80 <strchr@plt>
    16d8:	48 85 c0             	test   %rax,%rax
    16db:	75 b3                	jne    1690 <_Z4likePKcS0_+0x380>
    16dd:	4c 8b 7c 24 50       	mov    0x50(%rsp),%r15
    16e2:	48 8b 44 24 10       	mov    0x10(%rsp),%rax
    16e7:	48 2b 44 24 08       	sub    0x8(%rsp),%rax
    16ec:	45 89 fe             	mov    %r15d,%r14d
    16ef:	45 29 ee             	sub    %r13d,%r14d
    16f2:	85 c0                	test   %eax,%eax
    16f4:	0f 8e f0 00 00 00    	jle    17ea <_Z4likePKcS0_+0x4da>
    16fa:	48 8b 7c 24 08       	mov    0x8(%rsp),%rdi
    16ff:	48 63 d8             	movslq %eax,%rbx
    1702:	83 e8 01             	sub    $0x1,%eax
    1705:	48 01 eb             	add    %rbp,%rbx
    1708:	49 89 e8             	mov    %rbp,%r8
    170b:	4c 89 ed             	mov    %r13,%rbp
    170e:	48 8d 44 07 01       	lea    0x1(%rdi,%rax,1),%rax
    1713:	49 89 fc             	mov    %rdi,%r12
    1716:	49 89 c5             	mov    %rax,%r13
    1719:	0f 1f 80 00 00 00 00 	nopl   0x0(%rax)
    1720:	4c 89 c7             	mov    %r8,%rdi
    1723:	ba b0 04 00 00       	mov    $0x4b0,%edx
    1728:	4c 89 e6             	mov    %r12,%rsi
    172b:	e8 c0 f5 ff ff       	callq  cf0 <__strcpy_chk@plt>
    1730:	45 85 f6             	test   %r14d,%r14d
    1733:	49 89 c0             	mov    %rax,%r8
    1736:	c6 03 00             	movb   $0x0,(%rbx)
    1739:	0f 8e 7d 01 00 00    	jle    18bc <_Z4likePKcS0_+0x5ac>
    173f:	31 d2                	xor    %edx,%edx
    1741:	31 c0                	xor    %eax,%eax
    1743:	0f 1f 44 00 00       	nopl   0x0(%rax,%rax,1)
    1748:	48 63 f8             	movslq %eax,%rdi
    174b:	31 f6                	xor    %esi,%esi
    174d:	8d 4a 01             	lea    0x1(%rdx),%ecx
    1750:	48 01 ef             	add    %rbp,%rdi
    1753:	4c 63 ca             	movslq %edx,%r9
    1756:	44 0f b6 14 37       	movzbl (%rdi,%rsi,1),%r10d
    175b:	29 c1                	sub    %eax,%ecx
    175d:	4d 01 c1             	add    %r8,%r9
    1760:	41 89 cb             	mov    %ecx,%r11d
    1763:	8d 0c 32             	lea    (%rdx,%rsi,1),%ecx
    1766:	41 80 fa 5c          	cmp    $0x5c,%r10b
    176a:	74 36                	je     17a2 <_Z4likePKcS0_+0x492>
    176c:	41 80 fa 5f          	cmp    $0x5f,%r10b
    1770:	41 0f b6 0c 31       	movzbl (%r9,%rsi,1),%ecx
    1775:	0f 84 9d 00 00 00    	je     1818 <_Z4likePKcS0_+0x508>
    177b:	41 38 ca             	cmp    %cl,%r10b
    177e:	75 5d                	jne    17dd <_Z4likePKcS0_+0x4cd>
    1780:	41 8d 0c 03          	lea    (%r11,%rax,1),%ecx
    1784:	83 c0 01             	add    $0x1,%eax
    1787:	41 39 c6             	cmp    %eax,%r14d
    178a:	0f 8e 9c 00 00 00    	jle    182c <_Z4likePKcS0_+0x51c>
    1790:	48 83 c6 01          	add    $0x1,%rsi
    1794:	44 0f b6 14 37       	movzbl (%rdi,%rsi,1),%r10d
    1799:	8d 0c 32             	lea    (%rdx,%rsi,1),%ecx
    179c:	41 80 fa 5c          	cmp    $0x5c,%r10b
    17a0:	75 ca                	jne    176c <_Z4likePKcS0_+0x45c>
    17a2:	8d 50 01             	lea    0x1(%rax),%edx
    17a5:	41 39 d6             	cmp    %edx,%r14d
    17a8:	0f 8e 7e 00 00 00    	jle    182c <_Z4likePKcS0_+0x51c>
    17ae:	48 63 f1             	movslq %ecx,%rsi
    17b1:	48 63 d2             	movslq %edx,%rdx
    17b4:	0f b6 bc 34 c0 09 00 	movzbl 0x9c0(%rsp,%rsi,1),%edi
    17bb:	00 
    17bc:	40 38 7c 15 00       	cmp    %dil,0x0(%rbp,%rdx,1)
    17c1:	75 1a                	jne    17dd <_Z4likePKcS0_+0x4cd>
    17c3:	83 c0 02             	add    $0x2,%eax
    17c6:	8d 51 01             	lea    0x1(%rcx),%edx
    17c9:	41 39 c6             	cmp    %eax,%r14d
    17cc:	0f 8f 76 ff ff ff    	jg     1748 <_Z4likePKcS0_+0x438>
    17d2:	48 63 d2             	movslq %edx,%rdx
    17d5:	4c 01 e2             	add    %r12,%rdx
    17d8:	48 85 d2             	test   %rdx,%rdx
    17db:	75 5a                	jne    1837 <_Z4likePKcS0_+0x527>
    17dd:	49 83 c4 01          	add    $0x1,%r12
    17e1:	4d 39 e5             	cmp    %r12,%r13
    17e4:	0f 85 36 ff ff ff    	jne    1720 <_Z4likePKcS0_+0x410>
    17ea:	31 c0                	xor    %eax,%eax
    17ec:	48 8b 9c 24 78 0e 00 	mov    0xe78(%rsp),%rbx
    17f3:	00 
    17f4:	64 48 33 1c 25 28 00 	xor    %fs:0x28,%rbx
    17fb:	00 00 
    17fd:	0f 85 ac 01 00 00    	jne    19af <_Z4likePKcS0_+0x69f>
    1803:	48 81 c4 88 0e 00 00 	add    $0xe88,%rsp
    180a:	5b                   	pop    %rbx
    180b:	5d                   	pop    %rbp
    180c:	41 5c                	pop    %r12
    180e:	41 5d                	pop    %r13
    1810:	41 5e                	pop    %r14
    1812:	41 5f                	pop    %r15
    1814:	c3                   	retq   
    1815:	0f 1f 00             	nopl   (%rax)
    1818:	84 c9                	test   %cl,%cl
    181a:	74 c1                	je     17dd <_Z4likePKcS0_+0x4cd>
    181c:	41 8d 0c 03          	lea    (%r11,%rax,1),%ecx
    1820:	83 c0 01             	add    $0x1,%eax
    1823:	41 39 c6             	cmp    %eax,%r14d
    1826:	0f 8f 64 ff ff ff    	jg     1790 <_Z4likePKcS0_+0x480>
    182c:	48 63 d1             	movslq %ecx,%rdx
    182f:	4c 01 e2             	add    %r12,%rdx
    1832:	48 85 d2             	test   %rdx,%rdx
    1835:	74 a6                	je     17dd <_Z4likePKcS0_+0x4cd>
    1837:	4c 89 c5             	mov    %r8,%rbp
    183a:	e9 83 00 00 00       	jmpq   18c2 <_Z4likePKcS0_+0x5b2>
    183f:	90                   	nop
    1840:	49 89 c7             	mov    %rax,%r15
    1843:	e9 9a fe ff ff       	jmpq   16e2 <_Z4likePKcS0_+0x3d2>
    1848:	0f 1f 84 00 00 00 00 	nopl   0x0(%rax,%rax,1)
    184f:	00 
    1850:	48 2b 44 24 40       	sub    0x40(%rsp),%rax
    1855:	48 8b 5c 24 20       	mov    0x20(%rsp),%rbx
    185a:	4c 8b 34 24          	mov    (%rsp),%r14
    185e:	4c 8d 7c 03 01       	lea    0x1(%rbx,%rax,1),%r15
    1863:	4d 29 fe             	sub    %r15,%r14
    1866:	e9 44 fc ff ff       	jmpq   14af <_Z4likePKcS0_+0x19f>
    186b:	48 8d 70 ff          	lea    -0x1(%rax),%rsi
    186f:	49 39 f5             	cmp    %rsi,%r13
    1872:	0f 87 b5 fd ff ff    	ja     162d <_Z4likePKcS0_+0x31d>
    1878:	80 78 ff 5c          	cmpb   $0x5c,-0x1(%rax)
    187c:	75 2c                	jne    18aa <_Z4likePKcS0_+0x59a>
    187e:	49 8d 4d ff          	lea    -0x1(%r13),%rcx
    1882:	48 89 f0             	mov    %rsi,%rax
    1885:	31 d2                	xor    %edx,%edx
    1887:	eb 0c                	jmp    1895 <_Z4likePKcS0_+0x585>
    1889:	0f 1f 80 00 00 00 00 	nopl   0x0(%rax)
    1890:	80 38 5c             	cmpb   $0x5c,(%rax)
    1893:	75 0c                	jne    18a1 <_Z4likePKcS0_+0x591>
    1895:	48 83 e8 01          	sub    $0x1,%rax
    1899:	83 c2 01             	add    $0x1,%edx
    189c:	48 39 c1             	cmp    %rax,%rcx
    189f:	75 ef                	jne    1890 <_Z4likePKcS0_+0x580>
    18a1:	83 e2 01             	and    $0x1,%edx
    18a4:	0f 85 7c fb ff ff    	jne    1426 <_Z4likePKcS0_+0x116>
    18aa:	f7 5c 24 38          	negl   0x38(%rsp)
    18ae:	48 89 34 24          	mov    %rsi,(%rsp)
    18b2:	c6 44 24 3f 01       	movb   $0x1,0x3f(%rsp)
    18b7:	e9 56 fb ff ff       	jmpq   1412 <_Z4likePKcS0_+0x102>
    18bc:	48 89 c5             	mov    %rax,%rbp
    18bf:	4c 89 e2             	mov    %r12,%rdx
    18c2:	4c 39 64 24 28       	cmp    %r12,0x28(%rsp)
    18c7:	74 0b                	je     18d4 <_Z4likePKcS0_+0x5c4>
    18c9:	80 7c 24 3e 00       	cmpb   $0x0,0x3e(%rsp)
    18ce:	0f 84 16 ff ff ff    	je     17ea <_Z4likePKcS0_+0x4da>
    18d4:	48 3b 54 24 10       	cmp    0x10(%rsp),%rdx
    18d9:	0f 87 0b ff ff ff    	ja     17ea <_Z4likePKcS0_+0x4da>
    18df:	4c 39 64 24 08       	cmp    %r12,0x8(%rsp)
    18e4:	0f 87 00 ff ff ff    	ja     17ea <_Z4likePKcS0_+0x4da>
    18ea:	4d 8d 6f 01          	lea    0x1(%r15),%r13
    18ee:	48 89 54 24 08       	mov    %rdx,0x8(%rsp)
    18f3:	4c 89 64 24 28       	mov    %r12,0x28(%rsp)
    18f8:	c6 44 24 3e 01       	movb   $0x1,0x3e(%rsp)
    18fd:	e9 02 fb ff ff       	jmpq   1404 <_Z4likePKcS0_+0xf4>
    1902:	4c 89 e8             	mov    %r13,%rax
    1905:	e9 aa fc ff ff       	jmpq   15b4 <_Z4likePKcS0_+0x2a4>
    190a:	49 89 df             	mov    %rbx,%r15
    190d:	e9 9d fb ff ff       	jmpq   14af <_Z4likePKcS0_+0x19f>
    1912:	48 8b 44 24 58       	mov    0x58(%rsp),%rax
    1917:	48 89 44 24 10       	mov    %rax,0x10(%rsp)
    191c:	48 8b 44 24 28       	mov    0x28(%rsp),%rax
    1921:	48 89 44 24 08       	mov    %rax,0x8(%rsp)
    1926:	48 8b 44 24 50       	mov    0x50(%rsp),%rax
    192b:	48 8d 48 fe          	lea    -0x2(%rax),%rcx
    192f:	48 3b 4c 24 20       	cmp    0x20(%rsp),%rcx
    1934:	72 4a                	jb     1980 <_Z4likePKcS0_+0x670>
    1936:	80 78 fe 5c          	cmpb   $0x5c,-0x2(%rax)
    193a:	75 44                	jne    1980 <_Z4likePKcS0_+0x670>
    193c:	48 8d 54 24 5f       	lea    0x5f(%rsp),%rdx
    1941:	48 c7 c0 ff ff ff ff 	mov    $0xffffffffffffffff,%rax
    1948:	48 29 ca             	sub    %rcx,%rdx
    194b:	eb 0b                	jmp    1958 <_Z4likePKcS0_+0x648>
    194d:	48 83 e8 01          	sub    $0x1,%rax
    1951:	80 7c 01 01 5c       	cmpb   $0x5c,0x1(%rcx,%rax,1)
    1956:	75 09                	jne    1961 <_Z4likePKcS0_+0x651>
    1958:	89 c6                	mov    %eax,%esi
    195a:	f7 de                	neg    %esi
    195c:	48 39 d0             	cmp    %rdx,%rax
    195f:	75 ec                	jne    194d <_Z4likePKcS0_+0x63d>
    1961:	83 e6 01             	and    $0x1,%esi
    1964:	74 1a                	je     1980 <_Z4likePKcS0_+0x670>
    1966:	48 8b 5c 24 08       	mov    0x8(%rsp),%rbx
    196b:	48 39 5c 24 10       	cmp    %rbx,0x10(%rsp)
    1970:	0f 87 74 fe ff ff    	ja     17ea <_Z4likePKcS0_+0x4da>
    1976:	e9 c2 fc ff ff       	jmpq   163d <_Z4likePKcS0_+0x32d>
    197b:	0f 1f 44 00 00       	nopl   0x0(%rax,%rax,1)
    1980:	48 8b 44 24 50       	mov    0x50(%rsp),%rax
    1985:	80 78 ff 25          	cmpb   $0x25,-0x1(%rax)
    1989:	75 db                	jne    1966 <_Z4likePKcS0_+0x656>
    198b:	e9 ad fc ff ff       	jmpq   163d <_Z4likePKcS0_+0x32d>
    1990:	48 8d 0d e9 69 00 00 	lea    0x69e9(%rip),%rcx        # 8380 <_ZZ4likePKcS0_E19__PRETTY_FUNCTION__>
    1997:	48 8d 35 71 61 00 00 	lea    0x6171(%rip),%rsi        # 7b0f <_IO_stdin_used+0xf>
    199e:	48 8d 3d 71 61 00 00 	lea    0x6171(%rip),%rdi        # 7b16 <_IO_stdin_used+0x16>
    19a5:	ba 72 00 00 00       	mov    $0x72,%edx
    19aa:	e8 01 f3 ff ff       	callq  cb0 <__assert_fail@plt>
    19af:	e8 9c f3 ff ff       	callq  d50 <__stack_chk_fail@plt>
    19b4:	66 2e 0f 1f 84 00 00 	nopw   %cs:0x0(%rax,%rax,1)
    19bb:	00 00 00 
    19be:	66 90                	xchg   %ax,%ax

00000000000019c0 <_ZN8avl_treeI9list_nodeI6recordEE11delete_treeEP8avl_nodeIS2_E.part.14>:
    19c0:	41 54                	push   %r12
    19c2:	55                   	push   %rbp
    19c3:	49 89 fc             	mov    %rdi,%r12
    19c6:	53                   	push   %rbx
    19c7:	48 8b 6e 08          	mov    0x8(%rsi),%rbp
    19cb:	48 89 f3             	mov    %rsi,%rbx
    19ce:	48 85 ed             	test   %rbp,%rbp
    19d1:	75 1d                	jne    19f0 <_ZN8avl_treeI9list_nodeI6recordEE11delete_treeEP8avl_nodeIS2_E.part.14+0x30>
    19d3:	48 8b 6b 10          	mov    0x10(%rbx),%rbp
    19d7:	48 85 ed             	test   %rbp,%rbp
    19da:	75 3c                	jne    1a18 <_ZN8avl_treeI9list_nodeI6recordEE11delete_treeEP8avl_nodeIS2_E.part.14+0x58>
    19dc:	48 89 df             	mov    %rbx,%rdi
    19df:	be 20 00 00 00       	mov    $0x20,%esi
    19e4:	5b                   	pop    %rbx
    19e5:	5d                   	pop    %rbp
    19e6:	41 5c                	pop    %r12
    19e8:	e9 43 f3 ff ff       	jmpq   d30 <_ZdlPvm@plt>
    19ed:	0f 1f 00             	nopl   (%rax)
    19f0:	48 8b 75 08          	mov    0x8(%rbp),%rsi
    19f4:	48 85 f6             	test   %rsi,%rsi
    19f7:	75 47                	jne    1a40 <_ZN8avl_treeI9list_nodeI6recordEE11delete_treeEP8avl_nodeIS2_E.part.14+0x80>
    19f9:	48 8b 75 10          	mov    0x10(%rbp),%rsi
    19fd:	48 85 f6             	test   %rsi,%rsi
    1a00:	75 6e                	jne    1a70 <_ZN8avl_treeI9list_nodeI6recordEE11delete_treeEP8avl_nodeIS2_E.part.14+0xb0>
    1a02:	48 89 ef             	mov    %rbp,%rdi
    1a05:	be 20 00 00 00       	mov    $0x20,%esi
    1a0a:	e8 21 f3 ff ff       	callq  d30 <_ZdlPvm@plt>
    1a0f:	48 8b 6b 10          	mov    0x10(%rbx),%rbp
    1a13:	48 85 ed             	test   %rbp,%rbp
    1a16:	74 c4                	je     19dc <_ZN8avl_treeI9list_nodeI6recordEE11delete_treeEP8avl_nodeIS2_E.part.14+0x1c>
    1a18:	48 8b 75 08          	mov    0x8(%rbp),%rsi
    1a1c:	48 85 f6             	test   %rsi,%rsi
    1a1f:	75 3f                	jne    1a60 <_ZN8avl_treeI9list_nodeI6recordEE11delete_treeEP8avl_nodeIS2_E.part.14+0xa0>
    1a21:	48 8b 75 10          	mov    0x10(%rbp),%rsi
    1a25:	48 85 f6             	test   %rsi,%rsi
    1a28:	75 26                	jne    1a50 <_ZN8avl_treeI9list_nodeI6recordEE11delete_treeEP8avl_nodeIS2_E.part.14+0x90>
    1a2a:	be 20 00 00 00       	mov    $0x20,%esi
    1a2f:	48 89 ef             	mov    %rbp,%rdi
    1a32:	e8 f9 f2 ff ff       	callq  d30 <_ZdlPvm@plt>
    1a37:	eb a3                	jmp    19dc <_ZN8avl_treeI9list_nodeI6recordEE11delete_treeEP8avl_nodeIS2_E.part.14+0x1c>
    1a39:	0f 1f 80 00 00 00 00 	nopl   0x0(%rax)
    1a40:	e8 7b ff ff ff       	callq  19c0 <_ZN8avl_treeI9list_nodeI6recordEE11delete_treeEP8avl_nodeIS2_E.part.14>
    1a45:	eb b2                	jmp    19f9 <_ZN8avl_treeI9list_nodeI6recordEE11delete_treeEP8avl_nodeIS2_E.part.14+0x39>
    1a47:	66 0f 1f 84 00 00 00 	nopw   0x0(%rax,%rax,1)
    1a4e:	00 00 
    1a50:	4c 89 e7             	mov    %r12,%rdi
    1a53:	e8 68 ff ff ff       	callq  19c0 <_ZN8avl_treeI9list_nodeI6recordEE11delete_treeEP8avl_nodeIS2_E.part.14>
    1a58:	eb d0                	jmp    1a2a <_ZN8avl_treeI9list_nodeI6recordEE11delete_treeEP8avl_nodeIS2_E.part.14+0x6a>
    1a5a:	66 0f 1f 44 00 00    	nopw   0x0(%rax,%rax,1)
    1a60:	4c 89 e7             	mov    %r12,%rdi
    1a63:	e8 58 ff ff ff       	callq  19c0 <_ZN8avl_treeI9list_nodeI6recordEE11delete_treeEP8avl_nodeIS2_E.part.14>
    1a68:	eb b7                	jmp    1a21 <_ZN8avl_treeI9list_nodeI6recordEE11delete_treeEP8avl_nodeIS2_E.part.14+0x61>
    1a6a:	66 0f 1f 44 00 00    	nopw   0x0(%rax,%rax,1)
    1a70:	4c 89 e7             	mov    %r12,%rdi
    1a73:	e8 48 ff ff ff       	callq  19c0 <_ZN8avl_treeI9list_nodeI6recordEE11delete_treeEP8avl_nodeIS2_E.part.14>
    1a78:	eb 88                	jmp    1a02 <_ZN8avl_treeI9list_nodeI6recordEE11delete_treeEP8avl_nodeIS2_E.part.14+0x42>
    1a7a:	66 0f 1f 44 00 00    	nopw   0x0(%rax,%rax,1)

0000000000001a80 <_ZN6record4scanEP8_IO_FILE>:
    1a80:	41 56                	push   %r14
    1a82:	41 55                	push   %r13
    1a84:	41 54                	push   %r12
    1a86:	55                   	push   %rbp
    1a87:	48 89 fd             	mov    %rdi,%rbp
    1a8a:	53                   	push   %rbx
    1a8b:	48 89 f7             	mov    %rsi,%rdi
    1a8e:	48 8d 35 6f 60 00 00 	lea    0x606f(%rip),%rsi        # 7b04 <_IO_stdin_used+0x4>
    1a95:	48 81 ec d0 04 00 00 	sub    $0x4d0,%rsp
    1a9c:	48 8d 5c 24 10       	lea    0x10(%rsp),%rbx
    1aa1:	48 8d 4c 24 08       	lea    0x8(%rsp),%rcx
    1aa6:	4c 8d 44 24 04       	lea    0x4(%rsp),%r8
    1aab:	64 48 8b 04 25 28 00 	mov    %fs:0x28,%rax
    1ab2:	00 00 
    1ab4:	48 89 84 24 c8 04 00 	mov    %rax,0x4c8(%rsp)
    1abb:	00 
    1abc:	31 c0                	xor    %eax,%eax
    1abe:	48 89 da             	mov    %rbx,%rdx
    1ac1:	e8 1a f3 ff ff       	callq  de0 <fscanf@plt>
    1ac6:	31 d2                	xor    %edx,%edx
    1ac8:	83 f8 03             	cmp    $0x3,%eax
    1acb:	74 33                	je     1b00 <_ZN6record4scanEP8_IO_FILE+0x80>
    1acd:	48 8b b4 24 c8 04 00 	mov    0x4c8(%rsp),%rsi
    1ad4:	00 
    1ad5:	64 48 33 34 25 28 00 	xor    %fs:0x28,%rsi
    1adc:	00 00 
    1ade:	89 d0                	mov    %edx,%eax
    1ae0:	0f 85 03 01 00 00    	jne    1be9 <_ZN6record4scanEP8_IO_FILE+0x169>
    1ae6:	48 81 c4 d0 04 00 00 	add    $0x4d0,%rsp
    1aed:	5b                   	pop    %rbx
    1aee:	5d                   	pop    %rbp
    1aef:	41 5c                	pop    %r12
    1af1:	41 5d                	pop    %r13
    1af3:	41 5e                	pop    %r14
    1af5:	c3                   	retq   
    1af6:	66 2e 0f 1f 84 00 00 	nopw   %cs:0x0(%rax,%rax,1)
    1afd:	00 00 00 
    1b00:	48 89 da             	mov    %rbx,%rdx
    1b03:	8b 0a                	mov    (%rdx),%ecx
    1b05:	48 83 c2 04          	add    $0x4,%rdx
    1b09:	8d 81 ff fe fe fe    	lea    -0x1010101(%rcx),%eax
    1b0f:	f7 d1                	not    %ecx
    1b11:	21 c8                	and    %ecx,%eax
    1b13:	25 80 80 80 80       	and    $0x80808080,%eax
    1b18:	74 e9                	je     1b03 <_ZN6record4scanEP8_IO_FILE+0x83>
    1b1a:	89 c1                	mov    %eax,%ecx
    1b1c:	c1 e9 10             	shr    $0x10,%ecx
    1b1f:	a9 80 80 00 00       	test   $0x8080,%eax
    1b24:	0f 44 c1             	cmove  %ecx,%eax
    1b27:	48 8d 4a 02          	lea    0x2(%rdx),%rcx
    1b2b:	89 c6                	mov    %eax,%esi
    1b2d:	48 0f 44 d1          	cmove  %rcx,%rdx
    1b31:	40 00 c6             	add    %al,%sil
    1b34:	8b 4d 0c             	mov    0xc(%rbp),%ecx
    1b37:	48 83 da 03          	sbb    $0x3,%rdx
    1b3b:	48 29 da             	sub    %rbx,%rdx
    1b3e:	83 c2 01             	add    $0x1,%edx
    1b41:	89 d0                	mov    %edx,%eax
    1b43:	89 55 08             	mov    %edx,0x8(%rbp)
    1b46:	29 c8                	sub    %ecx,%eax
    1b48:	85 c0                	test   %eax,%eax
    1b4a:	7f 2c                	jg     1b78 <_ZN6record4scanEP8_IO_FILE+0xf8>
    1b4c:	4c 8b 6d 00          	mov    0x0(%rbp),%r13
    1b50:	48 89 de             	mov    %rbx,%rsi
    1b53:	4c 89 ef             	mov    %r13,%rdi
    1b56:	e8 a5 f1 ff ff       	callq  d00 <strcpy@plt>
    1b5b:	8b 44 24 04          	mov    0x4(%rsp),%eax
    1b5f:	ba 01 00 00 00       	mov    $0x1,%edx
    1b64:	89 45 18             	mov    %eax,0x18(%rbp)
    1b67:	48 8b 44 24 08       	mov    0x8(%rsp),%rax
    1b6c:	48 89 45 10          	mov    %rax,0x10(%rbp)
    1b70:	e9 58 ff ff ff       	jmpq   1acd <_ZN6record4scanEP8_IO_FILE+0x4d>
    1b75:	0f 1f 00             	nopl   (%rax)
    1b78:	81 f9 c8 00 00 00    	cmp    $0xc8,%ecx
    1b7e:	41 bc 0a 00 00 00    	mov    $0xa,%r12d
    1b84:	7e 15                	jle    1b9b <_ZN6record4scanEP8_IO_FILE+0x11b>
    1b86:	66 0f ef c0          	pxor   %xmm0,%xmm0
    1b8a:	f2 0f 2a c1          	cvtsi2sd %ecx,%xmm0
    1b8e:	f2 0f 59 05 12 68 00 	mulsd  0x6812(%rip),%xmm0        # 83a8 <_ZZ4likePKcS0_E19__PRETTY_FUNCTION__+0x28>
    1b95:	00 
    1b96:	f2 44 0f 2c e0       	cvttsd2si %xmm0,%r12d
    1b9b:	44 39 e0             	cmp    %r12d,%eax
    1b9e:	41 0f 4c c4          	cmovl  %r12d,%eax
    1ba2:	44 8d 24 08          	lea    (%rax,%rcx,1),%r12d
    1ba6:	4d 63 f4             	movslq %r12d,%r14
    1ba9:	4c 89 f7             	mov    %r14,%rdi
    1bac:	e8 af f0 ff ff       	callq  c60 <_Znam@plt>
    1bb1:	4c 89 f2             	mov    %r14,%rdx
    1bb4:	31 f6                	xor    %esi,%esi
    1bb6:	48 89 c7             	mov    %rax,%rdi
    1bb9:	49 89 c5             	mov    %rax,%r13
    1bbc:	e8 df f0 ff ff       	callq  ca0 <memset@plt>
    1bc1:	4c 8b 75 00          	mov    0x0(%rbp),%r14
    1bc5:	48 63 55 0c          	movslq 0xc(%rbp),%rdx
    1bc9:	4c 89 ef             	mov    %r13,%rdi
    1bcc:	4c 89 f6             	mov    %r14,%rsi
    1bcf:	e8 0c f1 ff ff       	callq  ce0 <memcpy@plt>
    1bd4:	4c 89 f7             	mov    %r14,%rdi
    1bd7:	e8 94 f1 ff ff       	callq  d70 <_ZdaPv@plt>
    1bdc:	44 89 65 0c          	mov    %r12d,0xc(%rbp)
    1be0:	4c 89 6d 00          	mov    %r13,0x0(%rbp)
    1be4:	e9 67 ff ff ff       	jmpq   1b50 <_ZN6record4scanEP8_IO_FILE+0xd0>
    1be9:	e8 62 f1 ff ff       	callq  d50 <__stack_chk_fail@plt>
    1bee:	66 90                	xchg   %ax,%ax

0000000000001bf0 <_ZN8DatabaseI6recordED1Ev>:
    1bf0:	41 57                	push   %r15
    1bf2:	41 56                	push   %r14
    1bf4:	41 55                	push   %r13
    1bf6:	41 54                	push   %r12
    1bf8:	55                   	push   %rbp
    1bf9:	53                   	push   %rbx
    1bfa:	48 89 fd             	mov    %rdi,%rbp
    1bfd:	48 83 ec 18          	sub    $0x18,%rsp
    1c01:	48 8b 5f 28          	mov    0x28(%rdi),%rbx
    1c05:	48 85 db             	test   %rbx,%rbx
    1c08:	74 27                	je     1c31 <_ZN8DatabaseI6recordED1Ev+0x41>
    1c0a:	4c 8b 63 08          	mov    0x8(%rbx),%r12
    1c0e:	4c 8d 6f 18          	lea    0x18(%rdi),%r13
    1c12:	4d 85 e4             	test   %r12,%r12
    1c15:	0f 85 95 00 00 00    	jne    1cb0 <_ZN8DatabaseI6recordED1Ev+0xc0>
    1c1b:	4c 8b 63 10          	mov    0x10(%rbx),%r12
    1c1f:	4d 85 e4             	test   %r12,%r12
    1c22:	75 64                	jne    1c88 <_ZN8DatabaseI6recordED1Ev+0x98>
    1c24:	be 20 00 00 00       	mov    $0x20,%esi
    1c29:	48 89 df             	mov    %rbx,%rdi
    1c2c:	e8 ff f0 ff ff       	callq  d30 <_ZdlPvm@plt>
    1c31:	48 8b 5d 00          	mov    0x0(%rbp),%rbx
    1c35:	48 85 db             	test   %rbx,%rbx
    1c38:	75 09                	jne    1c43 <_ZN8DatabaseI6recordED1Ev+0x53>
    1c3a:	eb 3a                	jmp    1c76 <_ZN8DatabaseI6recordED1Ev+0x86>
    1c3c:	0f 1f 40 00          	nopl   0x0(%rax)
    1c40:	48 89 eb             	mov    %rbp,%rbx
    1c43:	48 8b 3b             	mov    (%rbx),%rdi
    1c46:	48 8b 6b 20          	mov    0x20(%rbx),%rbp
    1c4a:	48 c7 43 28 00 00 00 	movq   $0x0,0x28(%rbx)
    1c51:	00 
    1c52:	48 c7 43 20 00 00 00 	movq   $0x0,0x20(%rbx)
    1c59:	00 
    1c5a:	48 85 ff             	test   %rdi,%rdi
    1c5d:	74 05                	je     1c64 <_ZN8DatabaseI6recordED1Ev+0x74>
    1c5f:	e8 0c f1 ff ff       	callq  d70 <_ZdaPv@plt>
    1c64:	be 30 00 00 00       	mov    $0x30,%esi
    1c69:	48 89 df             	mov    %rbx,%rdi
    1c6c:	e8 bf f0 ff ff       	callq  d30 <_ZdlPvm@plt>
    1c71:	48 85 ed             	test   %rbp,%rbp
    1c74:	75 ca                	jne    1c40 <_ZN8DatabaseI6recordED1Ev+0x50>
    1c76:	48 83 c4 18          	add    $0x18,%rsp
    1c7a:	5b                   	pop    %rbx
    1c7b:	5d                   	pop    %rbp
    1c7c:	41 5c                	pop    %r12
    1c7e:	41 5d                	pop    %r13
    1c80:	41 5e                	pop    %r14
    1c82:	41 5f                	pop    %r15
    1c84:	c3                   	retq   
    1c85:	0f 1f 00             	nopl   (%rax)
    1c88:	4d 8b 74 24 08       	mov    0x8(%r12),%r14
    1c8d:	4d 85 f6             	test   %r14,%r14
    1c90:	75 7b                	jne    1d0d <_ZN8DatabaseI6recordED1Ev+0x11d>
    1c92:	4d 8b 74 24 10       	mov    0x10(%r12),%r14
    1c97:	4d 85 f6             	test   %r14,%r14
    1c9a:	75 48                	jne    1ce4 <_ZN8DatabaseI6recordED1Ev+0xf4>
    1c9c:	be 20 00 00 00       	mov    $0x20,%esi
    1ca1:	4c 89 e7             	mov    %r12,%rdi
    1ca4:	e8 87 f0 ff ff       	callq  d30 <_ZdlPvm@plt>
    1ca9:	e9 76 ff ff ff       	jmpq   1c24 <_ZN8DatabaseI6recordED1Ev+0x34>
    1cae:	66 90                	xchg   %ax,%ax
    1cb0:	4d 8b 74 24 08       	mov    0x8(%r12),%r14
    1cb5:	4d 85 f6             	test   %r14,%r14
    1cb8:	0f 85 a7 00 00 00    	jne    1d65 <_ZN8DatabaseI6recordED1Ev+0x175>
    1cbe:	4d 8b 74 24 10       	mov    0x10(%r12),%r14
    1cc3:	4d 85 f6             	test   %r14,%r14
    1cc6:	75 71                	jne    1d39 <_ZN8DatabaseI6recordED1Ev+0x149>
    1cc8:	4c 89 e7             	mov    %r12,%rdi
    1ccb:	be 20 00 00 00       	mov    $0x20,%esi
    1cd0:	e8 5b f0 ff ff       	callq  d30 <_ZdlPvm@plt>
    1cd5:	4c 8b 63 10          	mov    0x10(%rbx),%r12
    1cd9:	4d 85 e4             	test   %r12,%r12
    1cdc:	0f 84 42 ff ff ff    	je     1c24 <_ZN8DatabaseI6recordED1Ev+0x34>
    1ce2:	eb a4                	jmp    1c88 <_ZN8DatabaseI6recordED1Ev+0x98>
    1ce4:	4d 8b 7e 08          	mov    0x8(%r14),%r15
    1ce8:	4d 85 ff             	test   %r15,%r15
    1ceb:	0f 85 be 01 00 00    	jne    1eaf <_ZN8DatabaseI6recordED1Ev+0x2bf>
    1cf1:	4d 8b 7e 10          	mov    0x10(%r14),%r15
    1cf5:	4d 85 ff             	test   %r15,%r15
    1cf8:	0f 85 8d 01 00 00    	jne    1e8b <_ZN8DatabaseI6recordED1Ev+0x29b>
    1cfe:	be 20 00 00 00       	mov    $0x20,%esi
    1d03:	4c 89 f7             	mov    %r14,%rdi
    1d06:	e8 25 f0 ff ff       	callq  d30 <_ZdlPvm@plt>
    1d0b:	eb 8f                	jmp    1c9c <_ZN8DatabaseI6recordED1Ev+0xac>
    1d0d:	4d 8b 7e 08          	mov    0x8(%r14),%r15
    1d11:	4d 85 ff             	test   %r15,%r15
    1d14:	0f 85 45 01 00 00    	jne    1e5f <_ZN8DatabaseI6recordED1Ev+0x26f>
    1d1a:	4d 8b 7e 10          	mov    0x10(%r14),%r15
    1d1e:	4d 85 ff             	test   %r15,%r15
    1d21:	0f 85 0c 01 00 00    	jne    1e33 <_ZN8DatabaseI6recordED1Ev+0x243>
    1d27:	be 20 00 00 00       	mov    $0x20,%esi
    1d2c:	4c 89 f7             	mov    %r14,%rdi
    1d2f:	e8 fc ef ff ff       	callq  d30 <_ZdlPvm@plt>
    1d34:	e9 59 ff ff ff       	jmpq   1c92 <_ZN8DatabaseI6recordED1Ev+0xa2>
    1d39:	4d 8b 7e 08          	mov    0x8(%r14),%r15
    1d3d:	4d 85 ff             	test   %r15,%r15
    1d40:	0f 85 c1 00 00 00    	jne    1e07 <_ZN8DatabaseI6recordED1Ev+0x217>
    1d46:	4d 8b 7e 10          	mov    0x10(%r14),%r15
    1d4a:	4d 85 ff             	test   %r15,%r15
    1d4d:	0f 85 88 00 00 00    	jne    1ddb <_ZN8DatabaseI6recordED1Ev+0x1eb>
    1d53:	be 20 00 00 00       	mov    $0x20,%esi
    1d58:	4c 89 f7             	mov    %r14,%rdi
    1d5b:	e8 d0 ef ff ff       	callq  d30 <_ZdlPvm@plt>
    1d60:	e9 63 ff ff ff       	jmpq   1cc8 <_ZN8DatabaseI6recordED1Ev+0xd8>
    1d65:	4d 8b 7e 08          	mov    0x8(%r14),%r15
    1d69:	4d 85 ff             	test   %r15,%r15
    1d6c:	75 44                	jne    1db2 <_ZN8DatabaseI6recordED1Ev+0x1c2>
    1d6e:	4d 8b 7e 10          	mov    0x10(%r14),%r15
    1d72:	4d 85 ff             	test   %r15,%r15
    1d75:	75 12                	jne    1d89 <_ZN8DatabaseI6recordED1Ev+0x199>
    1d77:	be 20 00 00 00       	mov    $0x20,%esi
    1d7c:	4c 89 f7             	mov    %r14,%rdi
    1d7f:	e8 ac ef ff ff       	callq  d30 <_ZdlPvm@plt>
    1d84:	e9 35 ff ff ff       	jmpq   1cbe <_ZN8DatabaseI6recordED1Ev+0xce>
    1d89:	49 8b 47 08          	mov    0x8(%r15),%rax
    1d8d:	48 85 c0             	test   %rax,%rax
    1d90:	0f 85 1a 02 00 00    	jne    1fb0 <_ZN8DatabaseI6recordED1Ev+0x3c0>
    1d96:	49 8b 47 10          	mov    0x10(%r15),%rax
    1d9a:	48 85 c0             	test   %rax,%rax
    1d9d:	0f 85 e1 01 00 00    	jne    1f84 <_ZN8DatabaseI6recordED1Ev+0x394>
    1da3:	be 20 00 00 00       	mov    $0x20,%esi
    1da8:	4c 89 ff             	mov    %r15,%rdi
    1dab:	e8 80 ef ff ff       	callq  d30 <_ZdlPvm@plt>
    1db0:	eb c5                	jmp    1d77 <_ZN8DatabaseI6recordED1Ev+0x187>
    1db2:	49 8b 47 08          	mov    0x8(%r15),%rax
    1db6:	48 85 c0             	test   %rax,%rax
    1db9:	0f 85 51 03 00 00    	jne    2110 <_ZN8DatabaseI6recordED1Ev+0x520>
    1dbf:	49 8b 47 10          	mov    0x10(%r15),%rax
    1dc3:	48 85 c0             	test   %rax,%rax
    1dc6:	0f 85 18 03 00 00    	jne    20e4 <_ZN8DatabaseI6recordED1Ev+0x4f4>
    1dcc:	be 20 00 00 00       	mov    $0x20,%esi
    1dd1:	4c 89 ff             	mov    %r15,%rdi
    1dd4:	e8 57 ef ff ff       	callq  d30 <_ZdlPvm@plt>
    1dd9:	eb 93                	jmp    1d6e <_ZN8DatabaseI6recordED1Ev+0x17e>
    1ddb:	49 8b 47 08          	mov    0x8(%r15),%rax
    1ddf:	48 85 c0             	test   %rax,%rax
    1de2:	0f 85 d0 02 00 00    	jne    20b8 <_ZN8DatabaseI6recordED1Ev+0x4c8>
    1de8:	49 8b 47 10          	mov    0x10(%r15),%rax
    1dec:	48 85 c0             	test   %rax,%rax
    1def:	0f 85 97 02 00 00    	jne    208c <_ZN8DatabaseI6recordED1Ev+0x49c>
    1df5:	be 20 00 00 00       	mov    $0x20,%esi
    1dfa:	4c 89 ff             	mov    %r15,%rdi
    1dfd:	e8 2e ef ff ff       	callq  d30 <_ZdlPvm@plt>
    1e02:	e9 4c ff ff ff       	jmpq   1d53 <_ZN8DatabaseI6recordED1Ev+0x163>
    1e07:	49 8b 47 08          	mov    0x8(%r15),%rax
    1e0b:	48 85 c0             	test   %rax,%rax
    1e0e:	0f 85 4c 02 00 00    	jne    2060 <_ZN8DatabaseI6recordED1Ev+0x470>
    1e14:	49 8b 47 10          	mov    0x10(%r15),%rax
    1e18:	48 85 c0             	test   %rax,%rax
    1e1b:	0f 85 13 02 00 00    	jne    2034 <_ZN8DatabaseI6recordED1Ev+0x444>
    1e21:	be 20 00 00 00       	mov    $0x20,%esi
    1e26:	4c 89 ff             	mov    %r15,%rdi
    1e29:	e8 02 ef ff ff       	callq  d30 <_ZdlPvm@plt>
    1e2e:	e9 13 ff ff ff       	jmpq   1d46 <_ZN8DatabaseI6recordED1Ev+0x156>
    1e33:	49 8b 47 08          	mov    0x8(%r15),%rax
    1e37:	48 85 c0             	test   %rax,%rax
    1e3a:	0f 85 c8 01 00 00    	jne    2008 <_ZN8DatabaseI6recordED1Ev+0x418>
    1e40:	49 8b 47 10          	mov    0x10(%r15),%rax
    1e44:	48 85 c0             	test   %rax,%rax
    1e47:	0f 85 8f 01 00 00    	jne    1fdc <_ZN8DatabaseI6recordED1Ev+0x3ec>
    1e4d:	be 20 00 00 00       	mov    $0x20,%esi
    1e52:	4c 89 ff             	mov    %r15,%rdi
    1e55:	e8 d6 ee ff ff       	callq  d30 <_ZdlPvm@plt>
    1e5a:	e9 c8 fe ff ff       	jmpq   1d27 <_ZN8DatabaseI6recordED1Ev+0x137>
    1e5f:	49 8b 47 08          	mov    0x8(%r15),%rax
    1e63:	48 85 c0             	test   %rax,%rax
    1e66:	0f 85 f4 02 00 00    	jne    2160 <_ZN8DatabaseI6recordED1Ev+0x570>
    1e6c:	49 8b 47 10          	mov    0x10(%r15),%rax
    1e70:	48 85 c0             	test   %rax,%rax
    1e73:	0f 85 c3 02 00 00    	jne    213c <_ZN8DatabaseI6recordED1Ev+0x54c>
    1e79:	be 20 00 00 00       	mov    $0x20,%esi
    1e7e:	4c 89 ff             	mov    %r15,%rdi
    1e81:	e8 aa ee ff ff       	callq  d30 <_ZdlPvm@plt>
    1e86:	e9 8f fe ff ff       	jmpq   1d1a <_ZN8DatabaseI6recordED1Ev+0x12a>
    1e8b:	49 8b 47 08          	mov    0x8(%r15),%rax
    1e8f:	48 85 c0             	test   %rax,%rax
    1e92:	75 6c                	jne    1f00 <_ZN8DatabaseI6recordED1Ev+0x310>
    1e94:	49 8b 47 10          	mov    0x10(%r15),%rax
    1e98:	48 85 c0             	test   %rax,%rax
    1e9b:	75 3a                	jne    1ed7 <_ZN8DatabaseI6recordED1Ev+0x2e7>
    1e9d:	be 20 00 00 00       	mov    $0x20,%esi
    1ea2:	4c 89 ff             	mov    %r15,%rdi
    1ea5:	e8 86 ee ff ff       	callq  d30 <_ZdlPvm@plt>
    1eaa:	e9 4f fe ff ff       	jmpq   1cfe <_ZN8DatabaseI6recordED1Ev+0x10e>
    1eaf:	49 8b 47 08          	mov    0x8(%r15),%rax
    1eb3:	48 85 c0             	test   %rax,%rax
    1eb6:	0f 85 9c 00 00 00    	jne    1f58 <_ZN8DatabaseI6recordED1Ev+0x368>
    1ebc:	49 8b 47 10          	mov    0x10(%r15),%rax
    1ec0:	48 85 c0             	test   %rax,%rax
    1ec3:	75 67                	jne    1f2c <_ZN8DatabaseI6recordED1Ev+0x33c>
    1ec5:	be 20 00 00 00       	mov    $0x20,%esi
    1eca:	4c 89 ff             	mov    %r15,%rdi
    1ecd:	e8 5e ee ff ff       	callq  d30 <_ZdlPvm@plt>
    1ed2:	e9 1a fe ff ff       	jmpq   1cf1 <_ZN8DatabaseI6recordED1Ev+0x101>
    1ed7:	48 8b 70 08          	mov    0x8(%rax),%rsi
    1edb:	48 85 f6             	test   %rsi,%rsi
    1ede:	0f 85 1b 04 00 00    	jne    22ff <_ZN8DatabaseI6recordED1Ev+0x70f>
    1ee4:	48 8b 70 10          	mov    0x10(%rax),%rsi
    1ee8:	48 85 f6             	test   %rsi,%rsi
    1eeb:	0f 85 f7 03 00 00    	jne    22e8 <_ZN8DatabaseI6recordED1Ev+0x6f8>
    1ef1:	be 20 00 00 00       	mov    $0x20,%esi
    1ef6:	48 89 c7             	mov    %rax,%rdi
    1ef9:	e8 32 ee ff ff       	callq  d30 <_ZdlPvm@plt>
    1efe:	eb 9d                	jmp    1e9d <_ZN8DatabaseI6recordED1Ev+0x2ad>
    1f00:	48 8b 70 08          	mov    0x8(%rax),%rsi
    1f04:	48 85 f6             	test   %rsi,%rsi
    1f07:	0f 85 20 04 00 00    	jne    232d <_ZN8DatabaseI6recordED1Ev+0x73d>
    1f0d:	48 8b 70 10          	mov    0x10(%rax),%rsi
    1f11:	48 85 f6             	test   %rsi,%rsi
    1f14:	0f 85 fc 03 00 00    	jne    2316 <_ZN8DatabaseI6recordED1Ev+0x726>
    1f1a:	be 20 00 00 00       	mov    $0x20,%esi
    1f1f:	48 89 c7             	mov    %rax,%rdi
    1f22:	e8 09 ee ff ff       	callq  d30 <_ZdlPvm@plt>
    1f27:	e9 68 ff ff ff       	jmpq   1e94 <_ZN8DatabaseI6recordED1Ev+0x2a4>
    1f2c:	48 8b 70 08          	mov    0x8(%rax),%rsi
    1f30:	48 85 f6             	test   %rsi,%rsi
    1f33:	0f 85 98 03 00 00    	jne    22d1 <_ZN8DatabaseI6recordED1Ev+0x6e1>
    1f39:	48 8b 70 10          	mov    0x10(%rax),%rsi
    1f3d:	48 85 f6             	test   %rsi,%rsi
    1f40:	0f 85 74 03 00 00    	jne    22ba <_ZN8DatabaseI6recordED1Ev+0x6ca>
    1f46:	be 20 00 00 00       	mov    $0x20,%esi
    1f4b:	48 89 c7             	mov    %rax,%rdi
    1f4e:	e8 dd ed ff ff       	callq  d30 <_ZdlPvm@plt>
    1f53:	e9 6d ff ff ff       	jmpq   1ec5 <_ZN8DatabaseI6recordED1Ev+0x2d5>
    1f58:	48 8b 70 08          	mov    0x8(%rax),%rsi
    1f5c:	48 85 f6             	test   %rsi,%rsi
    1f5f:	0f 85 52 04 00 00    	jne    23b7 <_ZN8DatabaseI6recordED1Ev+0x7c7>
    1f65:	48 8b 70 10          	mov    0x10(%rax),%rsi
    1f69:	48 85 f6             	test   %rsi,%rsi
    1f6c:	0f 85 2e 04 00 00    	jne    23a0 <_ZN8DatabaseI6recordED1Ev+0x7b0>
    1f72:	be 20 00 00 00       	mov    $0x20,%esi
    1f77:	48 89 c7             	mov    %rax,%rdi
    1f7a:	e8 b1 ed ff ff       	callq  d30 <_ZdlPvm@plt>
    1f7f:	e9 38 ff ff ff       	jmpq   1ebc <_ZN8DatabaseI6recordED1Ev+0x2cc>
    1f84:	48 8b 70 08          	mov    0x8(%rax),%rsi
    1f88:	48 85 f6             	test   %rsi,%rsi
    1f8b:	0f 85 12 03 00 00    	jne    22a3 <_ZN8DatabaseI6recordED1Ev+0x6b3>
    1f91:	48 8b 70 10          	mov    0x10(%rax),%rsi
    1f95:	48 85 f6             	test   %rsi,%rsi
    1f98:	0f 85 ee 02 00 00    	jne    228c <_ZN8DatabaseI6recordED1Ev+0x69c>
    1f9e:	be 20 00 00 00       	mov    $0x20,%esi
    1fa3:	48 89 c7             	mov    %rax,%rdi
    1fa6:	e8 85 ed ff ff       	callq  d30 <_ZdlPvm@plt>
    1fab:	e9 f3 fd ff ff       	jmpq   1da3 <_ZN8DatabaseI6recordED1Ev+0x1b3>
    1fb0:	48 8b 70 08          	mov    0x8(%rax),%rsi
    1fb4:	48 85 f6             	test   %rsi,%rsi
    1fb7:	0f 85 9e 03 00 00    	jne    235b <_ZN8DatabaseI6recordED1Ev+0x76b>
    1fbd:	48 8b 70 10          	mov    0x10(%rax),%rsi
    1fc1:	48 85 f6             	test   %rsi,%rsi
    1fc4:	0f 85 7a 03 00 00    	jne    2344 <_ZN8DatabaseI6recordED1Ev+0x754>
    1fca:	be 20 00 00 00       	mov    $0x20,%esi
    1fcf:	48 89 c7             	mov    %rax,%rdi
    1fd2:	e8 59 ed ff ff       	callq  d30 <_ZdlPvm@plt>
    1fd7:	e9 ba fd ff ff       	jmpq   1d96 <_ZN8DatabaseI6recordED1Ev+0x1a6>
    1fdc:	48 8b 70 08          	mov    0x8(%rax),%rsi
    1fe0:	48 85 f6             	test   %rsi,%rsi
    1fe3:	0f 85 8c 02 00 00    	jne    2275 <_ZN8DatabaseI6recordED1Ev+0x685>
    1fe9:	48 8b 70 10          	mov    0x10(%rax),%rsi
    1fed:	48 85 f6             	test   %rsi,%rsi
    1ff0:	0f 85 68 02 00 00    	jne    225e <_ZN8DatabaseI6recordED1Ev+0x66e>
    1ff6:	be 20 00 00 00       	mov    $0x20,%esi
    1ffb:	48 89 c7             	mov    %rax,%rdi
    1ffe:	e8 2d ed ff ff       	callq  d30 <_ZdlPvm@plt>
    2003:	e9 45 fe ff ff       	jmpq   1e4d <_ZN8DatabaseI6recordED1Ev+0x25d>
    2008:	48 8b 70 08          	mov    0x8(%rax),%rsi
    200c:	48 85 f6             	test   %rsi,%rsi
    200f:	0f 85 fe 03 00 00    	jne    2413 <_ZN8DatabaseI6recordED1Ev+0x823>
    2015:	48 8b 70 10          	mov    0x10(%rax),%rsi
    2019:	48 85 f6             	test   %rsi,%rsi
    201c:	0f 85 da 03 00 00    	jne    23fc <_ZN8DatabaseI6recordED1Ev+0x80c>
    2022:	be 20 00 00 00       	mov    $0x20,%esi
    2027:	48 89 c7             	mov    %rax,%rdi
    202a:	e8 01 ed ff ff       	callq  d30 <_ZdlPvm@plt>
    202f:	e9 0c fe ff ff       	jmpq   1e40 <_ZN8DatabaseI6recordED1Ev+0x250>
    2034:	48 8b 70 08          	mov    0x8(%rax),%rsi
    2038:	48 85 f6             	test   %rsi,%rsi
    203b:	0f 85 06 02 00 00    	jne    2247 <_ZN8DatabaseI6recordED1Ev+0x657>
    2041:	48 8b 70 10          	mov    0x10(%rax),%rsi
    2045:	48 85 f6             	test   %rsi,%rsi
    2048:	0f 85 e2 01 00 00    	jne    2230 <_ZN8DatabaseI6recordED1Ev+0x640>
    204e:	be 20 00 00 00       	mov    $0x20,%esi
    2053:	48 89 c7             	mov    %rax,%rdi
    2056:	e8 d5 ec ff ff       	callq  d30 <_ZdlPvm@plt>
    205b:	e9 c1 fd ff ff       	jmpq   1e21 <_ZN8DatabaseI6recordED1Ev+0x231>
    2060:	48 8b 70 08          	mov    0x8(%rax),%rsi
    2064:	48 85 f6             	test   %rsi,%rsi
    2067:	0f 85 1c 03 00 00    	jne    2389 <_ZN8DatabaseI6recordED1Ev+0x799>
    206d:	48 8b 70 10          	mov    0x10(%rax),%rsi
    2071:	48 85 f6             	test   %rsi,%rsi
    2074:	0f 85 f8 02 00 00    	jne    2372 <_ZN8DatabaseI6recordED1Ev+0x782>
    207a:	be 20 00 00 00       	mov    $0x20,%esi
    207f:	48 89 c7             	mov    %rax,%rdi
    2082:	e8 a9 ec ff ff       	callq  d30 <_ZdlPvm@plt>
    2087:	e9 88 fd ff ff       	jmpq   1e14 <_ZN8DatabaseI6recordED1Ev+0x224>
    208c:	48 8b 70 08          	mov    0x8(%rax),%rsi
    2090:	48 85 f6             	test   %rsi,%rsi
    2093:	0f 85 80 01 00 00    	jne    2219 <_ZN8DatabaseI6recordED1Ev+0x629>
    2099:	48 8b 70 10          	mov    0x10(%rax),%rsi
    209d:	48 85 f6             	test   %rsi,%rsi
    20a0:	0f 85 5c 01 00 00    	jne    2202 <_ZN8DatabaseI6recordED1Ev+0x612>
    20a6:	be 20 00 00 00       	mov    $0x20,%esi
    20ab:	48 89 c7             	mov    %rax,%rdi
    20ae:	e8 7d ec ff ff       	callq  d30 <_ZdlPvm@plt>
    20b3:	e9 3d fd ff ff       	jmpq   1df5 <_ZN8DatabaseI6recordED1Ev+0x205>
    20b8:	48 8b 70 08          	mov    0x8(%rax),%rsi
    20bc:	48 85 f6             	test   %rsi,%rsi
    20bf:	0f 85 20 03 00 00    	jne    23e5 <_ZN8DatabaseI6recordED1Ev+0x7f5>
    20c5:	48 8b 70 10          	mov    0x10(%rax),%rsi
    20c9:	48 85 f6             	test   %rsi,%rsi
    20cc:	0f 85 fc 02 00 00    	jne    23ce <_ZN8DatabaseI6recordED1Ev+0x7de>
    20d2:	be 20 00 00 00       	mov    $0x20,%esi
    20d7:	48 89 c7             	mov    %rax,%rdi
    20da:	e8 51 ec ff ff       	callq  d30 <_ZdlPvm@plt>
    20df:	e9 04 fd ff ff       	jmpq   1de8 <_ZN8DatabaseI6recordED1Ev+0x1f8>
    20e4:	48 8b 70 08          	mov    0x8(%rax),%rsi
    20e8:	48 85 f6             	test   %rsi,%rsi
    20eb:	0f 85 fa 00 00 00    	jne    21eb <_ZN8DatabaseI6recordED1Ev+0x5fb>
    20f1:	48 8b 70 10          	mov    0x10(%rax),%rsi
    20f5:	48 85 f6             	test   %rsi,%rsi
    20f8:	0f 85 d6 00 00 00    	jne    21d4 <_ZN8DatabaseI6recordED1Ev+0x5e4>
    20fe:	be 20 00 00 00       	mov    $0x20,%esi
    2103:	48 89 c7             	mov    %rax,%rdi
    2106:	e8 25 ec ff ff       	callq  d30 <_ZdlPvm@plt>
    210b:	e9 bc fc ff ff       	jmpq   1dcc <_ZN8DatabaseI6recordED1Ev+0x1dc>
    2110:	48 8b 70 08          	mov    0x8(%rax),%rsi
    2114:	48 85 f6             	test   %rsi,%rsi
    2117:	0f 85 24 03 00 00    	jne    2441 <_ZN8DatabaseI6recordED1Ev+0x851>
    211d:	48 8b 70 10          	mov    0x10(%rax),%rsi
    2121:	48 85 f6             	test   %rsi,%rsi
    2124:	0f 85 00 03 00 00    	jne    242a <_ZN8DatabaseI6recordED1Ev+0x83a>
    212a:	be 20 00 00 00       	mov    $0x20,%esi
    212f:	48 89 c7             	mov    %rax,%rdi
    2132:	e8 f9 eb ff ff       	callq  d30 <_ZdlPvm@plt>
    2137:	e9 83 fc ff ff       	jmpq   1dbf <_ZN8DatabaseI6recordED1Ev+0x1cf>
    213c:	48 8b 70 08          	mov    0x8(%rax),%rsi
    2140:	48 85 f6             	test   %rsi,%rsi
    2143:	75 53                	jne    2198 <_ZN8DatabaseI6recordED1Ev+0x5a8>
    2145:	48 8b 70 10          	mov    0x10(%rax),%rsi
    2149:	48 85 f6             	test   %rsi,%rsi
    214c:	75 36                	jne    2184 <_ZN8DatabaseI6recordED1Ev+0x594>
    214e:	be 20 00 00 00       	mov    $0x20,%esi
    2153:	48 89 c7             	mov    %rax,%rdi
    2156:	e8 d5 eb ff ff       	callq  d30 <_ZdlPvm@plt>
    215b:	e9 19 fd ff ff       	jmpq   1e79 <_ZN8DatabaseI6recordED1Ev+0x289>
    2160:	48 8b 70 08          	mov    0x8(%rax),%rsi
    2164:	48 85 f6             	test   %rsi,%rsi
    2167:	75 57                	jne    21c0 <_ZN8DatabaseI6recordED1Ev+0x5d0>
    2169:	48 8b 70 10          	mov    0x10(%rax),%rsi
    216d:	48 85 f6             	test   %rsi,%rsi
    2170:	75 3a                	jne    21ac <_ZN8DatabaseI6recordED1Ev+0x5bc>
    2172:	be 20 00 00 00       	mov    $0x20,%esi
    2177:	48 89 c7             	mov    %rax,%rdi
    217a:	e8 b1 eb ff ff       	callq  d30 <_ZdlPvm@plt>
    217f:	e9 e8 fc ff ff       	jmpq   1e6c <_ZN8DatabaseI6recordED1Ev+0x27c>
    2184:	4c 89 ef             	mov    %r13,%rdi
    2187:	48 89 44 24 08       	mov    %rax,0x8(%rsp)
    218c:	e8 2f f8 ff ff       	callq  19c0 <_ZN8avl_treeI9list_nodeI6recordEE11delete_treeEP8avl_nodeIS2_E.part.14>
    2191:	48 8b 44 24 08       	mov    0x8(%rsp),%rax
    2196:	eb b6                	jmp    214e <_ZN8DatabaseI6recordED1Ev+0x55e>
    2198:	4c 89 ef             	mov    %r13,%rdi
    219b:	48 89 44 24 08       	mov    %rax,0x8(%rsp)
    21a0:	e8 1b f8 ff ff       	callq  19c0 <_ZN8avl_treeI9list_nodeI6recordEE11delete_treeEP8avl_nodeIS2_E.part.14>
    21a5:	48 8b 44 24 08       	mov    0x8(%rsp),%rax
    21aa:	eb 99                	jmp    2145 <_ZN8DatabaseI6recordED1Ev+0x555>
    21ac:	4c 89 ef             	mov    %r13,%rdi
    21af:	48 89 44 24 08       	mov    %rax,0x8(%rsp)
    21b4:	e8 07 f8 ff ff       	callq  19c0 <_ZN8avl_treeI9list_nodeI6recordEE11delete_treeEP8avl_nodeIS2_E.part.14>
    21b9:	48 8b 44 24 08       	mov    0x8(%rsp),%rax
    21be:	eb b2                	jmp    2172 <_ZN8DatabaseI6recordED1Ev+0x582>
    21c0:	4c 89 ef             	mov    %r13,%rdi
    21c3:	48 89 44 24 08       	mov    %rax,0x8(%rsp)
    21c8:	e8 f3 f7 ff ff       	callq  19c0 <_ZN8avl_treeI9list_nodeI6recordEE11delete_treeEP8avl_nodeIS2_E.part.14>
    21cd:	48 8b 44 24 08       	mov    0x8(%rsp),%rax
    21d2:	eb 95                	jmp    2169 <_ZN8DatabaseI6recordED1Ev+0x579>
    21d4:	4c 89 ef             	mov    %r13,%rdi
    21d7:	48 89 44 24 08       	mov    %rax,0x8(%rsp)
    21dc:	e8 df f7 ff ff       	callq  19c0 <_ZN8avl_treeI9list_nodeI6recordEE11delete_treeEP8avl_nodeIS2_E.part.14>
    21e1:	48 8b 44 24 08       	mov    0x8(%rsp),%rax
    21e6:	e9 13 ff ff ff       	jmpq   20fe <_ZN8DatabaseI6recordED1Ev+0x50e>
    21eb:	4c 89 ef             	mov    %r13,%rdi
    21ee:	48 89 44 24 08       	mov    %rax,0x8(%rsp)
    21f3:	e8 c8 f7 ff ff       	callq  19c0 <_ZN8avl_treeI9list_nodeI6recordEE11delete_treeEP8avl_nodeIS2_E.part.14>
    21f8:	48 8b 44 24 08       	mov    0x8(%rsp),%rax
    21fd:	e9 ef fe ff ff       	jmpq   20f1 <_ZN8DatabaseI6recordED1Ev+0x501>
    2202:	4c 89 ef             	mov    %r13,%rdi
    2205:	48 89 44 24 08       	mov    %rax,0x8(%rsp)
    220a:	e8 b1 f7 ff ff       	callq  19c0 <_ZN8avl_treeI9list_nodeI6recordEE11delete_treeEP8avl_nodeIS2_E.part.14>
    220f:	48 8b 44 24 08       	mov    0x8(%rsp),%rax
    2214:	e9 8d fe ff ff       	jmpq   20a6 <_ZN8DatabaseI6recordED1Ev+0x4b6>
    2219:	4c 89 ef             	mov    %r13,%rdi
    221c:	48 89 44 24 08       	mov    %rax,0x8(%rsp)
    2221:	e8 9a f7 ff ff       	callq  19c0 <_ZN8avl_treeI9list_nodeI6recordEE11delete_treeEP8avl_nodeIS2_E.part.14>
    2226:	48 8b 44 24 08       	mov    0x8(%rsp),%rax
    222b:	e9 69 fe ff ff       	jmpq   2099 <_ZN8DatabaseI6recordED1Ev+0x4a9>
    2230:	4c 89 ef             	mov    %r13,%rdi
    2233:	48 89 44 24 08       	mov    %rax,0x8(%rsp)
    2238:	e8 83 f7 ff ff       	callq  19c0 <_ZN8avl_treeI9list_nodeI6recordEE11delete_treeEP8avl_nodeIS2_E.part.14>
    223d:	48 8b 44 24 08       	mov    0x8(%rsp),%rax
    2242:	e9 07 fe ff ff       	jmpq   204e <_ZN8DatabaseI6recordED1Ev+0x45e>
    2247:	4c 89 ef             	mov    %r13,%rdi
    224a:	48 89 44 24 08       	mov    %rax,0x8(%rsp)
    224f:	e8 6c f7 ff ff       	callq  19c0 <_ZN8avl_treeI9list_nodeI6recordEE11delete_treeEP8avl_nodeIS2_E.part.14>
    2254:	48 8b 44 24 08       	mov    0x8(%rsp),%rax
    2259:	e9 e3 fd ff ff       	jmpq   2041 <_ZN8DatabaseI6recordED1Ev+0x451>
    225e:	4c 89 ef             	mov    %r13,%rdi
    2261:	48 89 44 24 08       	mov    %rax,0x8(%rsp)
    2266:	e8 55 f7 ff ff       	callq  19c0 <_ZN8avl_treeI9list_nodeI6recordEE11delete_treeEP8avl_nodeIS2_E.part.14>
    226b:	48 8b 44 24 08       	mov    0x8(%rsp),%rax
    2270:	e9 81 fd ff ff       	jmpq   1ff6 <_ZN8DatabaseI6recordED1Ev+0x406>
    2275:	4c 89 ef             	mov    %r13,%rdi
    2278:	48 89 44 24 08       	mov    %rax,0x8(%rsp)
    227d:	e8 3e f7 ff ff       	callq  19c0 <_ZN8avl_treeI9list_nodeI6recordEE11delete_treeEP8avl_nodeIS2_E.part.14>
    2282:	48 8b 44 24 08       	mov    0x8(%rsp),%rax
    2287:	e9 5d fd ff ff       	jmpq   1fe9 <_ZN8DatabaseI6recordED1Ev+0x3f9>
    228c:	4c 89 ef             	mov    %r13,%rdi
    228f:	48 89 44 24 08       	mov    %rax,0x8(%rsp)
    2294:	e8 27 f7 ff ff       	callq  19c0 <_ZN8avl_treeI9list_nodeI6recordEE11delete_treeEP8avl_nodeIS2_E.part.14>
    2299:	48 8b 44 24 08       	mov    0x8(%rsp),%rax
    229e:	e9 fb fc ff ff       	jmpq   1f9e <_ZN8DatabaseI6recordED1Ev+0x3ae>
    22a3:	4c 89 ef             	mov    %r13,%rdi
    22a6:	48 89 44 24 08       	mov    %rax,0x8(%rsp)
    22ab:	e8 10 f7 ff ff       	callq  19c0 <_ZN8avl_treeI9list_nodeI6recordEE11delete_treeEP8avl_nodeIS2_E.part.14>
    22b0:	48 8b 44 24 08       	mov    0x8(%rsp),%rax
    22b5:	e9 d7 fc ff ff       	jmpq   1f91 <_ZN8DatabaseI6recordED1Ev+0x3a1>
    22ba:	4c 89 ef             	mov    %r13,%rdi
    22bd:	48 89 44 24 08       	mov    %rax,0x8(%rsp)
    22c2:	e8 f9 f6 ff ff       	callq  19c0 <_ZN8avl_treeI9list_nodeI6recordEE11delete_treeEP8avl_nodeIS2_E.part.14>
    22c7:	48 8b 44 24 08       	mov    0x8(%rsp),%rax
    22cc:	e9 75 fc ff ff       	jmpq   1f46 <_ZN8DatabaseI6recordED1Ev+0x356>
    22d1:	4c 89 ef             	mov    %r13,%rdi
    22d4:	48 89 44 24 08       	mov    %rax,0x8(%rsp)
    22d9:	e8 e2 f6 ff ff       	callq  19c0 <_ZN8avl_treeI9list_nodeI6recordEE11delete_treeEP8avl_nodeIS2_E.part.14>
    22de:	48 8b 44 24 08       	mov    0x8(%rsp),%rax
    22e3:	e9 51 fc ff ff       	jmpq   1f39 <_ZN8DatabaseI6recordED1Ev+0x349>
    22e8:	4c 89 ef             	mov    %r13,%rdi
    22eb:	48 89 44 24 08       	mov    %rax,0x8(%rsp)
    22f0:	e8 cb f6 ff ff       	callq  19c0 <_ZN8avl_treeI9list_nodeI6recordEE11delete_treeEP8avl_nodeIS2_E.part.14>
    22f5:	48 8b 44 24 08       	mov    0x8(%rsp),%rax
    22fa:	e9 f2 fb ff ff       	jmpq   1ef1 <_ZN8DatabaseI6recordED1Ev+0x301>
    22ff:	4c 89 ef             	mov    %r13,%rdi
    2302:	48 89 44 24 08       	mov    %rax,0x8(%rsp)
    2307:	e8 b4 f6 ff ff       	callq  19c0 <_ZN8avl_treeI9list_nodeI6recordEE11delete_treeEP8avl_nodeIS2_E.part.14>
    230c:	48 8b 44 24 08       	mov    0x8(%rsp),%rax
    2311:	e9 ce fb ff ff       	jmpq   1ee4 <_ZN8DatabaseI6recordED1Ev+0x2f4>
    2316:	4c 89 ef             	mov    %r13,%rdi
    2319:	48 89 44 24 08       	mov    %rax,0x8(%rsp)
    231e:	e8 9d f6 ff ff       	callq  19c0 <_ZN8avl_treeI9list_nodeI6recordEE11delete_treeEP8avl_nodeIS2_E.part.14>
    2323:	48 8b 44 24 08       	mov    0x8(%rsp),%rax
    2328:	e9 ed fb ff ff       	jmpq   1f1a <_ZN8DatabaseI6recordED1Ev+0x32a>
    232d:	4c 89 ef             	mov    %r13,%rdi
    2330:	48 89 44 24 08       	mov    %rax,0x8(%rsp)
    2335:	e8 86 f6 ff ff       	callq  19c0 <_ZN8avl_treeI9list_nodeI6recordEE11delete_treeEP8avl_nodeIS2_E.part.14>
    233a:	48 8b 44 24 08       	mov    0x8(%rsp),%rax
    233f:	e9 c9 fb ff ff       	jmpq   1f0d <_ZN8DatabaseI6recordED1Ev+0x31d>
    2344:	4c 89 ef             	mov    %r13,%rdi
    2347:	48 89 44 24 08       	mov    %rax,0x8(%rsp)
    234c:	e8 6f f6 ff ff       	callq  19c0 <_ZN8avl_treeI9list_nodeI6recordEE11delete_treeEP8avl_nodeIS2_E.part.14>
    2351:	48 8b 44 24 08       	mov    0x8(%rsp),%rax
    2356:	e9 6f fc ff ff       	jmpq   1fca <_ZN8DatabaseI6recordED1Ev+0x3da>
    235b:	4c 89 ef             	mov    %r13,%rdi
    235e:	48 89 44 24 08       	mov    %rax,0x8(%rsp)
    2363:	e8 58 f6 ff ff       	callq  19c0 <_ZN8avl_treeI9list_nodeI6recordEE11delete_treeEP8avl_nodeIS2_E.part.14>
    2368:	48 8b 44 24 08       	mov    0x8(%rsp),%rax
    236d:	e9 4b fc ff ff       	jmpq   1fbd <_ZN8DatabaseI6recordED1Ev+0x3cd>
    2372:	4c 89 ef             	mov    %r13,%rdi
    2375:	48 89 44 24 08       	mov    %rax,0x8(%rsp)
    237a:	e8 41 f6 ff ff       	callq  19c0 <_ZN8avl_treeI9list_nodeI6recordEE11delete_treeEP8avl_nodeIS2_E.part.14>
    237f:	48 8b 44 24 08       	mov    0x8(%rsp),%rax
    2384:	e9 f1 fc ff ff       	jmpq   207a <_ZN8DatabaseI6recordED1Ev+0x48a>
    2389:	4c 89 ef             	mov    %r13,%rdi
    238c:	48 89 44 24 08       	mov    %rax,0x8(%rsp)
    2391:	e8 2a f6 ff ff       	callq  19c0 <_ZN8avl_treeI9list_nodeI6recordEE11delete_treeEP8avl_nodeIS2_E.part.14>
    2396:	48 8b 44 24 08       	mov    0x8(%rsp),%rax
    239b:	e9 cd fc ff ff       	jmpq   206d <_ZN8DatabaseI6recordED1Ev+0x47d>
    23a0:	4c 89 ef             	mov    %r13,%rdi
    23a3:	48 89 44 24 08       	mov    %rax,0x8(%rsp)
    23a8:	e8 13 f6 ff ff       	callq  19c0 <_ZN8avl_treeI9list_nodeI6recordEE11delete_treeEP8avl_nodeIS2_E.part.14>
    23ad:	48 8b 44 24 08       	mov    0x8(%rsp),%rax
    23b2:	e9 bb fb ff ff       	jmpq   1f72 <_ZN8DatabaseI6recordED1Ev+0x382>
    23b7:	4c 89 ef             	mov    %r13,%rdi
    23ba:	48 89 44 24 08       	mov    %rax,0x8(%rsp)
    23bf:	e8 fc f5 ff ff       	callq  19c0 <_ZN8avl_treeI9list_nodeI6recordEE11delete_treeEP8avl_nodeIS2_E.part.14>
    23c4:	48 8b 44 24 08       	mov    0x8(%rsp),%rax
    23c9:	e9 97 fb ff ff       	jmpq   1f65 <_ZN8DatabaseI6recordED1Ev+0x375>
    23ce:	4c 89 ef             	mov    %r13,%rdi
    23d1:	48 89 44 24 08       	mov    %rax,0x8(%rsp)
    23d6:	e8 e5 f5 ff ff       	callq  19c0 <_ZN8avl_treeI9list_nodeI6recordEE11delete_treeEP8avl_nodeIS2_E.part.14>
    23db:	48 8b 44 24 08       	mov    0x8(%rsp),%rax
    23e0:	e9 ed fc ff ff       	jmpq   20d2 <_ZN8DatabaseI6recordED1Ev+0x4e2>
    23e5:	4c 89 ef             	mov    %r13,%rdi
    23e8:	48 89 44 24 08       	mov    %rax,0x8(%rsp)
    23ed:	e8 ce f5 ff ff       	callq  19c0 <_ZN8avl_treeI9list_nodeI6recordEE11delete_treeEP8avl_nodeIS2_E.part.14>
    23f2:	48 8b 44 24 08       	mov    0x8(%rsp),%rax
    23f7:	e9 c9 fc ff ff       	jmpq   20c5 <_ZN8DatabaseI6recordED1Ev+0x4d5>
    23fc:	4c 89 ef             	mov    %r13,%rdi
    23ff:	48 89 44 24 08       	mov    %rax,0x8(%rsp)
    2404:	e8 b7 f5 ff ff       	callq  19c0 <_ZN8avl_treeI9list_nodeI6recordEE11delete_treeEP8avl_nodeIS2_E.part.14>
    2409:	48 8b 44 24 08       	mov    0x8(%rsp),%rax
    240e:	e9 0f fc ff ff       	jmpq   2022 <_ZN8DatabaseI6recordED1Ev+0x432>
    2413:	4c 89 ef             	mov    %r13,%rdi
    2416:	48 89 44 24 08       	mov    %rax,0x8(%rsp)
    241b:	e8 a0 f5 ff ff       	callq  19c0 <_ZN8avl_treeI9list_nodeI6recordEE11delete_treeEP8avl_nodeIS2_E.part.14>
    2420:	48 8b 44 24 08       	mov    0x8(%rsp),%rax
    2425:	e9 eb fb ff ff       	jmpq   2015 <_ZN8DatabaseI6recordED1Ev+0x425>
    242a:	4c 89 ef             	mov    %r13,%rdi
    242d:	48 89 44 24 08       	mov    %rax,0x8(%rsp)
    2432:	e8 89 f5 ff ff       	callq  19c0 <_ZN8avl_treeI9list_nodeI6recordEE11delete_treeEP8avl_nodeIS2_E.part.14>
    2437:	48 8b 44 24 08       	mov    0x8(%rsp),%rax
    243c:	e9 e9 fc ff ff       	jmpq   212a <_ZN8DatabaseI6recordED1Ev+0x53a>
    2441:	4c 89 ef             	mov    %r13,%rdi
    2444:	48 89 44 24 08       	mov    %rax,0x8(%rsp)
    2449:	e8 72 f5 ff ff       	callq  19c0 <_ZN8avl_treeI9list_nodeI6recordEE11delete_treeEP8avl_nodeIS2_E.part.14>
    244e:	48 8b 44 24 08       	mov    0x8(%rsp),%rax
    2453:	e9 c5 fc ff ff       	jmpq   211d <_ZN8DatabaseI6recordED1Ev+0x52d>
    2458:	0f 1f 84 00 00 00 00 	nopl   0x0(%rax,%rax,1)
    245f:	00 

0000000000002460 <_ZN8DatabaseI6recordE14init_from_fileEPKc>:
    2460:	41 57                	push   %r15
    2462:	41 56                	push   %r14
    2464:	41 55                	push   %r13
    2466:	41 54                	push   %r12
    2468:	55                   	push   %rbp
    2469:	53                   	push   %rbx
    246a:	48 81 ec 98 00 00 00 	sub    $0x98,%rsp
    2471:	48 89 7c 24 18       	mov    %rdi,0x18(%rsp)
    2476:	48 89 f7             	mov    %rsi,%rdi
    2479:	48 8d 35 ec 5b 00 00 	lea    0x5bec(%rip),%rsi        # 806c <_IO_stdin_used+0x56c>
    2480:	64 48 8b 04 25 28 00 	mov    %fs:0x28,%rax
    2487:	00 00 
    2489:	48 89 84 24 88 00 00 	mov    %rax,0x88(%rsp)
    2490:	00 
    2491:	31 c0                	xor    %eax,%eax
    2493:	e8 c8 e8 ff ff       	callq  d60 <fopen@plt>
    2498:	48 85 c0             	test   %rax,%rax
    249b:	48 89 44 24 30       	mov    %rax,0x30(%rsp)
    24a0:	0f 84 0e 04 00 00    	je     28b4 <_ZN8DatabaseI6recordE14init_from_fileEPKc+0x454>
    24a6:	48 8d 44 24 40       	lea    0x40(%rsp),%rax
    24ab:	48 c7 44 24 40 00 00 	movq   $0x0,0x40(%rsp)
    24b2:	00 00 
    24b4:	48 c7 44 24 48 00 00 	movq   $0x0,0x48(%rsp)
    24bb:	00 00 
    24bd:	48 c7 44 24 50 00 00 	movq   $0x0,0x50(%rsp)
    24c4:	00 00 
    24c6:	c7 44 24 58 00 00 00 	movl   $0x0,0x58(%rsp)
    24cd:	00 
    24ce:	48 89 44 24 38       	mov    %rax,0x38(%rsp)
    24d3:	0f 1f 44 00 00       	nopl   0x0(%rax,%rax,1)
    24d8:	48 8b 74 24 30       	mov    0x30(%rsp),%rsi
    24dd:	48 8b 7c 24 38       	mov    0x38(%rsp),%rdi
    24e2:	e8 99 f5 ff ff       	callq  1a80 <_ZN6record4scanEP8_IO_FILE>
    24e7:	85 c0                	test   %eax,%eax
    24e9:	0f 84 01 03 00 00    	je     27f0 <_ZN8DatabaseI6recordE14init_from_fileEPKc+0x390>
    24ef:	bf 30 00 00 00       	mov    $0x30,%edi
    24f4:	e8 27 e8 ff ff       	callq  d20 <_Znwm@plt>
    24f9:	48 63 6c 24 4c       	movslq 0x4c(%rsp),%rbp
    24fe:	49 89 c7             	mov    %rax,%r15
    2501:	48 89 44 24 20       	mov    %rax,0x20(%rsp)
    2506:	8b 5c 24 48          	mov    0x48(%rsp),%ebx
    250a:	48 89 ef             	mov    %rbp,%rdi
    250d:	e8 4e e7 ff ff       	callq  c60 <_Znam@plt>
    2512:	31 f6                	xor    %esi,%esi
    2514:	48 89 ea             	mov    %rbp,%rdx
    2517:	48 89 c7             	mov    %rax,%rdi
    251a:	49 89 07             	mov    %rax,(%r15)
    251d:	41 89 5f 08          	mov    %ebx,0x8(%r15)
    2521:	49 89 c6             	mov    %rax,%r14
    2524:	41 89 6f 0c          	mov    %ebp,0xc(%r15)
    2528:	48 89 04 24          	mov    %rax,(%rsp)
    252c:	e8 6f e7 ff ff       	callq  ca0 <memset@plt>
    2531:	48 8b 74 24 40       	mov    0x40(%rsp),%rsi
    2536:	48 63 d3             	movslq %ebx,%rdx
    2539:	4c 89 f7             	mov    %r14,%rdi
    253c:	e8 9f e7 ff ff       	callq  ce0 <memcpy@plt>
    2541:	48 8b 44 24 50       	mov    0x50(%rsp),%rax
    2546:	48 8b 4c 24 18       	mov    0x18(%rsp),%rcx
    254b:	49 c7 47 28 00 00 00 	movq   $0x0,0x28(%r15)
    2552:	00 
    2553:	49 c7 47 20 00 00 00 	movq   $0x0,0x20(%r15)
    255a:	00 
    255b:	48 89 44 24 10       	mov    %rax,0x10(%rsp)
    2560:	49 89 47 10          	mov    %rax,0x10(%r15)
    2564:	8b 44 24 58          	mov    0x58(%rsp),%eax
    2568:	89 44 24 2c          	mov    %eax,0x2c(%rsp)
    256c:	41 89 47 18          	mov    %eax,0x18(%r15)
    2570:	48 8b 41 08          	mov    0x8(%rcx),%rax
    2574:	48 85 c0             	test   %rax,%rax
    2577:	0f 84 e3 01 00 00    	je     2760 <_ZN8DatabaseI6recordE14init_from_fileEPKc+0x300>
    257d:	49 89 47 28          	mov    %rax,0x28(%r15)
    2581:	4c 89 78 20          	mov    %r15,0x20(%rax)
    2585:	48 89 c8             	mov    %rcx,%rax
    2588:	4c 89 79 08          	mov    %r15,0x8(%rcx)
    258c:	4c 8b 68 28          	mov    0x28(%rax),%r13
    2590:	83 40 10 01          	addl   $0x1,0x10(%rax)
    2594:	4d 8b 7d 08          	mov    0x8(%r13),%r15
    2598:	4c 89 6c 24 08       	mov    %r13,0x8(%rsp)
    259d:	4d 85 ff             	test   %r15,%r15
    25a0:	0f 84 b0 00 00 00    	je     2656 <_ZN8DatabaseI6recordE14init_from_fileEPKc+0x1f6>
    25a6:	4c 89 fb             	mov    %r15,%rbx
    25a9:	45 31 e4             	xor    %r12d,%r12d
    25ac:	eb 26                	jmp    25d4 <_ZN8DatabaseI6recordE14init_from_fileEPKc+0x174>
    25ae:	66 90                	xchg   %ax,%ax
    25b0:	42 88 44 24 60       	mov    %al,0x60(%rsp,%r12,1)
    25b5:	48 63 c5             	movslq %ebp,%rax
    25b8:	41 8d 54 24 01       	lea    0x1(%r12),%edx
    25bd:	48 8b 44 c3 08       	mov    0x8(%rbx,%rax,8),%rax
    25c2:	48 85 c0             	test   %rax,%rax
    25c5:	0f 84 95 00 00 00    	je     2660 <_ZN8DatabaseI6recordE14init_from_fileEPKc+0x200>
    25cb:	49 89 dd             	mov    %rbx,%r13
    25ce:	4c 63 e2             	movslq %edx,%r12
    25d1:	48 89 c3             	mov    %rax,%rbx
    25d4:	4c 8b 33             	mov    (%rbx),%r14
    25d7:	48 8b 3c 24          	mov    (%rsp),%rdi
    25db:	49 8b 36             	mov    (%r14),%rsi
    25de:	e8 9d e7 ff ff       	callq  d80 <strcmp@plt>
    25e3:	48 63 e8             	movslq %eax,%rbp
    25e6:	83 fd 00             	cmp    $0x0,%ebp
    25e9:	7e 35                	jle    2620 <_ZN8DatabaseI6recordE14init_from_fileEPKc+0x1c0>
    25eb:	b8 01 00 00 00       	mov    $0x1,%eax
    25f0:	bd 01 00 00 00       	mov    $0x1,%ebp
    25f5:	8b 53 18             	mov    0x18(%rbx),%edx
    25f8:	85 d2                	test   %edx,%edx
    25fa:	74 b4                	je     25b0 <_ZN8DatabaseI6recordE14init_from_fileEPKc+0x150>
    25fc:	88 44 24 60          	mov    %al,0x60(%rsp)
    2600:	48 63 c5             	movslq %ebp,%rax
    2603:	4c 89 6c 24 08       	mov    %r13,0x8(%rsp)
    2608:	48 8b 44 c3 08       	mov    0x8(%rbx,%rax,8),%rax
    260d:	49 89 df             	mov    %rbx,%r15
    2610:	48 85 c0             	test   %rax,%rax
    2613:	74 4b                	je     2660 <_ZN8DatabaseI6recordE14init_from_fileEPKc+0x200>
    2615:	ba 01 00 00 00       	mov    $0x1,%edx
    261a:	eb af                	jmp    25cb <_ZN8DatabaseI6recordE14init_from_fileEPKc+0x16b>
    261c:	0f 1f 40 00          	nopl   0x0(%rax)
    2620:	75 2e                	jne    2650 <_ZN8DatabaseI6recordE14init_from_fileEPKc+0x1f0>
    2622:	8b 44 24 10          	mov    0x10(%rsp),%eax
    2626:	41 2b 46 10          	sub    0x10(%r14),%eax
    262a:	83 f8 00             	cmp    $0x0,%eax
    262d:	7f bc                	jg     25eb <_ZN8DatabaseI6recordE14init_from_fileEPKc+0x18b>
    262f:	0f 85 1b 01 00 00    	jne    2750 <_ZN8DatabaseI6recordE14init_from_fileEPKc+0x2f0>
    2635:	8b 44 24 2c          	mov    0x2c(%rsp),%eax
    2639:	41 2b 46 18          	sub    0x18(%r14),%eax
    263d:	83 f8 00             	cmp    $0x0,%eax
    2640:	0f 84 92 fe ff ff    	je     24d8 <_ZN8DatabaseI6recordE14init_from_fileEPKc+0x78>
    2646:	0f 9f c0             	setg   %al
    2649:	0f b6 e8             	movzbl %al,%ebp
    264c:	eb a7                	jmp    25f5 <_ZN8DatabaseI6recordE14init_from_fileEPKc+0x195>
    264e:	66 90                	xchg   %ax,%ax
    2650:	31 c0                	xor    %eax,%eax
    2652:	31 ed                	xor    %ebp,%ebp
    2654:	eb 9f                	jmp    25f5 <_ZN8DatabaseI6recordE14init_from_fileEPKc+0x195>
    2656:	4c 89 eb             	mov    %r13,%rbx
    2659:	31 ed                	xor    %ebp,%ebp
    265b:	0f 1f 44 00 00       	nopl   0x0(%rax,%rax,1)
    2660:	bf 20 00 00 00       	mov    $0x20,%edi
    2665:	e8 b6 e6 ff ff       	callq  d20 <_Znwm@plt>
    266a:	48 8b 4c 24 18       	mov    0x18(%rsp),%rcx
    266f:	48 89 44 eb 08       	mov    %rax,0x8(%rbx,%rbp,8)
    2674:	48 c7 40 10 00 00 00 	movq   $0x0,0x10(%rax)
    267b:	00 
    267c:	48 c7 40 08 00 00 00 	movq   $0x0,0x8(%rax)
    2683:	00 
    2684:	c7 40 18 00 00 00 00 	movl   $0x0,0x18(%rax)
    268b:	83 41 30 01          	addl   $0x1,0x30(%rcx)
    268f:	48 8b 4c 24 20       	mov    0x20(%rsp),%rcx
    2694:	4d 85 ff             	test   %r15,%r15
    2697:	48 89 08             	mov    %rcx,(%rax)
    269a:	0f 84 38 fe ff ff    	je     24d8 <_ZN8DatabaseI6recordE14init_from_fileEPKc+0x78>
    26a0:	49 39 c7             	cmp    %rax,%r15
    26a3:	0f 84 2f fe ff ff    	je     24d8 <_ZN8DatabaseI6recordE14init_from_fileEPKc+0x78>
    26a9:	48 8d 7c 24 60       	lea    0x60(%rsp),%rdi
    26ae:	4c 89 f9             	mov    %r15,%rcx
    26b1:	0f 1f 80 00 00 00 00 	nopl   0x0(%rax)
    26b8:	0f b6 37             	movzbl (%rdi),%esi
    26bb:	8b 51 18             	mov    0x18(%rcx),%edx
    26be:	44 8d 42 ff          	lea    -0x1(%rdx),%r8d
    26c2:	83 c2 01             	add    $0x1,%edx
    26c5:	40 84 f6             	test   %sil,%sil
    26c8:	41 0f 44 d0          	cmove  %r8d,%edx
    26cc:	48 83 c7 01          	add    $0x1,%rdi
    26d0:	89 51 18             	mov    %edx,0x18(%rcx)
    26d3:	48 8b 4c f1 08       	mov    0x8(%rcx,%rsi,8),%rcx
    26d8:	48 39 c8             	cmp    %rcx,%rax
    26db:	75 db                	jne    26b8 <_ZN8DatabaseI6recordE14init_from_fileEPKc+0x258>
    26dd:	41 8b 47 18          	mov    0x18(%r15),%eax
    26e1:	83 f8 fe             	cmp    $0xfffffffe,%eax
    26e4:	0f 84 8e 00 00 00    	je     2778 <_ZN8DatabaseI6recordE14init_from_fileEPKc+0x318>
    26ea:	83 f8 02             	cmp    $0x2,%eax
    26ed:	0f 85 e5 fd ff ff    	jne    24d8 <_ZN8DatabaseI6recordE14init_from_fileEPKc+0x78>
    26f3:	49 8b 57 10          	mov    0x10(%r15),%rdx
    26f7:	8b 4a 18             	mov    0x18(%rdx),%ecx
    26fa:	83 f9 01             	cmp    $0x1,%ecx
    26fd:	0f 84 6a 01 00 00    	je     286d <_ZN8DatabaseI6recordE14init_from_fileEPKc+0x40d>
    2703:	83 f9 ff             	cmp    $0xffffffff,%ecx
    2706:	0f 85 e9 01 00 00    	jne    28f5 <_ZN8DatabaseI6recordE14init_from_fileEPKc+0x495>
    270c:	48 8b 42 08          	mov    0x8(%rdx),%rax
    2710:	48 8b 70 10          	mov    0x10(%rax),%rsi
    2714:	48 89 72 08          	mov    %rsi,0x8(%rdx)
    2718:	48 8b 70 08          	mov    0x8(%rax),%rsi
    271c:	48 89 50 10          	mov    %rdx,0x10(%rax)
    2720:	49 89 77 10          	mov    %rsi,0x10(%r15)
    2724:	8b 70 18             	mov    0x18(%rax),%esi
    2727:	4c 89 78 08          	mov    %r15,0x8(%rax)
    272b:	83 fe 01             	cmp    $0x1,%esi
    272e:	0f 84 5c 01 00 00    	je     2890 <_ZN8DatabaseI6recordE14init_from_fileEPKc+0x430>
    2734:	85 f6                	test   %esi,%esi
    2736:	0f 85 64 01 00 00    	jne    28a0 <_ZN8DatabaseI6recordE14init_from_fileEPKc+0x440>
    273c:	41 c7 47 18 00 00 00 	movl   $0x0,0x18(%r15)
    2743:	00 
    2744:	c7 42 18 00 00 00 00 	movl   $0x0,0x18(%rdx)
    274b:	e9 80 00 00 00       	jmpq   27d0 <_ZN8DatabaseI6recordE14init_from_fileEPKc+0x370>
    2750:	31 c0                	xor    %eax,%eax
    2752:	e9 9e fe ff ff       	jmpq   25f5 <_ZN8DatabaseI6recordE14init_from_fileEPKc+0x195>
    2757:	66 0f 1f 84 00 00 00 	nopw   0x0(%rax,%rax,1)
    275e:	00 00 
    2760:	48 8b 7c 24 20       	mov    0x20(%rsp),%rdi
    2765:	48 89 c8             	mov    %rcx,%rax
    2768:	48 89 39             	mov    %rdi,(%rcx)
    276b:	48 89 79 08          	mov    %rdi,0x8(%rcx)
    276f:	e9 18 fe ff ff       	jmpq   258c <_ZN8DatabaseI6recordE14init_from_fileEPKc+0x12c>
    2774:	0f 1f 40 00          	nopl   0x0(%rax)
    2778:	49 8b 57 08          	mov    0x8(%r15),%rdx
    277c:	8b 42 18             	mov    0x18(%rdx),%eax
    277f:	83 f8 ff             	cmp    $0xffffffff,%eax
    2782:	0f 84 c2 00 00 00    	je     284a <_ZN8DatabaseI6recordE14init_from_fileEPKc+0x3ea>
    2788:	83 f8 01             	cmp    $0x1,%eax
    278b:	0f 85 88 01 00 00    	jne    2919 <_ZN8DatabaseI6recordE14init_from_fileEPKc+0x4b9>
    2791:	48 8b 42 10          	mov    0x10(%rdx),%rax
    2795:	48 8b 48 08          	mov    0x8(%rax),%rcx
    2799:	48 89 4a 10          	mov    %rcx,0x10(%rdx)
    279d:	48 8b 48 10          	mov    0x10(%rax),%rcx
    27a1:	48 89 50 08          	mov    %rdx,0x8(%rax)
    27a5:	49 89 4f 08          	mov    %rcx,0x8(%r15)
    27a9:	8b 48 18             	mov    0x18(%rax),%ecx
    27ac:	4c 89 78 10          	mov    %r15,0x10(%rax)
    27b0:	83 f9 ff             	cmp    $0xffffffff,%ecx
    27b3:	0f 84 80 00 00 00    	je     2839 <_ZN8DatabaseI6recordE14init_from_fileEPKc+0x3d9>
    27b9:	85 c9                	test   %ecx,%ecx
    27bb:	0f 84 7b ff ff ff    	je     273c <_ZN8DatabaseI6recordE14init_from_fileEPKc+0x2dc>
    27c1:	c7 42 18 ff ff ff ff 	movl   $0xffffffff,0x18(%rdx)
    27c8:	41 c7 47 18 00 00 00 	movl   $0x0,0x18(%r15)
    27cf:	00 
    27d0:	c7 40 18 00 00 00 00 	movl   $0x0,0x18(%rax)
    27d7:	48 8b 4c 24 08       	mov    0x8(%rsp),%rcx
    27dc:	31 d2                	xor    %edx,%edx
    27de:	4c 39 79 08          	cmp    %r15,0x8(%rcx)
    27e2:	0f 95 c2             	setne  %dl
    27e5:	48 89 44 d1 08       	mov    %rax,0x8(%rcx,%rdx,8)
    27ea:	e9 e9 fc ff ff       	jmpq   24d8 <_ZN8DatabaseI6recordE14init_from_fileEPKc+0x78>
    27ef:	90                   	nop
    27f0:	48 8b 7c 24 30       	mov    0x30(%rsp),%rdi
    27f5:	e8 16 e5 ff ff       	callq  d10 <fclose@plt>
    27fa:	48 8b 7c 24 40       	mov    0x40(%rsp),%rdi
    27ff:	bb 01 00 00 00       	mov    $0x1,%ebx
    2804:	48 85 ff             	test   %rdi,%rdi
    2807:	74 05                	je     280e <_ZN8DatabaseI6recordE14init_from_fileEPKc+0x3ae>
    2809:	e8 62 e5 ff ff       	callq  d70 <_ZdaPv@plt>
    280e:	48 8b bc 24 88 00 00 	mov    0x88(%rsp),%rdi
    2815:	00 
    2816:	64 48 33 3c 25 28 00 	xor    %fs:0x28,%rdi
    281d:	00 00 
    281f:	89 d8                	mov    %ebx,%eax
    2821:	0f 85 ed 00 00 00    	jne    2914 <_ZN8DatabaseI6recordE14init_from_fileEPKc+0x4b4>
    2827:	48 81 c4 98 00 00 00 	add    $0x98,%rsp
    282e:	5b                   	pop    %rbx
    282f:	5d                   	pop    %rbp
    2830:	41 5c                	pop    %r12
    2832:	41 5d                	pop    %r13
    2834:	41 5e                	pop    %r14
    2836:	41 5f                	pop    %r15
    2838:	c3                   	retq   
    2839:	c7 42 18 00 00 00 00 	movl   $0x0,0x18(%rdx)
    2840:	41 c7 47 18 01 00 00 	movl   $0x1,0x18(%r15)
    2847:	00 
    2848:	eb 86                	jmp    27d0 <_ZN8DatabaseI6recordE14init_from_fileEPKc+0x370>
    284a:	48 8b 42 10          	mov    0x10(%rdx),%rax
    284e:	49 89 47 08          	mov    %rax,0x8(%r15)
    2852:	4c 89 7a 10          	mov    %r15,0x10(%rdx)
    2856:	48 89 d0             	mov    %rdx,%rax
    2859:	41 c7 47 18 00 00 00 	movl   $0x0,0x18(%r15)
    2860:	00 
    2861:	c7 42 18 00 00 00 00 	movl   $0x0,0x18(%rdx)
    2868:	e9 6a ff ff ff       	jmpq   27d7 <_ZN8DatabaseI6recordE14init_from_fileEPKc+0x377>
    286d:	48 8b 42 08          	mov    0x8(%rdx),%rax
    2871:	49 89 47 10          	mov    %rax,0x10(%r15)
    2875:	4c 89 7a 08          	mov    %r15,0x8(%rdx)
    2879:	48 89 d0             	mov    %rdx,%rax
    287c:	41 c7 47 18 00 00 00 	movl   $0x0,0x18(%r15)
    2883:	00 
    2884:	c7 42 18 00 00 00 00 	movl   $0x0,0x18(%rdx)
    288b:	e9 47 ff ff ff       	jmpq   27d7 <_ZN8DatabaseI6recordE14init_from_fileEPKc+0x377>
    2890:	c7 42 18 00 00 00 00 	movl   $0x0,0x18(%rdx)
    2897:	41 89 4f 18          	mov    %ecx,0x18(%r15)
    289b:	e9 30 ff ff ff       	jmpq   27d0 <_ZN8DatabaseI6recordE14init_from_fileEPKc+0x370>
    28a0:	c7 42 18 01 00 00 00 	movl   $0x1,0x18(%rdx)
    28a7:	41 c7 47 18 00 00 00 	movl   $0x0,0x18(%r15)
    28ae:	00 
    28af:	e9 1c ff ff ff       	jmpq   27d0 <_ZN8DatabaseI6recordE14init_from_fileEPKc+0x370>
    28b4:	48 8d 3d 69 52 00 00 	lea    0x5269(%rip),%rdi        # 7b24 <_IO_stdin_used+0x24>
    28bb:	31 db                	xor    %ebx,%ebx
    28bd:	e8 de e4 ff ff       	callq  da0 <puts@plt>
    28c2:	e9 47 ff ff ff       	jmpq   280e <_ZN8DatabaseI6recordE14init_from_fileEPKc+0x3ae>
    28c7:	48 89 c3             	mov    %rax,%rbx
    28ca:	48 8b 7c 24 40       	mov    0x40(%rsp),%rdi
    28cf:	48 85 ff             	test   %rdi,%rdi
    28d2:	74 05                	je     28d9 <_ZN8DatabaseI6recordE14init_from_fileEPKc+0x479>
    28d4:	e8 97 e4 ff ff       	callq  d70 <_ZdaPv@plt>
    28d9:	48 89 df             	mov    %rbx,%rdi
    28dc:	e8 ef e4 ff ff       	callq  dd0 <_Unwind_Resume@plt>
    28e1:	48 8b 7c 24 20       	mov    0x20(%rsp),%rdi
    28e6:	be 30 00 00 00       	mov    $0x30,%esi
    28eb:	48 89 c3             	mov    %rax,%rbx
    28ee:	e8 3d e4 ff ff       	callq  d30 <_ZdlPvm@plt>
    28f3:	eb d5                	jmp    28ca <_ZN8DatabaseI6recordE14init_from_fileEPKc+0x46a>
    28f5:	48 8d 0d 04 5a 00 00 	lea    0x5a04(%rip),%rcx        # 8300 <_ZZN8avl_treeI9list_nodeI6recordEE9avl_probeEPS2_E19__PRETTY_FUNCTION__>
    28fc:	48 8d 35 25 52 00 00 	lea    0x5225(%rip),%rsi        # 7b28 <_IO_stdin_used+0x28>
    2903:	48 8d 3d 3a 52 00 00 	lea    0x523a(%rip),%rdi        # 7b44 <_IO_stdin_used+0x44>
    290a:	ba f8 01 00 00       	mov    $0x1f8,%edx
    290f:	e8 9c e3 ff ff       	callq  cb0 <__assert_fail@plt>
    2914:	e8 37 e4 ff ff       	callq  d50 <__stack_chk_fail@plt>
    2919:	48 8d 0d e0 59 00 00 	lea    0x59e0(%rip),%rcx        # 8300 <_ZZN8avl_treeI9list_nodeI6recordEE9avl_probeEPS2_E19__PRETTY_FUNCTION__>
    2920:	48 8d 35 01 52 00 00 	lea    0x5201(%rip),%rsi        # 7b28 <_IO_stdin_used+0x28>
    2927:	48 8d 3d 05 52 00 00 	lea    0x5205(%rip),%rdi        # 7b33 <_IO_stdin_used+0x33>
    292e:	ba d9 01 00 00       	mov    $0x1d9,%edx
    2933:	e8 78 e3 ff ff       	callq  cb0 <__assert_fail@plt>
    2938:	0f 1f 84 00 00 00 00 	nopl   0x0(%rax,%rax,1)
    293f:	00 

0000000000002940 <_ZN6db_avlI9list_nodeI6recordEE9search_eqEP8avl_nodeIS2_ERKS0_I7commandE>:
    2940:	48 85 f6             	test   %rsi,%rsi
    2943:	0f 84 80 01 00 00    	je     2ac9 <_ZN6db_avlI9list_nodeI6recordEE9search_eqEP8avl_nodeIS2_ERKS0_I7commandE+0x189>
    2949:	41 56                	push   %r14
    294b:	41 55                	push   %r13
    294d:	49 89 fd             	mov    %rdi,%r13
    2950:	41 54                	push   %r12
    2952:	49 89 d4             	mov    %rdx,%r12
    2955:	55                   	push   %rbp
    2956:	53                   	push   %rbx
    2957:	48 89 f3             	mov    %rsi,%rbx
    295a:	48 8b 2a             	mov    (%rdx),%rbp
    295d:	eb 0a                	jmp    2969 <_ZN6db_avlI9list_nodeI6recordEE9search_eqEP8avl_nodeIS2_ERKS0_I7commandE+0x29>
    295f:	90                   	nop
    2960:	48 8b 5b 10          	mov    0x10(%rbx),%rbx
    2964:	48 85 db             	test   %rbx,%rbx
    2967:	74 21                	je     298a <_ZN6db_avlI9list_nodeI6recordEE9search_eqEP8avl_nodeIS2_ERKS0_I7commandE+0x4a>
    2969:	48 8b 03             	mov    (%rbx),%rax
    296c:	48 89 ef             	mov    %rbp,%rdi
    296f:	48 8b 30             	mov    (%rax),%rsi
    2972:	e8 09 e4 ff ff       	callq  d80 <strcmp@plt>
    2977:	83 f8 00             	cmp    $0x0,%eax
    297a:	7f e4                	jg     2960 <_ZN6db_avlI9list_nodeI6recordEE9search_eqEP8avl_nodeIS2_ERKS0_I7commandE+0x20>
    297c:	4c 8b 73 08          	mov    0x8(%rbx),%r14
    2980:	74 23                	je     29a5 <_ZN6db_avlI9list_nodeI6recordEE9search_eqEP8avl_nodeIS2_ERKS0_I7commandE+0x65>
    2982:	4c 89 f3             	mov    %r14,%rbx
    2985:	48 85 db             	test   %rbx,%rbx
    2988:	75 df                	jne    2969 <_ZN6db_avlI9list_nodeI6recordEE9search_eqEP8avl_nodeIS2_ERKS0_I7commandE+0x29>
    298a:	5b                   	pop    %rbx
    298b:	5d                   	pop    %rbp
    298c:	41 5c                	pop    %r12
    298e:	41 5d                	pop    %r13
    2990:	41 5e                	pop    %r14
    2992:	c3                   	retq   
    2993:	0f 1f 44 00 00       	nopl   0x0(%rax,%rax,1)
    2998:	49 8b 76 08          	mov    0x8(%r14),%rsi
    299c:	0f 84 90 01 00 00    	je     2b32 <_ZN6db_avlI9list_nodeI6recordEE9search_eqEP8avl_nodeIS2_ERKS0_I7commandE+0x1f2>
    29a2:	49 89 f6             	mov    %rsi,%r14
    29a5:	4d 85 f6             	test   %r14,%r14
    29a8:	74 1c                	je     29c6 <_ZN6db_avlI9list_nodeI6recordEE9search_eqEP8avl_nodeIS2_ERKS0_I7commandE+0x86>
    29aa:	49 8b 06             	mov    (%r14),%rax
    29ad:	48 89 ef             	mov    %rbp,%rdi
    29b0:	48 8b 30             	mov    (%rax),%rsi
    29b3:	e8 c8 e3 ff ff       	callq  d80 <strcmp@plt>
    29b8:	83 f8 00             	cmp    $0x0,%eax
    29bb:	7e db                	jle    2998 <_ZN6db_avlI9list_nodeI6recordEE9search_eqEP8avl_nodeIS2_ERKS0_I7commandE+0x58>
    29bd:	4d 8b 76 10          	mov    0x10(%r14),%r14
    29c1:	4d 85 f6             	test   %r14,%r14
    29c4:	75 e4                	jne    29aa <_ZN6db_avlI9list_nodeI6recordEE9search_eqEP8avl_nodeIS2_ERKS0_I7commandE+0x6a>
    29c6:	48 8b 6b 10          	mov    0x10(%rbx),%rbp
    29ca:	48 85 ed             	test   %rbp,%rbp
    29cd:	74 38                	je     2a07 <_ZN6db_avlI9list_nodeI6recordEE9search_eqEP8avl_nodeIS2_ERKS0_I7commandE+0xc7>
    29cf:	4d 8b 34 24          	mov    (%r12),%r14
    29d3:	eb 0c                	jmp    29e1 <_ZN6db_avlI9list_nodeI6recordEE9search_eqEP8avl_nodeIS2_ERKS0_I7commandE+0xa1>
    29d5:	0f 1f 00             	nopl   (%rax)
    29d8:	48 8b 6d 10          	mov    0x10(%rbp),%rbp
    29dc:	48 85 ed             	test   %rbp,%rbp
    29df:	74 26                	je     2a07 <_ZN6db_avlI9list_nodeI6recordEE9search_eqEP8avl_nodeIS2_ERKS0_I7commandE+0xc7>
    29e1:	48 8b 45 00          	mov    0x0(%rbp),%rax
    29e5:	4c 89 f7             	mov    %r14,%rdi
    29e8:	48 8b 30             	mov    (%rax),%rsi
    29eb:	e8 90 e3 ff ff       	callq  d80 <strcmp@plt>
    29f0:	83 f8 00             	cmp    $0x0,%eax
    29f3:	7f e3                	jg     29d8 <_ZN6db_avlI9list_nodeI6recordEE9search_eqEP8avl_nodeIS2_ERKS0_I7commandE+0x98>
    29f5:	48 8b 75 08          	mov    0x8(%rbp),%rsi
    29f9:	0f 84 cc 00 00 00    	je     2acb <_ZN6db_avlI9list_nodeI6recordEE9search_eqEP8avl_nodeIS2_ERKS0_I7commandE+0x18b>
    29ff:	48 89 f5             	mov    %rsi,%rbp
    2a02:	48 85 ed             	test   %rbp,%rbp
    2a05:	75 da                	jne    29e1 <_ZN6db_avlI9list_nodeI6recordEE9search_eqEP8avl_nodeIS2_ERKS0_I7commandE+0xa1>
    2a07:	41 8b 44 24 28       	mov    0x28(%r12),%eax
    2a0c:	41 8b 54 24 24       	mov    0x24(%r12),%edx
    2a11:	41 8b 4c 24 20       	mov    0x20(%r12),%ecx
    2a16:	48 8b 33             	mov    (%rbx),%rsi
    2a19:	01 c1                	add    %eax,%ecx
    2a1b:	01 d1                	add    %edx,%ecx
    2a1d:	74 53                	je     2a72 <_ZN6db_avlI9list_nodeI6recordEE9search_eqEP8avl_nodeIS2_ERKS0_I7commandE+0x132>
    2a1f:	85 c0                	test   %eax,%eax
    2a21:	b9 01 00 00 00       	mov    $0x1,%ecx
    2a26:	74 78                	je     2aa0 <_ZN6db_avlI9list_nodeI6recordEE9search_eqEP8avl_nodeIS2_ERKS0_I7commandE+0x160>
    2a28:	8b 4e 18             	mov    0x18(%rsi),%ecx
    2a2b:	41 2b 4c 24 18       	sub    0x18(%r12),%ecx
    2a30:	83 f8 06             	cmp    $0x6,%eax
    2a33:	0f 87 49 02 00 00    	ja     2c82 <_ZN6db_avlI9list_nodeI6recordEE9search_eqEP8avl_nodeIS2_ERKS0_I7commandE+0x342>
    2a39:	48 8d 3d 2c 51 00 00 	lea    0x512c(%rip),%rdi        # 7b6c <_IO_stdin_used+0x6c>
    2a40:	48 63 04 87          	movslq (%rdi,%rax,4),%rax
    2a44:	48 01 f8             	add    %rdi,%rax
    2a47:	ff e0                	jmpq   *%rax
    2a49:	48 f7 d0             	not    %rax
    2a4c:	48 c1 e8 3f          	shr    $0x3f,%rax
    2a50:	01 c8                	add    %ecx,%eax
    2a52:	66 0f 1f 44 00 00    	nopw   0x0(%rax,%rax,1)
    2a58:	83 f8 02             	cmp    $0x2,%eax
    2a5b:	74 15                	je     2a72 <_ZN6db_avlI9list_nodeI6recordEE9search_eqEP8avl_nodeIS2_ERKS0_I7commandE+0x132>
    2a5d:	83 f8 01             	cmp    $0x1,%eax
    2a60:	0f 85 24 ff ff ff    	jne    298a <_ZN6db_avlI9list_nodeI6recordEE9search_eqEP8avl_nodeIS2_ERKS0_I7commandE+0x4a>
    2a66:	41 83 7c 24 2c 02    	cmpl   $0x2,0x2c(%r12)
    2a6c:	0f 85 18 ff ff ff    	jne    298a <_ZN6db_avlI9list_nodeI6recordEE9search_eqEP8avl_nodeIS2_ERKS0_I7commandE+0x4a>
    2a72:	5b                   	pop    %rbx
    2a73:	5d                   	pop    %rbp
    2a74:	41 5c                	pop    %r12
    2a76:	41 5d                	pop    %r13
    2a78:	41 5e                	pop    %r14
    2a7a:	48 8b 4e 10          	mov    0x10(%rsi),%rcx
    2a7e:	44 8b 46 18          	mov    0x18(%rsi),%r8d
    2a82:	bf 01 00 00 00       	mov    $0x1,%edi
    2a87:	48 8b 16             	mov    (%rsi),%rdx
    2a8a:	48 8d 35 c4 50 00 00 	lea    0x50c4(%rip),%rsi        # 7b55 <_IO_stdin_used+0x55>
    2a91:	31 c0                	xor    %eax,%eax
    2a93:	e9 b8 e1 ff ff       	jmpq   c50 <__printf_chk@plt>
    2a98:	85 c9                	test   %ecx,%ecx
    2a9a:	0f 9e c1             	setle  %cl
    2a9d:	0f b6 c9             	movzbl %cl,%ecx
    2aa0:	85 d2                	test   %edx,%edx
    2aa2:	8d 41 01             	lea    0x1(%rcx),%eax
    2aa5:	74 b1                	je     2a58 <_ZN6db_avlI9list_nodeI6recordEE9search_eqEP8avl_nodeIS2_ERKS0_I7commandE+0x118>
    2aa7:	48 8b 46 10          	mov    0x10(%rsi),%rax
    2aab:	49 2b 44 24 10       	sub    0x10(%r12),%rax
    2ab0:	83 fa 06             	cmp    $0x6,%edx
    2ab3:	0f 87 c1 01 00 00    	ja     2c7a <_ZN6db_avlI9list_nodeI6recordEE9search_eqEP8avl_nodeIS2_ERKS0_I7commandE+0x33a>
    2ab9:	48 8d 3d c8 50 00 00 	lea    0x50c8(%rip),%rdi        # 7b88 <_IO_stdin_used+0x88>
    2ac0:	48 63 14 97          	movslq (%rdi,%rdx,4),%rdx
    2ac4:	48 01 fa             	add    %rdi,%rdx
    2ac7:	ff e2                	jmpq   *%rdx
    2ac9:	f3 c3                	repz retq 
    2acb:	4c 89 e2             	mov    %r12,%rdx
    2ace:	4c 89 ef             	mov    %r13,%rdi
    2ad1:	e8 6a fe ff ff       	callq  2940 <_ZN6db_avlI9list_nodeI6recordEE9search_eqEP8avl_nodeIS2_ERKS0_I7commandE>
    2ad6:	48 8b 75 10          	mov    0x10(%rbp),%rsi
    2ada:	4c 89 e2             	mov    %r12,%rdx
    2add:	4c 89 ef             	mov    %r13,%rdi
    2ae0:	e8 5b fe ff ff       	callq  2940 <_ZN6db_avlI9list_nodeI6recordEE9search_eqEP8avl_nodeIS2_ERKS0_I7commandE>
    2ae5:	41 8b 44 24 28       	mov    0x28(%r12),%eax
    2aea:	41 8b 54 24 24       	mov    0x24(%r12),%edx
    2aef:	41 8b 4c 24 20       	mov    0x20(%r12),%ecx
    2af4:	48 8b 75 00          	mov    0x0(%rbp),%rsi
    2af8:	01 c1                	add    %eax,%ecx
    2afa:	01 d1                	add    %edx,%ecx
    2afc:	0f 84 e4 00 00 00    	je     2be6 <_ZN6db_avlI9list_nodeI6recordEE9search_eqEP8avl_nodeIS2_ERKS0_I7commandE+0x2a6>
    2b02:	85 c0                	test   %eax,%eax
    2b04:	bf 01 00 00 00       	mov    $0x1,%edi
    2b09:	0f 84 e4 01 00 00    	je     2cf3 <_ZN6db_avlI9list_nodeI6recordEE9search_eqEP8avl_nodeIS2_ERKS0_I7commandE+0x3b3>
    2b0f:	8b 7e 18             	mov    0x18(%rsi),%edi
    2b12:	41 2b 7c 24 18       	sub    0x18(%r12),%edi
    2b17:	83 f8 06             	cmp    $0x6,%eax
    2b1a:	0f 87 16 03 00 00    	ja     2e36 <_ZN6db_avlI9list_nodeI6recordEE9search_eqEP8avl_nodeIS2_ERKS0_I7commandE+0x4f6>
    2b20:	4c 8d 05 7d 50 00 00 	lea    0x507d(%rip),%r8        # 7ba4 <_IO_stdin_used+0xa4>
    2b27:	89 c1                	mov    %eax,%ecx
    2b29:	49 63 0c 88          	movslq (%r8,%rcx,4),%rcx
    2b2d:	4c 01 c1             	add    %r8,%rcx
    2b30:	ff e1                	jmpq   *%rcx
    2b32:	4c 89 e2             	mov    %r12,%rdx
    2b35:	4c 89 ef             	mov    %r13,%rdi
    2b38:	e8 03 fe ff ff       	callq  2940 <_ZN6db_avlI9list_nodeI6recordEE9search_eqEP8avl_nodeIS2_ERKS0_I7commandE>
    2b3d:	49 8b 76 10          	mov    0x10(%r14),%rsi
    2b41:	4c 89 e2             	mov    %r12,%rdx
    2b44:	4c 89 ef             	mov    %r13,%rdi
    2b47:	e8 f4 fd ff ff       	callq  2940 <_ZN6db_avlI9list_nodeI6recordEE9search_eqEP8avl_nodeIS2_ERKS0_I7commandE>
    2b4c:	41 8b 44 24 28       	mov    0x28(%r12),%eax
    2b51:	41 8b 54 24 24       	mov    0x24(%r12),%edx
    2b56:	41 8b 4c 24 20       	mov    0x20(%r12),%ecx
    2b5b:	49 8b 36             	mov    (%r14),%rsi
    2b5e:	01 c1                	add    %eax,%ecx
    2b60:	01 d1                	add    %edx,%ecx
    2b62:	74 3c                	je     2ba0 <_ZN6db_avlI9list_nodeI6recordEE9search_eqEP8avl_nodeIS2_ERKS0_I7commandE+0x260>
    2b64:	85 c0                	test   %eax,%eax
    2b66:	bf 01 00 00 00       	mov    $0x1,%edi
    2b6b:	0f 84 20 01 00 00    	je     2c91 <_ZN6db_avlI9list_nodeI6recordEE9search_eqEP8avl_nodeIS2_ERKS0_I7commandE+0x351>
    2b71:	8b 7e 18             	mov    0x18(%rsi),%edi
    2b74:	41 2b 7c 24 18       	sub    0x18(%r12),%edi
    2b79:	83 f8 06             	cmp    $0x6,%eax
    2b7c:	0f 87 aa 02 00 00    	ja     2e2c <_ZN6db_avlI9list_nodeI6recordEE9search_eqEP8avl_nodeIS2_ERKS0_I7commandE+0x4ec>
    2b82:	4c 8d 05 37 50 00 00 	lea    0x5037(%rip),%r8        # 7bc0 <_IO_stdin_used+0xc0>
    2b89:	89 c1                	mov    %eax,%ecx
    2b8b:	49 63 0c 88          	movslq (%r8,%rcx,4),%rcx
    2b8f:	4c 01 c1             	add    %r8,%rcx
    2b92:	ff e1                	jmpq   *%rcx
    2b94:	41 83 7c 24 2c 02    	cmpl   $0x2,0x2c(%r12)
    2b9a:	0f 85 39 01 00 00    	jne    2cd9 <_ZN6db_avlI9list_nodeI6recordEE9search_eqEP8avl_nodeIS2_ERKS0_I7commandE+0x399>
    2ba0:	48 8b 4e 10          	mov    0x10(%rsi),%rcx
    2ba4:	44 8b 46 18          	mov    0x18(%rsi),%r8d
    2ba8:	bf 01 00 00 00       	mov    $0x1,%edi
    2bad:	48 8b 16             	mov    (%rsi),%rdx
    2bb0:	48 8d 35 9e 4f 00 00 	lea    0x4f9e(%rip),%rsi        # 7b55 <_IO_stdin_used+0x55>
    2bb7:	31 c0                	xor    %eax,%eax
    2bb9:	e8 92 e0 ff ff       	callq  c50 <__printf_chk@plt>
    2bbe:	e9 03 fe ff ff       	jmpq   29c6 <_ZN6db_avlI9list_nodeI6recordEE9search_eqEP8avl_nodeIS2_ERKS0_I7commandE+0x86>
    2bc3:	48 f7 d1             	not    %rcx
    2bc6:	48 c1 e9 3f          	shr    $0x3f,%rcx
    2bca:	01 f9                	add    %edi,%ecx
    2bcc:	83 f9 02             	cmp    $0x2,%ecx
    2bcf:	74 15                	je     2be6 <_ZN6db_avlI9list_nodeI6recordEE9search_eqEP8avl_nodeIS2_ERKS0_I7commandE+0x2a6>
    2bd1:	83 f9 01             	cmp    $0x1,%ecx
    2bd4:	0f 85 0c 01 00 00    	jne    2ce6 <_ZN6db_avlI9list_nodeI6recordEE9search_eqEP8avl_nodeIS2_ERKS0_I7commandE+0x3a6>
    2bda:	41 83 7c 24 2c 02    	cmpl   $0x2,0x2c(%r12)
    2be0:	0f 85 00 01 00 00    	jne    2ce6 <_ZN6db_avlI9list_nodeI6recordEE9search_eqEP8avl_nodeIS2_ERKS0_I7commandE+0x3a6>
    2be6:	48 8b 4e 10          	mov    0x10(%rsi),%rcx
    2bea:	44 8b 46 18          	mov    0x18(%rsi),%r8d
    2bee:	bf 01 00 00 00       	mov    $0x1,%edi
    2bf3:	48 8b 16             	mov    (%rsi),%rdx
    2bf6:	48 8d 35 58 4f 00 00 	lea    0x4f58(%rip),%rsi        # 7b55 <_IO_stdin_used+0x55>
    2bfd:	31 c0                	xor    %eax,%eax
    2bff:	e8 4c e0 ff ff       	callq  c50 <__printf_chk@plt>
    2c04:	e9 fe fd ff ff       	jmpq   2a07 <_ZN6db_avlI9list_nodeI6recordEE9search_eqEP8avl_nodeIS2_ERKS0_I7commandE+0xc7>
    2c09:	f7 d1                	not    %ecx
    2c0b:	c1 e9 1f             	shr    $0x1f,%ecx
    2c0e:	e9 8d fe ff ff       	jmpq   2aa0 <_ZN6db_avlI9list_nodeI6recordEE9search_eqEP8avl_nodeIS2_ERKS0_I7commandE+0x160>
    2c13:	48 85 c0             	test   %rax,%rax
    2c16:	0f 9e c0             	setle  %al
    2c19:	0f b6 c0             	movzbl %al,%eax
    2c1c:	01 c8                	add    %ecx,%eax
    2c1e:	e9 35 fe ff ff       	jmpq   2a58 <_ZN6db_avlI9list_nodeI6recordEE9search_eqEP8avl_nodeIS2_ERKS0_I7commandE+0x118>
    2c23:	48 85 c0             	test   %rax,%rax
    2c26:	0f 95 c0             	setne  %al
    2c29:	0f b6 c0             	movzbl %al,%eax
    2c2c:	01 c8                	add    %ecx,%eax
    2c2e:	e9 25 fe ff ff       	jmpq   2a58 <_ZN6db_avlI9list_nodeI6recordEE9search_eqEP8avl_nodeIS2_ERKS0_I7commandE+0x118>
    2c33:	48 85 c0             	test   %rax,%rax
    2c36:	0f 94 c0             	sete   %al
    2c39:	0f b6 c0             	movzbl %al,%eax
    2c3c:	01 c8                	add    %ecx,%eax
    2c3e:	e9 15 fe ff ff       	jmpq   2a58 <_ZN6db_avlI9list_nodeI6recordEE9search_eqEP8avl_nodeIS2_ERKS0_I7commandE+0x118>
    2c43:	48 85 c0             	test   %rax,%rax
    2c46:	0f 9f c0             	setg   %al
    2c49:	0f b6 c0             	movzbl %al,%eax
    2c4c:	01 c8                	add    %ecx,%eax
    2c4e:	e9 05 fe ff ff       	jmpq   2a58 <_ZN6db_avlI9list_nodeI6recordEE9search_eqEP8avl_nodeIS2_ERKS0_I7commandE+0x118>
    2c53:	85 c9                	test   %ecx,%ecx
    2c55:	0f 95 c1             	setne  %cl
    2c58:	0f b6 c9             	movzbl %cl,%ecx
    2c5b:	e9 40 fe ff ff       	jmpq   2aa0 <_ZN6db_avlI9list_nodeI6recordEE9search_eqEP8avl_nodeIS2_ERKS0_I7commandE+0x160>
    2c60:	85 c9                	test   %ecx,%ecx
    2c62:	0f 94 c1             	sete   %cl
    2c65:	0f b6 c9             	movzbl %cl,%ecx
    2c68:	e9 33 fe ff ff       	jmpq   2aa0 <_ZN6db_avlI9list_nodeI6recordEE9search_eqEP8avl_nodeIS2_ERKS0_I7commandE+0x160>
    2c6d:	85 c9                	test   %ecx,%ecx
    2c6f:	0f 9f c1             	setg   %cl
    2c72:	0f b6 c9             	movzbl %cl,%ecx
    2c75:	e9 26 fe ff ff       	jmpq   2aa0 <_ZN6db_avlI9list_nodeI6recordEE9search_eqEP8avl_nodeIS2_ERKS0_I7commandE+0x160>
    2c7a:	8d 41 01             	lea    0x1(%rcx),%eax
    2c7d:	e9 d6 fd ff ff       	jmpq   2a58 <_ZN6db_avlI9list_nodeI6recordEE9search_eqEP8avl_nodeIS2_ERKS0_I7commandE+0x118>
    2c82:	b9 01 00 00 00       	mov    $0x1,%ecx
    2c87:	e9 14 fe ff ff       	jmpq   2aa0 <_ZN6db_avlI9list_nodeI6recordEE9search_eqEP8avl_nodeIS2_ERKS0_I7commandE+0x160>
    2c8c:	f7 d7                	not    %edi
    2c8e:	c1 ef 1f             	shr    $0x1f,%edi
    2c91:	85 d2                	test   %edx,%edx
    2c93:	8d 4f 01             	lea    0x1(%rdi),%ecx
    2c96:	74 2f                	je     2cc7 <_ZN6db_avlI9list_nodeI6recordEE9search_eqEP8avl_nodeIS2_ERKS0_I7commandE+0x387>
    2c98:	48 8b 4e 10          	mov    0x10(%rsi),%rcx
    2c9c:	49 2b 4c 24 10       	sub    0x10(%r12),%rcx
    2ca1:	83 fa 06             	cmp    $0x6,%edx
    2ca4:	0f 87 7a 01 00 00    	ja     2e24 <_ZN6db_avlI9list_nodeI6recordEE9search_eqEP8avl_nodeIS2_ERKS0_I7commandE+0x4e4>
    2caa:	4c 8d 0d 2b 4f 00 00 	lea    0x4f2b(%rip),%r9        # 7bdc <_IO_stdin_used+0xdc>
    2cb1:	41 89 d0             	mov    %edx,%r8d
    2cb4:	4f 63 04 81          	movslq (%r9,%r8,4),%r8
    2cb8:	4d 01 c8             	add    %r9,%r8
    2cbb:	41 ff e0             	jmpq   *%r8
    2cbe:	48 f7 d1             	not    %rcx
    2cc1:	48 c1 e9 3f          	shr    $0x3f,%rcx
    2cc5:	01 f9                	add    %edi,%ecx
    2cc7:	83 f9 02             	cmp    $0x2,%ecx
    2cca:	0f 84 d0 fe ff ff    	je     2ba0 <_ZN6db_avlI9list_nodeI6recordEE9search_eqEP8avl_nodeIS2_ERKS0_I7commandE+0x260>
    2cd0:	83 f9 01             	cmp    $0x1,%ecx
    2cd3:	0f 84 bb fe ff ff    	je     2b94 <_ZN6db_avlI9list_nodeI6recordEE9search_eqEP8avl_nodeIS2_ERKS0_I7commandE+0x254>
    2cd9:	48 8b 6b 10          	mov    0x10(%rbx),%rbp
    2cdd:	48 85 ed             	test   %rbp,%rbp
    2ce0:	0f 85 e9 fc ff ff    	jne    29cf <_ZN6db_avlI9list_nodeI6recordEE9search_eqEP8avl_nodeIS2_ERKS0_I7commandE+0x8f>
    2ce6:	48 8b 33             	mov    (%rbx),%rsi
    2ce9:	e9 31 fd ff ff       	jmpq   2a1f <_ZN6db_avlI9list_nodeI6recordEE9search_eqEP8avl_nodeIS2_ERKS0_I7commandE+0xdf>
    2cee:	f7 d7                	not    %edi
    2cf0:	c1 ef 1f             	shr    $0x1f,%edi
    2cf3:	85 d2                	test   %edx,%edx
    2cf5:	8d 4f 01             	lea    0x1(%rdi),%ecx
    2cf8:	0f 84 ce fe ff ff    	je     2bcc <_ZN6db_avlI9list_nodeI6recordEE9search_eqEP8avl_nodeIS2_ERKS0_I7commandE+0x28c>
    2cfe:	48 8b 4e 10          	mov    0x10(%rsi),%rcx
    2d02:	49 2b 4c 24 10       	sub    0x10(%r12),%rcx
    2d07:	83 fa 06             	cmp    $0x6,%edx
    2d0a:	0f 87 0c 01 00 00    	ja     2e1c <_ZN6db_avlI9list_nodeI6recordEE9search_eqEP8avl_nodeIS2_ERKS0_I7commandE+0x4dc>
    2d10:	4c 8d 0d e1 4e 00 00 	lea    0x4ee1(%rip),%r9        # 7bf8 <_IO_stdin_used+0xf8>
    2d17:	41 89 d0             	mov    %edx,%r8d
    2d1a:	4f 63 04 81          	movslq (%r9,%r8,4),%r8
    2d1e:	4d 01 c8             	add    %r9,%r8
    2d21:	41 ff e0             	jmpq   *%r8
    2d24:	48 85 c9             	test   %rcx,%rcx
    2d27:	0f 95 c1             	setne  %cl
    2d2a:	0f b6 c9             	movzbl %cl,%ecx
    2d2d:	01 f9                	add    %edi,%ecx
    2d2f:	e9 98 fe ff ff       	jmpq   2bcc <_ZN6db_avlI9list_nodeI6recordEE9search_eqEP8avl_nodeIS2_ERKS0_I7commandE+0x28c>
    2d34:	48 85 c9             	test   %rcx,%rcx
    2d37:	0f 94 c1             	sete   %cl
    2d3a:	0f b6 c9             	movzbl %cl,%ecx
    2d3d:	01 f9                	add    %edi,%ecx
    2d3f:	e9 88 fe ff ff       	jmpq   2bcc <_ZN6db_avlI9list_nodeI6recordEE9search_eqEP8avl_nodeIS2_ERKS0_I7commandE+0x28c>
    2d44:	85 ff                	test   %edi,%edi
    2d46:	40 0f 9e c7          	setle  %dil
    2d4a:	40 0f b6 ff          	movzbl %dil,%edi
    2d4e:	e9 3e ff ff ff       	jmpq   2c91 <_ZN6db_avlI9list_nodeI6recordEE9search_eqEP8avl_nodeIS2_ERKS0_I7commandE+0x351>
    2d53:	48 85 c9             	test   %rcx,%rcx
    2d56:	0f 95 c1             	setne  %cl
    2d59:	0f b6 c9             	movzbl %cl,%ecx
    2d5c:	01 f9                	add    %edi,%ecx
    2d5e:	e9 64 ff ff ff       	jmpq   2cc7 <_ZN6db_avlI9list_nodeI6recordEE9search_eqEP8avl_nodeIS2_ERKS0_I7commandE+0x387>
    2d63:	48 85 c9             	test   %rcx,%rcx
    2d66:	0f 94 c1             	sete   %cl
    2d69:	0f b6 c9             	movzbl %cl,%ecx
    2d6c:	01 f9                	add    %edi,%ecx
    2d6e:	e9 54 ff ff ff       	jmpq   2cc7 <_ZN6db_avlI9list_nodeI6recordEE9search_eqEP8avl_nodeIS2_ERKS0_I7commandE+0x387>
    2d73:	48 85 c9             	test   %rcx,%rcx
    2d76:	0f 9e c1             	setle  %cl
    2d79:	0f b6 c9             	movzbl %cl,%ecx
    2d7c:	01 f9                	add    %edi,%ecx
    2d7e:	e9 49 fe ff ff       	jmpq   2bcc <_ZN6db_avlI9list_nodeI6recordEE9search_eqEP8avl_nodeIS2_ERKS0_I7commandE+0x28c>
    2d83:	48 85 c9             	test   %rcx,%rcx
    2d86:	0f 9f c1             	setg   %cl
    2d89:	0f b6 c9             	movzbl %cl,%ecx
    2d8c:	01 f9                	add    %edi,%ecx
    2d8e:	e9 39 fe ff ff       	jmpq   2bcc <_ZN6db_avlI9list_nodeI6recordEE9search_eqEP8avl_nodeIS2_ERKS0_I7commandE+0x28c>
    2d93:	85 ff                	test   %edi,%edi
    2d95:	40 0f 95 c7          	setne  %dil
    2d99:	40 0f b6 ff          	movzbl %dil,%edi
    2d9d:	e9 ef fe ff ff       	jmpq   2c91 <_ZN6db_avlI9list_nodeI6recordEE9search_eqEP8avl_nodeIS2_ERKS0_I7commandE+0x351>
    2da2:	85 ff                	test   %edi,%edi
    2da4:	40 0f 94 c7          	sete   %dil
    2da8:	40 0f b6 ff          	movzbl %dil,%edi
    2dac:	e9 e0 fe ff ff       	jmpq   2c91 <_ZN6db_avlI9list_nodeI6recordEE9search_eqEP8avl_nodeIS2_ERKS0_I7commandE+0x351>
    2db1:	85 ff                	test   %edi,%edi
    2db3:	40 0f 9f c7          	setg   %dil
    2db7:	40 0f b6 ff          	movzbl %dil,%edi
    2dbb:	e9 d1 fe ff ff       	jmpq   2c91 <_ZN6db_avlI9list_nodeI6recordEE9search_eqEP8avl_nodeIS2_ERKS0_I7commandE+0x351>
    2dc0:	48 85 c9             	test   %rcx,%rcx
    2dc3:	0f 9e c1             	setle  %cl
    2dc6:	0f b6 c9             	movzbl %cl,%ecx
    2dc9:	01 f9                	add    %edi,%ecx
    2dcb:	e9 f7 fe ff ff       	jmpq   2cc7 <_ZN6db_avlI9list_nodeI6recordEE9search_eqEP8avl_nodeIS2_ERKS0_I7commandE+0x387>
    2dd0:	48 85 c9             	test   %rcx,%rcx
    2dd3:	0f 9f c1             	setg   %cl
    2dd6:	0f b6 c9             	movzbl %cl,%ecx
    2dd9:	01 f9                	add    %edi,%ecx
    2ddb:	e9 e7 fe ff ff       	jmpq   2cc7 <_ZN6db_avlI9list_nodeI6recordEE9search_eqEP8avl_nodeIS2_ERKS0_I7commandE+0x387>
    2de0:	85 ff                	test   %edi,%edi
    2de2:	40 0f 95 c7          	setne  %dil
    2de6:	40 0f b6 ff          	movzbl %dil,%edi
    2dea:	e9 04 ff ff ff       	jmpq   2cf3 <_ZN6db_avlI9list_nodeI6recordEE9search_eqEP8avl_nodeIS2_ERKS0_I7commandE+0x3b3>
    2def:	85 ff                	test   %edi,%edi
    2df1:	40 0f 94 c7          	sete   %dil
    2df5:	40 0f b6 ff          	movzbl %dil,%edi
    2df9:	e9 f5 fe ff ff       	jmpq   2cf3 <_ZN6db_avlI9list_nodeI6recordEE9search_eqEP8avl_nodeIS2_ERKS0_I7commandE+0x3b3>
    2dfe:	85 ff                	test   %edi,%edi
    2e00:	40 0f 9e c7          	setle  %dil
    2e04:	40 0f b6 ff          	movzbl %dil,%edi
    2e08:	e9 e6 fe ff ff       	jmpq   2cf3 <_ZN6db_avlI9list_nodeI6recordEE9search_eqEP8avl_nodeIS2_ERKS0_I7commandE+0x3b3>
    2e0d:	85 ff                	test   %edi,%edi
    2e0f:	40 0f 9f c7          	setg   %dil
    2e13:	40 0f b6 ff          	movzbl %dil,%edi
    2e17:	e9 d7 fe ff ff       	jmpq   2cf3 <_ZN6db_avlI9list_nodeI6recordEE9search_eqEP8avl_nodeIS2_ERKS0_I7commandE+0x3b3>
    2e1c:	8d 4f 01             	lea    0x1(%rdi),%ecx
    2e1f:	e9 a8 fd ff ff       	jmpq   2bcc <_ZN6db_avlI9list_nodeI6recordEE9search_eqEP8avl_nodeIS2_ERKS0_I7commandE+0x28c>
    2e24:	8d 4f 01             	lea    0x1(%rdi),%ecx
    2e27:	e9 9b fe ff ff       	jmpq   2cc7 <_ZN6db_avlI9list_nodeI6recordEE9search_eqEP8avl_nodeIS2_ERKS0_I7commandE+0x387>
    2e2c:	bf 01 00 00 00       	mov    $0x1,%edi
    2e31:	e9 5b fe ff ff       	jmpq   2c91 <_ZN6db_avlI9list_nodeI6recordEE9search_eqEP8avl_nodeIS2_ERKS0_I7commandE+0x351>
    2e36:	bf 01 00 00 00       	mov    $0x1,%edi
    2e3b:	e9 b3 fe ff ff       	jmpq   2cf3 <_ZN6db_avlI9list_nodeI6recordEE9search_eqEP8avl_nodeIS2_ERKS0_I7commandE+0x3b3>

0000000000002e40 <_ZN6db_avlI9list_nodeI6recordEE15print_and_countEP8avl_nodeIS2_ERKS0_I7commandE>:
    2e40:	41 57                	push   %r15
    2e42:	41 56                	push   %r14
    2e44:	41 55                	push   %r13
    2e46:	41 54                	push   %r12
    2e48:	55                   	push   %rbp
    2e49:	53                   	push   %rbx
    2e4a:	48 83 ec 28          	sub    $0x28,%rsp
    2e4e:	48 85 f6             	test   %rsi,%rsi
    2e51:	48 89 74 24 08       	mov    %rsi,0x8(%rsp)
    2e56:	0f 84 04 03 00 00    	je     3160 <_ZN6db_avlI9list_nodeI6recordEE15print_and_countEP8avl_nodeIS2_ERKS0_I7commandE+0x320>
    2e5c:	48 89 f0             	mov    %rsi,%rax
    2e5f:	48 89 7c 24 18       	mov    %rdi,0x18(%rsp)
    2e64:	49 89 d7             	mov    %rdx,%r15
    2e67:	48 8b 10             	mov    (%rax),%rdx
    2e6a:	41 8b 47 28          	mov    0x28(%r15),%eax
    2e6e:	41 8b 77 24          	mov    0x24(%r15),%esi
    2e72:	41 8b 4f 20          	mov    0x20(%r15),%ecx
    2e76:	01 c1                	add    %eax,%ecx
    2e78:	01 f1                	add    %esi,%ecx
    2e7a:	0f 84 d8 04 00 00    	je     3358 <_ZN6db_avlI9list_nodeI6recordEE15print_and_countEP8avl_nodeIS2_ERKS0_I7commandE+0x518>
    2e80:	85 c0                	test   %eax,%eax
    2e82:	b9 01 00 00 00       	mov    $0x1,%ecx
    2e87:	74 2f                	je     2eb8 <_ZN6db_avlI9list_nodeI6recordEE15print_and_countEP8avl_nodeIS2_ERKS0_I7commandE+0x78>
    2e89:	8b 4a 18             	mov    0x18(%rdx),%ecx
    2e8c:	41 2b 4f 18          	sub    0x18(%r15),%ecx
    2e90:	83 f8 06             	cmp    $0x6,%eax
    2e93:	0f 87 f0 05 00 00    	ja     3489 <_ZN6db_avlI9list_nodeI6recordEE15print_and_countEP8avl_nodeIS2_ERKS0_I7commandE+0x649>
    2e99:	48 8d 3d 74 4d 00 00 	lea    0x4d74(%rip),%rdi        # 7c14 <_IO_stdin_used+0x114>
    2ea0:	48 63 04 87          	movslq (%rdi,%rax,4),%rax
    2ea4:	48 01 f8             	add    %rdi,%rax
    2ea7:	ff e0                	jmpq   *%rax
    2ea9:	85 c9                	test   %ecx,%ecx
    2eab:	0f 9e c1             	setle  %cl
    2eae:	0f b6 c9             	movzbl %cl,%ecx
    2eb1:	0f 1f 80 00 00 00 00 	nopl   0x0(%rax)
    2eb8:	85 f6                	test   %esi,%esi
    2eba:	8d 41 01             	lea    0x1(%rcx),%eax
    2ebd:	74 31                	je     2ef0 <_ZN6db_avlI9list_nodeI6recordEE15print_and_countEP8avl_nodeIS2_ERKS0_I7commandE+0xb0>
    2ebf:	48 8b 42 10          	mov    0x10(%rdx),%rax
    2ec3:	49 2b 47 10          	sub    0x10(%r15),%rax
    2ec7:	83 fe 06             	cmp    $0x6,%esi
    2eca:	0f 87 b1 05 00 00    	ja     3481 <_ZN6db_avlI9list_nodeI6recordEE15print_and_countEP8avl_nodeIS2_ERKS0_I7commandE+0x641>
    2ed0:	48 8d 3d 59 4d 00 00 	lea    0x4d59(%rip),%rdi        # 7c30 <_IO_stdin_used+0x130>
    2ed7:	48 63 34 b7          	movslq (%rdi,%rsi,4),%rsi
    2edb:	48 01 fe             	add    %rdi,%rsi
    2ede:	ff e6                	jmpq   *%rsi
    2ee0:	48 f7 d0             	not    %rax
    2ee3:	48 c1 e8 3f          	shr    $0x3f,%rax
    2ee7:	01 c8                	add    %ecx,%eax
    2ee9:	0f 1f 80 00 00 00 00 	nopl   0x0(%rax)
    2ef0:	83 f8 02             	cmp    $0x2,%eax
    2ef3:	0f 84 5f 04 00 00    	je     3358 <_ZN6db_avlI9list_nodeI6recordEE15print_and_countEP8avl_nodeIS2_ERKS0_I7commandE+0x518>
    2ef9:	83 f8 01             	cmp    $0x1,%eax
    2efc:	0f 84 46 04 00 00    	je     3348 <_ZN6db_avlI9list_nodeI6recordEE15print_and_countEP8avl_nodeIS2_ERKS0_I7commandE+0x508>
    2f02:	48 8b 44 24 08       	mov    0x8(%rsp),%rax
    2f07:	4c 8b 68 08          	mov    0x8(%rax),%r13
    2f0b:	4d 85 ed             	test   %r13,%r13
    2f0e:	0f 84 35 02 00 00    	je     3149 <_ZN6db_avlI9list_nodeI6recordEE15print_and_countEP8avl_nodeIS2_ERKS0_I7commandE+0x309>
    2f14:	41 8b 47 28          	mov    0x28(%r15),%eax
    2f18:	41 8b 77 24          	mov    0x24(%r15),%esi
    2f1c:	41 8b 4f 20          	mov    0x20(%r15),%ecx
    2f20:	49 8b 55 00          	mov    0x0(%r13),%rdx
    2f24:	01 c1                	add    %eax,%ecx
    2f26:	01 f1                	add    %esi,%ecx
    2f28:	0f 84 e2 03 00 00    	je     3310 <_ZN6db_avlI9list_nodeI6recordEE15print_and_countEP8avl_nodeIS2_ERKS0_I7commandE+0x4d0>
    2f2e:	85 c0                	test   %eax,%eax
    2f30:	b9 01 00 00 00       	mov    $0x1,%ecx
    2f35:	74 29                	je     2f60 <_ZN6db_avlI9list_nodeI6recordEE15print_and_countEP8avl_nodeIS2_ERKS0_I7commandE+0x120>
    2f37:	8b 4a 18             	mov    0x18(%rdx),%ecx
    2f3a:	41 2b 4f 18          	sub    0x18(%r15),%ecx
    2f3e:	83 f8 06             	cmp    $0x6,%eax
    2f41:	0f 87 c9 04 00 00    	ja     3410 <_ZN6db_avlI9list_nodeI6recordEE15print_and_countEP8avl_nodeIS2_ERKS0_I7commandE+0x5d0>
    2f47:	48 8d 3d fe 4c 00 00 	lea    0x4cfe(%rip),%rdi        # 7c4c <_IO_stdin_used+0x14c>
    2f4e:	48 63 04 87          	movslq (%rdi,%rax,4),%rax
    2f52:	48 01 f8             	add    %rdi,%rax
    2f55:	ff e0                	jmpq   *%rax
    2f57:	f7 d1                	not    %ecx
    2f59:	c1 e9 1f             	shr    $0x1f,%ecx
    2f5c:	0f 1f 40 00          	nopl   0x0(%rax)
    2f60:	85 f6                	test   %esi,%esi
    2f62:	8d 41 01             	lea    0x1(%rcx),%eax
    2f65:	74 31                	je     2f98 <_ZN6db_avlI9list_nodeI6recordEE15print_and_countEP8avl_nodeIS2_ERKS0_I7commandE+0x158>
    2f67:	48 8b 42 10          	mov    0x10(%rdx),%rax
    2f6b:	49 2b 47 10          	sub    0x10(%r15),%rax
    2f6f:	83 fe 06             	cmp    $0x6,%esi
    2f72:	0f 87 86 04 00 00    	ja     33fe <_ZN6db_avlI9list_nodeI6recordEE15print_and_countEP8avl_nodeIS2_ERKS0_I7commandE+0x5be>
    2f78:	48 8d 1d e9 4c 00 00 	lea    0x4ce9(%rip),%rbx        # 7c68 <_IO_stdin_used+0x168>
    2f7f:	48 63 34 b3          	movslq (%rbx,%rsi,4),%rsi
    2f83:	48 01 de             	add    %rbx,%rsi
    2f86:	ff e6                	jmpq   *%rsi
    2f88:	48 f7 d0             	not    %rax
    2f8b:	48 c1 e8 3f          	shr    $0x3f,%rax
    2f8f:	01 c8                	add    %ecx,%eax
    2f91:	0f 1f 80 00 00 00 00 	nopl   0x0(%rax)
    2f98:	83 f8 02             	cmp    $0x2,%eax
    2f9b:	0f 84 6f 03 00 00    	je     3310 <_ZN6db_avlI9list_nodeI6recordEE15print_and_countEP8avl_nodeIS2_ERKS0_I7commandE+0x4d0>
    2fa1:	83 f8 01             	cmp    $0x1,%eax
    2fa4:	0f 84 56 03 00 00    	je     3300 <_ZN6db_avlI9list_nodeI6recordEE15print_and_countEP8avl_nodeIS2_ERKS0_I7commandE+0x4c0>
    2faa:	49 8b 5d 08          	mov    0x8(%r13),%rbx
    2fae:	48 85 db             	test   %rbx,%rbx
    2fb1:	0f 84 85 01 00 00    	je     313c <_ZN6db_avlI9list_nodeI6recordEE15print_and_countEP8avl_nodeIS2_ERKS0_I7commandE+0x2fc>
    2fb7:	48 8b 6c 24 18       	mov    0x18(%rsp),%rbp
    2fbc:	4c 89 6c 24 10       	mov    %r13,0x10(%rsp)
    2fc1:	41 8b 47 28          	mov    0x28(%r15),%eax
    2fc5:	41 8b 77 24          	mov    0x24(%r15),%esi
    2fc9:	41 8b 4f 20          	mov    0x20(%r15),%ecx
    2fcd:	48 8b 13             	mov    (%rbx),%rdx
    2fd0:	01 c1                	add    %eax,%ecx
    2fd2:	01 f1                	add    %esi,%ecx
    2fd4:	0f 84 6e 02 00 00    	je     3248 <_ZN6db_avlI9list_nodeI6recordEE15print_and_countEP8avl_nodeIS2_ERKS0_I7commandE+0x408>
    2fda:	85 c0                	test   %eax,%eax
    2fdc:	b9 01 00 00 00       	mov    $0x1,%ecx
    2fe1:	74 2d                	je     3010 <_ZN6db_avlI9list_nodeI6recordEE15print_and_countEP8avl_nodeIS2_ERKS0_I7commandE+0x1d0>
    2fe3:	8b 4a 18             	mov    0x18(%rdx),%ecx
    2fe6:	41 2b 4f 18          	sub    0x18(%r15),%ecx
    2fea:	83 f8 06             	cmp    $0x6,%eax
    2fed:	0f 87 8d 03 00 00    	ja     3380 <_ZN6db_avlI9list_nodeI6recordEE15print_and_countEP8avl_nodeIS2_ERKS0_I7commandE+0x540>
    2ff3:	48 8d 3d 8a 4c 00 00 	lea    0x4c8a(%rip),%rdi        # 7c84 <_IO_stdin_used+0x184>
    2ffa:	48 63 04 87          	movslq (%rdi,%rax,4),%rax
    2ffe:	48 01 f8             	add    %rdi,%rax
    3001:	ff e0                	jmpq   *%rax
    3003:	0f 1f 44 00 00       	nopl   0x0(%rax,%rax,1)
    3008:	f7 d1                	not    %ecx
    300a:	c1 e9 1f             	shr    $0x1f,%ecx
    300d:	0f 1f 00             	nopl   (%rax)
    3010:	85 f6                	test   %esi,%esi
    3012:	8d 41 01             	lea    0x1(%rcx),%eax
    3015:	74 39                	je     3050 <_ZN6db_avlI9list_nodeI6recordEE15print_and_countEP8avl_nodeIS2_ERKS0_I7commandE+0x210>
    3017:	48 8b 42 10          	mov    0x10(%rdx),%rax
    301b:	49 2b 47 10          	sub    0x10(%r15),%rax
    301f:	83 fe 06             	cmp    $0x6,%esi
    3022:	0f 87 b8 02 00 00    	ja     32e0 <_ZN6db_avlI9list_nodeI6recordEE15print_and_countEP8avl_nodeIS2_ERKS0_I7commandE+0x4a0>
    3028:	48 8d 3d 71 4c 00 00 	lea    0x4c71(%rip),%rdi        # 7ca0 <_IO_stdin_used+0x1a0>
    302f:	48 63 34 b7          	movslq (%rdi,%rsi,4),%rsi
    3033:	48 01 fe             	add    %rdi,%rsi
    3036:	ff e6                	jmpq   *%rsi
    3038:	0f 1f 84 00 00 00 00 	nopl   0x0(%rax,%rax,1)
    303f:	00 
    3040:	48 f7 d0             	not    %rax
    3043:	48 c1 e8 3f          	shr    $0x3f,%rax
    3047:	01 c8                	add    %ecx,%eax
    3049:	0f 1f 80 00 00 00 00 	nopl   0x0(%rax)
    3050:	83 f8 02             	cmp    $0x2,%eax
    3053:	0f 84 ef 01 00 00    	je     3248 <_ZN6db_avlI9list_nodeI6recordEE15print_and_countEP8avl_nodeIS2_ERKS0_I7commandE+0x408>
    3059:	83 f8 01             	cmp    $0x1,%eax
    305c:	0f 84 d6 02 00 00    	je     3338 <_ZN6db_avlI9list_nodeI6recordEE15print_and_countEP8avl_nodeIS2_ERKS0_I7commandE+0x4f8>
    3062:	4c 8b 6b 08          	mov    0x8(%rbx),%r13
    3066:	4d 85 ed             	test   %r13,%r13
    3069:	0f 84 bb 00 00 00    	je     312a <_ZN6db_avlI9list_nodeI6recordEE15print_and_countEP8avl_nodeIS2_ERKS0_I7commandE+0x2ea>
    306f:	4c 8d 25 df 4a 00 00 	lea    0x4adf(%rip),%r12        # 7b55 <_IO_stdin_used+0x55>
    3076:	4c 8d 35 3f 4c 00 00 	lea    0x4c3f(%rip),%r14        # 7cbc <_IO_stdin_used+0x1bc>
    307d:	41 8b 47 28          	mov    0x28(%r15),%eax
    3081:	41 8b 77 24          	mov    0x24(%r15),%esi
    3085:	41 8b 4f 20          	mov    0x20(%r15),%ecx
    3089:	49 8b 55 00          	mov    0x0(%r13),%rdx
    308d:	01 c1                	add    %eax,%ecx
    308f:	01 f1                	add    %esi,%ecx
    3091:	0f 84 e9 00 00 00    	je     3180 <_ZN6db_avlI9list_nodeI6recordEE15print_and_countEP8avl_nodeIS2_ERKS0_I7commandE+0x340>
    3097:	85 c0                	test   %eax,%eax
    3099:	b9 01 00 00 00       	mov    $0x1,%ecx
    309e:	74 28                	je     30c8 <_ZN6db_avlI9list_nodeI6recordEE15print_and_countEP8avl_nodeIS2_ERKS0_I7commandE+0x288>
    30a0:	8b 4a 18             	mov    0x18(%rdx),%ecx
    30a3:	41 2b 4f 18          	sub    0x18(%r15),%ecx
    30a7:	83 f8 06             	cmp    $0x6,%eax
    30aa:	0f 87 70 01 00 00    	ja     3220 <_ZN6db_avlI9list_nodeI6recordEE15print_and_countEP8avl_nodeIS2_ERKS0_I7commandE+0x3e0>
    30b0:	49 63 04 86          	movslq (%r14,%rax,4),%rax
    30b4:	4c 01 f0             	add    %r14,%rax
    30b7:	ff e0                	jmpq   *%rax
    30b9:	0f 1f 80 00 00 00 00 	nopl   0x0(%rax)
    30c0:	f7 d1                	not    %ecx
    30c2:	c1 e9 1f             	shr    $0x1f,%ecx
    30c5:	0f 1f 00             	nopl   (%rax)
    30c8:	85 f6                	test   %esi,%esi
    30ca:	8d 41 01             	lea    0x1(%rcx),%eax
    30cd:	74 31                	je     3100 <_ZN6db_avlI9list_nodeI6recordEE15print_and_countEP8avl_nodeIS2_ERKS0_I7commandE+0x2c0>
    30cf:	48 8b 42 10          	mov    0x10(%rdx),%rax
    30d3:	49 2b 47 10          	sub    0x10(%r15),%rax
    30d7:	83 fe 06             	cmp    $0x6,%esi
    30da:	0f 87 30 01 00 00    	ja     3210 <_ZN6db_avlI9list_nodeI6recordEE15print_and_countEP8avl_nodeIS2_ERKS0_I7commandE+0x3d0>
    30e0:	48 8d 3d f1 4b 00 00 	lea    0x4bf1(%rip),%rdi        # 7cd8 <_IO_stdin_used+0x1d8>
    30e7:	48 63 34 b7          	movslq (%rdi,%rsi,4),%rsi
    30eb:	48 01 fe             	add    %rdi,%rsi
    30ee:	ff e6                	jmpq   *%rsi
    30f0:	48 f7 d0             	not    %rax
    30f3:	48 c1 e8 3f          	shr    $0x3f,%rax
    30f7:	01 c8                	add    %ecx,%eax
    30f9:	0f 1f 80 00 00 00 00 	nopl   0x0(%rax)
    3100:	83 f8 02             	cmp    $0x2,%eax
    3103:	74 7b                	je     3180 <_ZN6db_avlI9list_nodeI6recordEE15print_and_countEP8avl_nodeIS2_ERKS0_I7commandE+0x340>
    3105:	83 f8 01             	cmp    $0x1,%eax
    3108:	0f 84 e2 01 00 00    	je     32f0 <_ZN6db_avlI9list_nodeI6recordEE15print_and_countEP8avl_nodeIS2_ERKS0_I7commandE+0x4b0>
    310e:	49 8b 75 08          	mov    0x8(%r13),%rsi
    3112:	4c 89 fa             	mov    %r15,%rdx
    3115:	48 89 ef             	mov    %rbp,%rdi
    3118:	e8 23 fd ff ff       	callq  2e40 <_ZN6db_avlI9list_nodeI6recordEE15print_and_countEP8avl_nodeIS2_ERKS0_I7commandE>
    311d:	4d 8b 6d 10          	mov    0x10(%r13),%r13
    3121:	4d 85 ed             	test   %r13,%r13
    3124:	0f 85 53 ff ff ff    	jne    307d <_ZN6db_avlI9list_nodeI6recordEE15print_and_countEP8avl_nodeIS2_ERKS0_I7commandE+0x23d>
    312a:	48 8b 5b 10          	mov    0x10(%rbx),%rbx
    312e:	48 85 db             	test   %rbx,%rbx
    3131:	0f 85 8a fe ff ff    	jne    2fc1 <_ZN6db_avlI9list_nodeI6recordEE15print_and_countEP8avl_nodeIS2_ERKS0_I7commandE+0x181>
    3137:	4c 8b 6c 24 10       	mov    0x10(%rsp),%r13
    313c:	4d 8b 6d 10          	mov    0x10(%r13),%r13
    3140:	4d 85 ed             	test   %r13,%r13
    3143:	0f 85 cb fd ff ff    	jne    2f14 <_ZN6db_avlI9list_nodeI6recordEE15print_and_countEP8avl_nodeIS2_ERKS0_I7commandE+0xd4>
    3149:	48 8b 44 24 08       	mov    0x8(%rsp),%rax
    314e:	48 8b 40 10          	mov    0x10(%rax),%rax
    3152:	48 85 c0             	test   %rax,%rax
    3155:	48 89 44 24 08       	mov    %rax,0x8(%rsp)
    315a:	0f 85 07 fd ff ff    	jne    2e67 <_ZN6db_avlI9list_nodeI6recordEE15print_and_countEP8avl_nodeIS2_ERKS0_I7commandE+0x27>
    3160:	48 83 c4 28          	add    $0x28,%rsp
    3164:	5b                   	pop    %rbx
    3165:	5d                   	pop    %rbp
    3166:	41 5c                	pop    %r12
    3168:	41 5d                	pop    %r13
    316a:	41 5e                	pop    %r14
    316c:	41 5f                	pop    %r15
    316e:	c3                   	retq   
    316f:	90                   	nop
    3170:	48 85 c0             	test   %rax,%rax
    3173:	0f 95 c0             	setne  %al
    3176:	0f b6 c0             	movzbl %al,%eax
    3179:	01 c8                	add    %ecx,%eax
    317b:	83 f8 02             	cmp    $0x2,%eax
    317e:	75 85                	jne    3105 <_ZN6db_avlI9list_nodeI6recordEE15print_and_countEP8avl_nodeIS2_ERKS0_I7commandE+0x2c5>
    3180:	48 8b 4a 10          	mov    0x10(%rdx),%rcx
    3184:	44 8b 42 18          	mov    0x18(%rdx),%r8d
    3188:	4c 89 e6             	mov    %r12,%rsi
    318b:	48 8b 12             	mov    (%rdx),%rdx
    318e:	bf 01 00 00 00       	mov    $0x1,%edi
    3193:	31 c0                	xor    %eax,%eax
    3195:	e8 b6 da ff ff       	callq  c50 <__printf_chk@plt>
    319a:	e9 6f ff ff ff       	jmpq   310e <_ZN6db_avlI9list_nodeI6recordEE15print_and_countEP8avl_nodeIS2_ERKS0_I7commandE+0x2ce>
    319f:	90                   	nop
    31a0:	48 85 c0             	test   %rax,%rax
    31a3:	0f 94 c0             	sete   %al
    31a6:	0f b6 c0             	movzbl %al,%eax
    31a9:	01 c8                	add    %ecx,%eax
    31ab:	e9 50 ff ff ff       	jmpq   3100 <_ZN6db_avlI9list_nodeI6recordEE15print_and_countEP8avl_nodeIS2_ERKS0_I7commandE+0x2c0>
    31b0:	48 85 c0             	test   %rax,%rax
    31b3:	0f 9e c0             	setle  %al
    31b6:	0f b6 c0             	movzbl %al,%eax
    31b9:	01 c8                	add    %ecx,%eax
    31bb:	e9 40 ff ff ff       	jmpq   3100 <_ZN6db_avlI9list_nodeI6recordEE15print_and_countEP8avl_nodeIS2_ERKS0_I7commandE+0x2c0>
    31c0:	48 85 c0             	test   %rax,%rax
    31c3:	0f 9f c0             	setg   %al
    31c6:	0f b6 c0             	movzbl %al,%eax
    31c9:	01 c8                	add    %ecx,%eax
    31cb:	e9 30 ff ff ff       	jmpq   3100 <_ZN6db_avlI9list_nodeI6recordEE15print_and_countEP8avl_nodeIS2_ERKS0_I7commandE+0x2c0>
    31d0:	85 c9                	test   %ecx,%ecx
    31d2:	0f 95 c1             	setne  %cl
    31d5:	0f b6 c9             	movzbl %cl,%ecx
    31d8:	e9 eb fe ff ff       	jmpq   30c8 <_ZN6db_avlI9list_nodeI6recordEE15print_and_countEP8avl_nodeIS2_ERKS0_I7commandE+0x288>
    31dd:	0f 1f 00             	nopl   (%rax)
    31e0:	85 c9                	test   %ecx,%ecx
    31e2:	0f 94 c1             	sete   %cl
    31e5:	0f b6 c9             	movzbl %cl,%ecx
    31e8:	e9 db fe ff ff       	jmpq   30c8 <_ZN6db_avlI9list_nodeI6recordEE15print_and_countEP8avl_nodeIS2_ERKS0_I7commandE+0x288>
    31ed:	0f 1f 00             	nopl   (%rax)
    31f0:	85 c9                	test   %ecx,%ecx
    31f2:	0f 9e c1             	setle  %cl
    31f5:	0f b6 c9             	movzbl %cl,%ecx
    31f8:	e9 cb fe ff ff       	jmpq   30c8 <_ZN6db_avlI9list_nodeI6recordEE15print_and_countEP8avl_nodeIS2_ERKS0_I7commandE+0x288>
    31fd:	0f 1f 00             	nopl   (%rax)
    3200:	85 c9                	test   %ecx,%ecx
    3202:	0f 9f c1             	setg   %cl
    3205:	0f b6 c9             	movzbl %cl,%ecx
    3208:	e9 bb fe ff ff       	jmpq   30c8 <_ZN6db_avlI9list_nodeI6recordEE15print_and_countEP8avl_nodeIS2_ERKS0_I7commandE+0x288>
    320d:	0f 1f 00             	nopl   (%rax)
    3210:	8d 41 01             	lea    0x1(%rcx),%eax
    3213:	e9 e8 fe ff ff       	jmpq   3100 <_ZN6db_avlI9list_nodeI6recordEE15print_and_countEP8avl_nodeIS2_ERKS0_I7commandE+0x2c0>
    3218:	0f 1f 84 00 00 00 00 	nopl   0x0(%rax,%rax,1)
    321f:	00 
    3220:	b9 01 00 00 00       	mov    $0x1,%ecx
    3225:	e9 9e fe ff ff       	jmpq   30c8 <_ZN6db_avlI9list_nodeI6recordEE15print_and_countEP8avl_nodeIS2_ERKS0_I7commandE+0x288>
    322a:	66 0f 1f 44 00 00    	nopw   0x0(%rax,%rax,1)
    3230:	48 85 c0             	test   %rax,%rax
    3233:	0f 95 c0             	setne  %al
    3236:	0f b6 c0             	movzbl %al,%eax
    3239:	01 c8                	add    %ecx,%eax
    323b:	83 f8 02             	cmp    $0x2,%eax
    323e:	0f 85 15 fe ff ff    	jne    3059 <_ZN6db_avlI9list_nodeI6recordEE15print_and_countEP8avl_nodeIS2_ERKS0_I7commandE+0x219>
    3244:	0f 1f 40 00          	nopl   0x0(%rax)
    3248:	48 8b 4a 10          	mov    0x10(%rdx),%rcx
    324c:	44 8b 42 18          	mov    0x18(%rdx),%r8d
    3250:	48 8d 35 fe 48 00 00 	lea    0x48fe(%rip),%rsi        # 7b55 <_IO_stdin_used+0x55>
    3257:	48 8b 12             	mov    (%rdx),%rdx
    325a:	bf 01 00 00 00       	mov    $0x1,%edi
    325f:	31 c0                	xor    %eax,%eax
    3261:	e8 ea d9 ff ff       	callq  c50 <__printf_chk@plt>
    3266:	e9 f7 fd ff ff       	jmpq   3062 <_ZN6db_avlI9list_nodeI6recordEE15print_and_countEP8avl_nodeIS2_ERKS0_I7commandE+0x222>
    326b:	0f 1f 44 00 00       	nopl   0x0(%rax,%rax,1)
    3270:	48 85 c0             	test   %rax,%rax
    3273:	0f 94 c0             	sete   %al
    3276:	0f b6 c0             	movzbl %al,%eax
    3279:	01 c8                	add    %ecx,%eax
    327b:	e9 d0 fd ff ff       	jmpq   3050 <_ZN6db_avlI9list_nodeI6recordEE15print_and_countEP8avl_nodeIS2_ERKS0_I7commandE+0x210>
    3280:	85 c9                	test   %ecx,%ecx
    3282:	0f 94 c1             	sete   %cl
    3285:	0f b6 c9             	movzbl %cl,%ecx
    3288:	e9 83 fd ff ff       	jmpq   3010 <_ZN6db_avlI9list_nodeI6recordEE15print_and_countEP8avl_nodeIS2_ERKS0_I7commandE+0x1d0>
    328d:	0f 1f 00             	nopl   (%rax)
    3290:	85 c9                	test   %ecx,%ecx
    3292:	0f 95 c1             	setne  %cl
    3295:	0f b6 c9             	movzbl %cl,%ecx
    3298:	e9 73 fd ff ff       	jmpq   3010 <_ZN6db_avlI9list_nodeI6recordEE15print_and_countEP8avl_nodeIS2_ERKS0_I7commandE+0x1d0>
    329d:	0f 1f 00             	nopl   (%rax)
    32a0:	48 85 c0             	test   %rax,%rax
    32a3:	0f 9e c0             	setle  %al
    32a6:	0f b6 c0             	movzbl %al,%eax
    32a9:	01 c8                	add    %ecx,%eax
    32ab:	e9 a0 fd ff ff       	jmpq   3050 <_ZN6db_avlI9list_nodeI6recordEE15print_and_countEP8avl_nodeIS2_ERKS0_I7commandE+0x210>
    32b0:	48 85 c0             	test   %rax,%rax
    32b3:	0f 9f c0             	setg   %al
    32b6:	0f b6 c0             	movzbl %al,%eax
    32b9:	01 c8                	add    %ecx,%eax
    32bb:	e9 90 fd ff ff       	jmpq   3050 <_ZN6db_avlI9list_nodeI6recordEE15print_and_countEP8avl_nodeIS2_ERKS0_I7commandE+0x210>
    32c0:	85 c9                	test   %ecx,%ecx
    32c2:	0f 9e c1             	setle  %cl
    32c5:	0f b6 c9             	movzbl %cl,%ecx
    32c8:	e9 43 fd ff ff       	jmpq   3010 <_ZN6db_avlI9list_nodeI6recordEE15print_and_countEP8avl_nodeIS2_ERKS0_I7commandE+0x1d0>
    32cd:	0f 1f 00             	nopl   (%rax)
    32d0:	85 c9                	test   %ecx,%ecx
    32d2:	0f 9f c1             	setg   %cl
    32d5:	0f b6 c9             	movzbl %cl,%ecx
    32d8:	e9 33 fd ff ff       	jmpq   3010 <_ZN6db_avlI9list_nodeI6recordEE15print_and_countEP8avl_nodeIS2_ERKS0_I7commandE+0x1d0>
    32dd:	0f 1f 00             	nopl   (%rax)
    32e0:	8d 41 01             	lea    0x1(%rcx),%eax
    32e3:	e9 68 fd ff ff       	jmpq   3050 <_ZN6db_avlI9list_nodeI6recordEE15print_and_countEP8avl_nodeIS2_ERKS0_I7commandE+0x210>
    32e8:	0f 1f 84 00 00 00 00 	nopl   0x0(%rax,%rax,1)
    32ef:	00 
    32f0:	41 83 7f 2c 02       	cmpl   $0x2,0x2c(%r15)
    32f5:	0f 85 13 fe ff ff    	jne    310e <_ZN6db_avlI9list_nodeI6recordEE15print_and_countEP8avl_nodeIS2_ERKS0_I7commandE+0x2ce>
    32fb:	e9 80 fe ff ff       	jmpq   3180 <_ZN6db_avlI9list_nodeI6recordEE15print_and_countEP8avl_nodeIS2_ERKS0_I7commandE+0x340>
    3300:	41 83 7f 2c 02       	cmpl   $0x2,0x2c(%r15)
    3305:	0f 85 9f fc ff ff    	jne    2faa <_ZN6db_avlI9list_nodeI6recordEE15print_and_countEP8avl_nodeIS2_ERKS0_I7commandE+0x16a>
    330b:	0f 1f 44 00 00       	nopl   0x0(%rax,%rax,1)
    3310:	48 8b 4a 10          	mov    0x10(%rdx),%rcx
    3314:	44 8b 42 18          	mov    0x18(%rdx),%r8d
    3318:	48 8d 35 36 48 00 00 	lea    0x4836(%rip),%rsi        # 7b55 <_IO_stdin_used+0x55>
    331f:	48 8b 12             	mov    (%rdx),%rdx
    3322:	bf 01 00 00 00       	mov    $0x1,%edi
    3327:	31 c0                	xor    %eax,%eax
    3329:	e8 22 d9 ff ff       	callq  c50 <__printf_chk@plt>
    332e:	e9 77 fc ff ff       	jmpq   2faa <_ZN6db_avlI9list_nodeI6recordEE15print_and_countEP8avl_nodeIS2_ERKS0_I7commandE+0x16a>
    3333:	0f 1f 44 00 00       	nopl   0x0(%rax,%rax,1)
    3338:	41 83 7f 2c 02       	cmpl   $0x2,0x2c(%r15)
    333d:	0f 85 1f fd ff ff    	jne    3062 <_ZN6db_avlI9list_nodeI6recordEE15print_and_countEP8avl_nodeIS2_ERKS0_I7commandE+0x222>
    3343:	e9 00 ff ff ff       	jmpq   3248 <_ZN6db_avlI9list_nodeI6recordEE15print_and_countEP8avl_nodeIS2_ERKS0_I7commandE+0x408>
    3348:	41 83 7f 2c 02       	cmpl   $0x2,0x2c(%r15)
    334d:	0f 85 af fb ff ff    	jne    2f02 <_ZN6db_avlI9list_nodeI6recordEE15print_and_countEP8avl_nodeIS2_ERKS0_I7commandE+0xc2>
    3353:	0f 1f 44 00 00       	nopl   0x0(%rax,%rax,1)
    3358:	48 8b 4a 10          	mov    0x10(%rdx),%rcx
    335c:	44 8b 42 18          	mov    0x18(%rdx),%r8d
    3360:	48 8d 35 ee 47 00 00 	lea    0x47ee(%rip),%rsi        # 7b55 <_IO_stdin_used+0x55>
    3367:	48 8b 12             	mov    (%rdx),%rdx
    336a:	bf 01 00 00 00       	mov    $0x1,%edi
    336f:	31 c0                	xor    %eax,%eax
    3371:	e8 da d8 ff ff       	callq  c50 <__printf_chk@plt>
    3376:	e9 87 fb ff ff       	jmpq   2f02 <_ZN6db_avlI9list_nodeI6recordEE15print_and_countEP8avl_nodeIS2_ERKS0_I7commandE+0xc2>
    337b:	0f 1f 44 00 00       	nopl   0x0(%rax,%rax,1)
    3380:	b9 01 00 00 00       	mov    $0x1,%ecx
    3385:	e9 86 fc ff ff       	jmpq   3010 <_ZN6db_avlI9list_nodeI6recordEE15print_and_countEP8avl_nodeIS2_ERKS0_I7commandE+0x1d0>
    338a:	48 85 c0             	test   %rax,%rax
    338d:	0f 9e c0             	setle  %al
    3390:	0f b6 c0             	movzbl %al,%eax
    3393:	01 c8                	add    %ecx,%eax
    3395:	e9 fe fb ff ff       	jmpq   2f98 <_ZN6db_avlI9list_nodeI6recordEE15print_and_countEP8avl_nodeIS2_ERKS0_I7commandE+0x158>
    339a:	48 85 c0             	test   %rax,%rax
    339d:	0f 9f c0             	setg   %al
    33a0:	0f b6 c0             	movzbl %al,%eax
    33a3:	01 c8                	add    %ecx,%eax
    33a5:	e9 ee fb ff ff       	jmpq   2f98 <_ZN6db_avlI9list_nodeI6recordEE15print_and_countEP8avl_nodeIS2_ERKS0_I7commandE+0x158>
    33aa:	48 85 c0             	test   %rax,%rax
    33ad:	0f 95 c0             	setne  %al
    33b0:	0f b6 c0             	movzbl %al,%eax
    33b3:	01 c8                	add    %ecx,%eax
    33b5:	e9 de fb ff ff       	jmpq   2f98 <_ZN6db_avlI9list_nodeI6recordEE15print_and_countEP8avl_nodeIS2_ERKS0_I7commandE+0x158>
    33ba:	48 85 c0             	test   %rax,%rax
    33bd:	0f 94 c0             	sete   %al
    33c0:	0f b6 c0             	movzbl %al,%eax
    33c3:	01 c8                	add    %ecx,%eax
    33c5:	e9 ce fb ff ff       	jmpq   2f98 <_ZN6db_avlI9list_nodeI6recordEE15print_and_countEP8avl_nodeIS2_ERKS0_I7commandE+0x158>
    33ca:	85 c9                	test   %ecx,%ecx
    33cc:	0f 9e c1             	setle  %cl
    33cf:	0f b6 c9             	movzbl %cl,%ecx
    33d2:	e9 89 fb ff ff       	jmpq   2f60 <_ZN6db_avlI9list_nodeI6recordEE15print_and_countEP8avl_nodeIS2_ERKS0_I7commandE+0x120>
    33d7:	85 c9                	test   %ecx,%ecx
    33d9:	0f 9f c1             	setg   %cl
    33dc:	0f b6 c9             	movzbl %cl,%ecx
    33df:	e9 7c fb ff ff       	jmpq   2f60 <_ZN6db_avlI9list_nodeI6recordEE15print_and_countEP8avl_nodeIS2_ERKS0_I7commandE+0x120>
    33e4:	85 c9                	test   %ecx,%ecx
    33e6:	0f 95 c1             	setne  %cl
    33e9:	0f b6 c9             	movzbl %cl,%ecx
    33ec:	e9 6f fb ff ff       	jmpq   2f60 <_ZN6db_avlI9list_nodeI6recordEE15print_and_countEP8avl_nodeIS2_ERKS0_I7commandE+0x120>
    33f1:	85 c9                	test   %ecx,%ecx
    33f3:	0f 94 c1             	sete   %cl
    33f6:	0f b6 c9             	movzbl %cl,%ecx
    33f9:	e9 62 fb ff ff       	jmpq   2f60 <_ZN6db_avlI9list_nodeI6recordEE15print_and_countEP8avl_nodeIS2_ERKS0_I7commandE+0x120>
    33fe:	8d 41 01             	lea    0x1(%rcx),%eax
    3401:	e9 92 fb ff ff       	jmpq   2f98 <_ZN6db_avlI9list_nodeI6recordEE15print_and_countEP8avl_nodeIS2_ERKS0_I7commandE+0x158>
    3406:	f7 d1                	not    %ecx
    3408:	c1 e9 1f             	shr    $0x1f,%ecx
    340b:	e9 a8 fa ff ff       	jmpq   2eb8 <_ZN6db_avlI9list_nodeI6recordEE15print_and_countEP8avl_nodeIS2_ERKS0_I7commandE+0x78>
    3410:	b9 01 00 00 00       	mov    $0x1,%ecx
    3415:	e9 46 fb ff ff       	jmpq   2f60 <_ZN6db_avlI9list_nodeI6recordEE15print_and_countEP8avl_nodeIS2_ERKS0_I7commandE+0x120>
    341a:	85 c9                	test   %ecx,%ecx
    341c:	0f 9f c1             	setg   %cl
    341f:	0f b6 c9             	movzbl %cl,%ecx
    3422:	e9 91 fa ff ff       	jmpq   2eb8 <_ZN6db_avlI9list_nodeI6recordEE15print_and_countEP8avl_nodeIS2_ERKS0_I7commandE+0x78>
    3427:	85 c9                	test   %ecx,%ecx
    3429:	0f 94 c1             	sete   %cl
    342c:	0f b6 c9             	movzbl %cl,%ecx
    342f:	e9 84 fa ff ff       	jmpq   2eb8 <_ZN6db_avlI9list_nodeI6recordEE15print_and_countEP8avl_nodeIS2_ERKS0_I7commandE+0x78>
    3434:	48 85 c0             	test   %rax,%rax
    3437:	0f 9e c0             	setle  %al
    343a:	0f b6 c0             	movzbl %al,%eax
    343d:	01 c8                	add    %ecx,%eax
    343f:	e9 ac fa ff ff       	jmpq   2ef0 <_ZN6db_avlI9list_nodeI6recordEE15print_and_countEP8avl_nodeIS2_ERKS0_I7commandE+0xb0>
    3444:	48 85 c0             	test   %rax,%rax
    3447:	0f 94 c0             	sete   %al
    344a:	0f b6 c0             	movzbl %al,%eax
    344d:	01 c8                	add    %ecx,%eax
    344f:	e9 9c fa ff ff       	jmpq   2ef0 <_ZN6db_avlI9list_nodeI6recordEE15print_and_countEP8avl_nodeIS2_ERKS0_I7commandE+0xb0>
    3454:	48 85 c0             	test   %rax,%rax
    3457:	0f 95 c0             	setne  %al
    345a:	0f b6 c0             	movzbl %al,%eax
    345d:	01 c8                	add    %ecx,%eax
    345f:	e9 8c fa ff ff       	jmpq   2ef0 <_ZN6db_avlI9list_nodeI6recordEE15print_and_countEP8avl_nodeIS2_ERKS0_I7commandE+0xb0>
    3464:	48 85 c0             	test   %rax,%rax
    3467:	0f 9f c0             	setg   %al
    346a:	0f b6 c0             	movzbl %al,%eax
    346d:	01 c8                	add    %ecx,%eax
    346f:	e9 7c fa ff ff       	jmpq   2ef0 <_ZN6db_avlI9list_nodeI6recordEE15print_and_countEP8avl_nodeIS2_ERKS0_I7commandE+0xb0>
    3474:	85 c9                	test   %ecx,%ecx
    3476:	0f 95 c1             	setne  %cl
    3479:	0f b6 c9             	movzbl %cl,%ecx
    347c:	e9 37 fa ff ff       	jmpq   2eb8 <_ZN6db_avlI9list_nodeI6recordEE15print_and_countEP8avl_nodeIS2_ERKS0_I7commandE+0x78>
    3481:	8d 41 01             	lea    0x1(%rcx),%eax
    3484:	e9 67 fa ff ff       	jmpq   2ef0 <_ZN6db_avlI9list_nodeI6recordEE15print_and_countEP8avl_nodeIS2_ERKS0_I7commandE+0xb0>
    3489:	b9 01 00 00 00       	mov    $0x1,%ecx
    348e:	e9 25 fa ff ff       	jmpq   2eb8 <_ZN6db_avlI9list_nodeI6recordEE15print_and_countEP8avl_nodeIS2_ERKS0_I7commandE+0x78>
    3493:	66 2e 0f 1f 84 00 00 	nopw   %cs:0x0(%rax,%rax,1)
    349a:	00 00 00 
    349d:	0f 1f 00             	nopl   (%rax)

00000000000034a0 <_ZN6db_avlI9list_nodeI6recordEE9search_gtEP8avl_nodeIS2_ERKS0_I7commandE>:
    34a0:	41 57                	push   %r15
    34a2:	41 56                	push   %r14
    34a4:	41 55                	push   %r13
    34a6:	41 54                	push   %r12
    34a8:	55                   	push   %rbp
    34a9:	53                   	push   %rbx
    34aa:	48 83 ec 28          	sub    $0x28,%rsp
    34ae:	48 85 f6             	test   %rsi,%rsi
    34b1:	48 89 74 24 08       	mov    %rsi,0x8(%rsp)
    34b6:	0f 84 bc 00 00 00    	je     3578 <_ZN6db_avlI9list_nodeI6recordEE9search_gtEP8avl_nodeIS2_ERKS0_I7commandE+0xd8>
    34bc:	49 89 fe             	mov    %rdi,%r14
    34bf:	49 89 d7             	mov    %rdx,%r15
    34c2:	41 8b 47 20          	mov    0x20(%r15),%eax
    34c6:	83 f8 04             	cmp    $0x4,%eax
    34c9:	74 75                	je     3540 <_ZN6db_avlI9list_nodeI6recordEE9search_gtEP8avl_nodeIS2_ERKS0_I7commandE+0xa0>
    34cb:	0f 86 bf 00 00 00    	jbe    3590 <_ZN6db_avlI9list_nodeI6recordEE9search_gtEP8avl_nodeIS2_ERKS0_I7commandE+0xf0>
    34d1:	83 f8 05             	cmp    $0x5,%eax
    34d4:	0f 84 ee 00 00 00    	je     35c8 <_ZN6db_avlI9list_nodeI6recordEE9search_gtEP8avl_nodeIS2_ERKS0_I7commandE+0x128>
    34da:	83 f8 06             	cmp    $0x6,%eax
    34dd:	0f 85 95 00 00 00    	jne    3578 <_ZN6db_avlI9list_nodeI6recordEE9search_gtEP8avl_nodeIS2_ERKS0_I7commandE+0xd8>
    34e3:	48 8b 44 24 08       	mov    0x8(%rsp),%rax
    34e8:	49 8b 37             	mov    (%r15),%rsi
    34eb:	48 8b 18             	mov    (%rax),%rbx
    34ee:	48 8b 2b             	mov    (%rbx),%rbp
    34f1:	48 89 ef             	mov    %rbp,%rdi
    34f4:	e8 87 d8 ff ff       	callq  d80 <strcmp@plt>
    34f9:	85 c0                	test   %eax,%eax
    34fb:	78 61                	js     355e <_ZN6db_avlI9list_nodeI6recordEE9search_gtEP8avl_nodeIS2_ERKS0_I7commandE+0xbe>
    34fd:	41 8b 4f 28          	mov    0x28(%r15),%ecx
    3501:	41 8b 47 24          	mov    0x24(%r15),%eax
    3505:	8d 54 01 06          	lea    0x6(%rcx,%rax,1),%edx
    3509:	85 d2                	test   %edx,%edx
    350b:	0f 84 df 02 00 00    	je     37f0 <_ZN6db_avlI9list_nodeI6recordEE9search_gtEP8avl_nodeIS2_ERKS0_I7commandE+0x350>
    3511:	85 c9                	test   %ecx,%ecx
    3513:	be 01 00 00 00       	mov    $0x1,%esi
    3518:	0f 84 82 02 00 00    	je     37a0 <_ZN6db_avlI9list_nodeI6recordEE9search_gtEP8avl_nodeIS2_ERKS0_I7commandE+0x300>
    351e:	8b 73 18             	mov    0x18(%rbx),%esi
    3521:	41 2b 77 18          	sub    0x18(%r15),%esi
    3525:	83 f9 06             	cmp    $0x6,%ecx
    3528:	0f 87 c4 14 00 00    	ja     49f2 <_ZN6db_avlI9list_nodeI6recordEE9search_gtEP8avl_nodeIS2_ERKS0_I7commandE+0x1552>
    352e:	48 8d 3d bf 47 00 00 	lea    0x47bf(%rip),%rdi        # 7cf4 <_IO_stdin_used+0x1f4>
    3535:	48 63 14 8f          	movslq (%rdi,%rcx,4),%rdx
    3539:	48 01 fa             	add    %rdi,%rdx
    353c:	ff e2                	jmpq   *%rdx
    353e:	66 90                	xchg   %ax,%ax
    3540:	48 8b 44 24 08       	mov    0x8(%rsp),%rax
    3545:	49 8b 37             	mov    (%r15),%rsi
    3548:	48 8b 18             	mov    (%rax),%rbx
    354b:	48 8b 2b             	mov    (%rbx),%rbp
    354e:	48 89 ef             	mov    %rbp,%rdi
    3551:	e8 2a d8 ff ff       	callq  d80 <strcmp@plt>
    3556:	85 c0                	test   %eax,%eax
    3558:	0f 8f ca 00 00 00    	jg     3628 <_ZN6db_avlI9list_nodeI6recordEE9search_gtEP8avl_nodeIS2_ERKS0_I7commandE+0x188>
    355e:	48 8b 44 24 08       	mov    0x8(%rsp),%rax
    3563:	48 8b 40 10          	mov    0x10(%rax),%rax
    3567:	48 89 44 24 08       	mov    %rax,0x8(%rsp)
    356c:	48 83 7c 24 08 00    	cmpq   $0x0,0x8(%rsp)
    3572:	0f 85 4a ff ff ff    	jne    34c2 <_ZN6db_avlI9list_nodeI6recordEE9search_gtEP8avl_nodeIS2_ERKS0_I7commandE+0x22>
    3578:	48 83 c4 28          	add    $0x28,%rsp
    357c:	5b                   	pop    %rbx
    357d:	5d                   	pop    %rbp
    357e:	41 5c                	pop    %r12
    3580:	41 5d                	pop    %r13
    3582:	41 5e                	pop    %r14
    3584:	41 5f                	pop    %r15
    3586:	c3                   	retq   
    3587:	66 0f 1f 84 00 00 00 	nopw   0x0(%rax,%rax,1)
    358e:	00 00 
    3590:	83 f8 03             	cmp    $0x3,%eax
    3593:	75 e3                	jne    3578 <_ZN6db_avlI9list_nodeI6recordEE9search_gtEP8avl_nodeIS2_ERKS0_I7commandE+0xd8>
    3595:	48 8b 44 24 08       	mov    0x8(%rsp),%rax
    359a:	49 8b 37             	mov    (%r15),%rsi
    359d:	48 8b 18             	mov    (%rax),%rbx
    35a0:	48 8b 2b             	mov    (%rbx),%rbp
    35a3:	48 89 ef             	mov    %rbp,%rdi
    35a6:	e8 d5 d7 ff ff       	callq  d80 <strcmp@plt>
    35ab:	85 c0                	test   %eax,%eax
    35ad:	0f 88 b5 00 00 00    	js     3668 <_ZN6db_avlI9list_nodeI6recordEE9search_gtEP8avl_nodeIS2_ERKS0_I7commandE+0x1c8>
    35b3:	48 8b 44 24 08       	mov    0x8(%rsp),%rax
    35b8:	48 8b 40 08          	mov    0x8(%rax),%rax
    35bc:	48 89 44 24 08       	mov    %rax,0x8(%rsp)
    35c1:	eb a9                	jmp    356c <_ZN6db_avlI9list_nodeI6recordEE9search_gtEP8avl_nodeIS2_ERKS0_I7commandE+0xcc>
    35c3:	0f 1f 44 00 00       	nopl   0x0(%rax,%rax,1)
    35c8:	48 8b 44 24 08       	mov    0x8(%rsp),%rax
    35cd:	49 8b 37             	mov    (%r15),%rsi
    35d0:	48 8b 18             	mov    (%rax),%rbx
    35d3:	48 8b 2b             	mov    (%rbx),%rbp
    35d6:	48 89 ef             	mov    %rbp,%rdi
    35d9:	e8 a2 d7 ff ff       	callq  d80 <strcmp@plt>
    35de:	85 c0                	test   %eax,%eax
    35e0:	7f d1                	jg     35b3 <_ZN6db_avlI9list_nodeI6recordEE9search_gtEP8avl_nodeIS2_ERKS0_I7commandE+0x113>
    35e2:	41 8b 47 28          	mov    0x28(%r15),%eax
    35e6:	41 8b 4f 24          	mov    0x24(%r15),%ecx
    35ea:	8d 54 08 05          	lea    0x5(%rax,%rcx,1),%edx
    35ee:	85 d2                	test   %edx,%edx
    35f0:	0f 84 ca 03 00 00    	je     39c0 <_ZN6db_avlI9list_nodeI6recordEE9search_gtEP8avl_nodeIS2_ERKS0_I7commandE+0x520>
    35f6:	85 c0                	test   %eax,%eax
    35f8:	ba 01 00 00 00       	mov    $0x1,%edx
    35fd:	0f 84 a5 10 00 00    	je     46a8 <_ZN6db_avlI9list_nodeI6recordEE9search_gtEP8avl_nodeIS2_ERKS0_I7commandE+0x1208>
    3603:	8b 53 18             	mov    0x18(%rbx),%edx
    3606:	41 2b 57 18          	sub    0x18(%r15),%edx
    360a:	83 f8 06             	cmp    $0x6,%eax
    360d:	0f 87 03 14 00 00    	ja     4a16 <_ZN6db_avlI9list_nodeI6recordEE9search_gtEP8avl_nodeIS2_ERKS0_I7commandE+0x1576>
    3613:	48 8d 35 f6 46 00 00 	lea    0x46f6(%rip),%rsi        # 7d10 <_IO_stdin_used+0x210>
    361a:	48 63 04 86          	movslq (%rsi,%rax,4),%rax
    361e:	48 01 f0             	add    %rsi,%rax
    3621:	ff e0                	jmpq   *%rax
    3623:	0f 1f 44 00 00       	nopl   0x0(%rax,%rax,1)
    3628:	41 8b 4f 28          	mov    0x28(%r15),%ecx
    362c:	41 8b 47 24          	mov    0x24(%r15),%eax
    3630:	8d 54 01 04          	lea    0x4(%rcx,%rax,1),%edx
    3634:	85 d2                	test   %edx,%edx
    3636:	0f 84 cc 00 00 00    	je     3708 <_ZN6db_avlI9list_nodeI6recordEE9search_gtEP8avl_nodeIS2_ERKS0_I7commandE+0x268>
    363c:	85 c9                	test   %ecx,%ecx
    363e:	be 01 00 00 00       	mov    $0x1,%esi
    3643:	74 73                	je     36b8 <_ZN6db_avlI9list_nodeI6recordEE9search_gtEP8avl_nodeIS2_ERKS0_I7commandE+0x218>
    3645:	8b 73 18             	mov    0x18(%rbx),%esi
    3648:	41 2b 77 18          	sub    0x18(%r15),%esi
    364c:	83 f9 06             	cmp    $0x6,%ecx
    364f:	0f 87 93 13 00 00    	ja     49e8 <_ZN6db_avlI9list_nodeI6recordEE9search_gtEP8avl_nodeIS2_ERKS0_I7commandE+0x1548>
    3655:	48 8d 3d d0 46 00 00 	lea    0x46d0(%rip),%rdi        # 7d2c <_IO_stdin_used+0x22c>
    365c:	48 63 14 8f          	movslq (%rdi,%rcx,4),%rdx
    3660:	48 01 fa             	add    %rdi,%rdx
    3663:	ff e2                	jmpq   *%rdx
    3665:	0f 1f 00             	nopl   (%rax)
    3668:	41 8b 47 28          	mov    0x28(%r15),%eax
    366c:	41 8b 4f 24          	mov    0x24(%r15),%ecx
    3670:	8d 54 08 03          	lea    0x3(%rax,%rcx,1),%edx
    3674:	85 d2                	test   %edx,%edx
    3676:	0f 84 e4 03 00 00    	je     3a60 <_ZN6db_avlI9list_nodeI6recordEE9search_gtEP8avl_nodeIS2_ERKS0_I7commandE+0x5c0>
    367c:	85 c0                	test   %eax,%eax
    367e:	ba 01 00 00 00       	mov    $0x1,%edx
    3683:	0f 84 e7 0f 00 00    	je     4670 <_ZN6db_avlI9list_nodeI6recordEE9search_gtEP8avl_nodeIS2_ERKS0_I7commandE+0x11d0>
    3689:	8b 53 18             	mov    0x18(%rbx),%edx
    368c:	41 2b 57 18          	sub    0x18(%r15),%edx
    3690:	83 f8 06             	cmp    $0x6,%eax
    3693:	0f 87 73 13 00 00    	ja     4a0c <_ZN6db_avlI9list_nodeI6recordEE9search_gtEP8avl_nodeIS2_ERKS0_I7commandE+0x156c>
    3699:	48 8d 35 a8 46 00 00 	lea    0x46a8(%rip),%rsi        # 7d48 <_IO_stdin_used+0x248>
    36a0:	48 63 04 86          	movslq (%rsi,%rax,4),%rax
    36a4:	48 01 f0             	add    %rsi,%rax
    36a7:	ff e0                	jmpq   *%rax
    36a9:	85 f6                	test   %esi,%esi
    36ab:	40 0f 9e c6          	setle  %sil
    36af:	40 0f b6 f6          	movzbl %sil,%esi
    36b3:	0f 1f 44 00 00       	nopl   0x0(%rax,%rax,1)
    36b8:	85 c0                	test   %eax,%eax
    36ba:	8d 56 01             	lea    0x1(%rsi),%edx
    36bd:	74 31                	je     36f0 <_ZN6db_avlI9list_nodeI6recordEE9search_gtEP8avl_nodeIS2_ERKS0_I7commandE+0x250>
    36bf:	48 8b 53 10          	mov    0x10(%rbx),%rdx
    36c3:	49 2b 57 10          	sub    0x10(%r15),%rdx
    36c7:	83 f8 06             	cmp    $0x6,%eax
    36ca:	0f 87 10 13 00 00    	ja     49e0 <_ZN6db_avlI9list_nodeI6recordEE9search_gtEP8avl_nodeIS2_ERKS0_I7commandE+0x1540>
    36d0:	48 8d 0d 8d 46 00 00 	lea    0x468d(%rip),%rcx        # 7d64 <_IO_stdin_used+0x264>
    36d7:	48 63 04 81          	movslq (%rcx,%rax,4),%rax
    36db:	48 01 c8             	add    %rcx,%rax
    36de:	ff e0                	jmpq   *%rax
    36e0:	48 f7 d2             	not    %rdx
    36e3:	48 c1 ea 3f          	shr    $0x3f,%rdx
    36e7:	01 f2                	add    %esi,%edx
    36e9:	0f 1f 80 00 00 00 00 	nopl   0x0(%rax)
    36f0:	83 fa 02             	cmp    $0x2,%edx
    36f3:	74 13                	je     3708 <_ZN6db_avlI9list_nodeI6recordEE9search_gtEP8avl_nodeIS2_ERKS0_I7commandE+0x268>
    36f5:	83 fa 01             	cmp    $0x1,%edx
    36f8:	75 2c                	jne    3726 <_ZN6db_avlI9list_nodeI6recordEE9search_gtEP8avl_nodeIS2_ERKS0_I7commandE+0x286>
    36fa:	41 83 7f 2c 02       	cmpl   $0x2,0x2c(%r15)
    36ff:	75 25                	jne    3726 <_ZN6db_avlI9list_nodeI6recordEE9search_gtEP8avl_nodeIS2_ERKS0_I7commandE+0x286>
    3701:	0f 1f 80 00 00 00 00 	nopl   0x0(%rax)
    3708:	48 8b 4b 10          	mov    0x10(%rbx),%rcx
    370c:	44 8b 43 18          	mov    0x18(%rbx),%r8d
    3710:	48 8d 35 3e 44 00 00 	lea    0x443e(%rip),%rsi        # 7b55 <_IO_stdin_used+0x55>
    3717:	48 89 ea             	mov    %rbp,%rdx
    371a:	bf 01 00 00 00       	mov    $0x1,%edi
    371f:	31 c0                	xor    %eax,%eax
    3721:	e8 2a d5 ff ff       	callq  c50 <__printf_chk@plt>
    3726:	48 8b 44 24 08       	mov    0x8(%rsp),%rax
    372b:	4c 8b 68 10          	mov    0x10(%rax),%r13
    372f:	4d 85 ed             	test   %r13,%r13
    3732:	0f 84 7b fe ff ff    	je     35b3 <_ZN6db_avlI9list_nodeI6recordEE9search_gtEP8avl_nodeIS2_ERKS0_I7commandE+0x113>
    3738:	48 8d 1d 16 44 00 00 	lea    0x4416(%rip),%rbx        # 7b55 <_IO_stdin_used+0x55>
    373f:	4c 8d 25 aa 46 00 00 	lea    0x46aa(%rip),%r12        # 7df0 <_IO_stdin_used+0x2f0>
    3746:	48 8d 2d 33 46 00 00 	lea    0x4633(%rip),%rbp        # 7d80 <_IO_stdin_used+0x280>
    374d:	41 8b 57 28          	mov    0x28(%r15),%edx
    3751:	41 8b 47 24          	mov    0x24(%r15),%eax
    3755:	41 8b 4f 20          	mov    0x20(%r15),%ecx
    3759:	49 8b 75 00          	mov    0x0(%r13),%rsi
    375d:	01 d1                	add    %edx,%ecx
    375f:	01 c1                	add    %eax,%ecx
    3761:	0f 84 19 02 00 00    	je     3980 <_ZN6db_avlI9list_nodeI6recordEE9search_gtEP8avl_nodeIS2_ERKS0_I7commandE+0x4e0>
    3767:	85 d2                	test   %edx,%edx
    3769:	b9 01 00 00 00       	mov    $0x1,%ecx
    376e:	0f 84 3c 01 00 00    	je     38b0 <_ZN6db_avlI9list_nodeI6recordEE9search_gtEP8avl_nodeIS2_ERKS0_I7commandE+0x410>
    3774:	8b 4e 18             	mov    0x18(%rsi),%ecx
    3777:	41 2b 4f 18          	sub    0x18(%r15),%ecx
    377b:	83 fa 06             	cmp    $0x6,%edx
    377e:	0f 87 4c 10 00 00    	ja     47d0 <_ZN6db_avlI9list_nodeI6recordEE9search_gtEP8avl_nodeIS2_ERKS0_I7commandE+0x1330>
    3784:	48 63 54 95 00       	movslq 0x0(%rbp,%rdx,4),%rdx
    3789:	48 01 ea             	add    %rbp,%rdx
    378c:	ff e2                	jmpq   *%rdx
    378e:	85 f6                	test   %esi,%esi
    3790:	40 0f 9e c6          	setle  %sil
    3794:	40 0f b6 f6          	movzbl %sil,%esi
    3798:	0f 1f 84 00 00 00 00 	nopl   0x0(%rax,%rax,1)
    379f:	00 
    37a0:	85 c0                	test   %eax,%eax
    37a2:	8d 56 01             	lea    0x1(%rsi),%edx
    37a5:	74 31                	je     37d8 <_ZN6db_avlI9list_nodeI6recordEE9search_gtEP8avl_nodeIS2_ERKS0_I7commandE+0x338>
    37a7:	48 8b 53 10          	mov    0x10(%rbx),%rdx
    37ab:	49 2b 57 10          	sub    0x10(%r15),%rdx
    37af:	83 f8 06             	cmp    $0x6,%eax
    37b2:	0f 87 20 12 00 00    	ja     49d8 <_ZN6db_avlI9list_nodeI6recordEE9search_gtEP8avl_nodeIS2_ERKS0_I7commandE+0x1538>
    37b8:	48 8d 0d dd 45 00 00 	lea    0x45dd(%rip),%rcx        # 7d9c <_IO_stdin_used+0x29c>
    37bf:	48 63 04 81          	movslq (%rcx,%rax,4),%rax
    37c3:	48 01 c8             	add    %rcx,%rax
    37c6:	ff e0                	jmpq   *%rax
    37c8:	48 f7 d2             	not    %rdx
    37cb:	48 c1 ea 3f          	shr    $0x3f,%rdx
    37cf:	01 f2                	add    %esi,%edx
    37d1:	0f 1f 80 00 00 00 00 	nopl   0x0(%rax)
    37d8:	83 fa 02             	cmp    $0x2,%edx
    37db:	74 13                	je     37f0 <_ZN6db_avlI9list_nodeI6recordEE9search_gtEP8avl_nodeIS2_ERKS0_I7commandE+0x350>
    37dd:	83 fa 01             	cmp    $0x1,%edx
    37e0:	75 2c                	jne    380e <_ZN6db_avlI9list_nodeI6recordEE9search_gtEP8avl_nodeIS2_ERKS0_I7commandE+0x36e>
    37e2:	41 83 7f 2c 02       	cmpl   $0x2,0x2c(%r15)
    37e7:	75 25                	jne    380e <_ZN6db_avlI9list_nodeI6recordEE9search_gtEP8avl_nodeIS2_ERKS0_I7commandE+0x36e>
    37e9:	0f 1f 80 00 00 00 00 	nopl   0x0(%rax)
    37f0:	48 8b 4b 10          	mov    0x10(%rbx),%rcx
    37f4:	44 8b 43 18          	mov    0x18(%rbx),%r8d
    37f8:	48 8d 35 56 43 00 00 	lea    0x4356(%rip),%rsi        # 7b55 <_IO_stdin_used+0x55>
    37ff:	48 89 ea             	mov    %rbp,%rdx
    3802:	bf 01 00 00 00       	mov    $0x1,%edi
    3807:	31 c0                	xor    %eax,%eax
    3809:	e8 42 d4 ff ff       	callq  c50 <__printf_chk@plt>
    380e:	48 8b 44 24 08       	mov    0x8(%rsp),%rax
    3813:	4c 8b 68 10          	mov    0x10(%rax),%r13
    3817:	4d 85 ed             	test   %r13,%r13
    381a:	0f 84 93 fd ff ff    	je     35b3 <_ZN6db_avlI9list_nodeI6recordEE9search_gtEP8avl_nodeIS2_ERKS0_I7commandE+0x113>
    3820:	48 8d 1d 2e 43 00 00 	lea    0x432e(%rip),%rbx        # 7b55 <_IO_stdin_used+0x55>
    3827:	4c 8d 25 a6 45 00 00 	lea    0x45a6(%rip),%r12        # 7dd4 <_IO_stdin_used+0x2d4>
    382e:	48 8d 2d 83 45 00 00 	lea    0x4583(%rip),%rbp        # 7db8 <_IO_stdin_used+0x2b8>
    3835:	41 8b 57 28          	mov    0x28(%r15),%edx
    3839:	41 8b 47 24          	mov    0x24(%r15),%eax
    383d:	41 8b 4f 20          	mov    0x20(%r15),%ecx
    3841:	49 8b 75 00          	mov    0x0(%r13),%rsi
    3845:	01 d1                	add    %edx,%ecx
    3847:	01 c1                	add    %eax,%ecx
    3849:	0f 84 01 01 00 00    	je     3950 <_ZN6db_avlI9list_nodeI6recordEE9search_gtEP8avl_nodeIS2_ERKS0_I7commandE+0x4b0>
    384f:	85 d2                	test   %edx,%edx
    3851:	b9 01 00 00 00       	mov    $0x1,%ecx
    3856:	74 28                	je     3880 <_ZN6db_avlI9list_nodeI6recordEE9search_gtEP8avl_nodeIS2_ERKS0_I7commandE+0x3e0>
    3858:	8b 4e 18             	mov    0x18(%rsi),%ecx
    385b:	41 2b 4f 18          	sub    0x18(%r15),%ecx
    385f:	83 fa 06             	cmp    $0x6,%edx
    3862:	0f 87 72 0f 00 00    	ja     47da <_ZN6db_avlI9list_nodeI6recordEE9search_gtEP8avl_nodeIS2_ERKS0_I7commandE+0x133a>
    3868:	48 63 54 95 00       	movslq 0x0(%rbp,%rdx,4),%rdx
    386d:	48 01 ea             	add    %rbp,%rdx
    3870:	ff e2                	jmpq   *%rdx
    3872:	85 c9                	test   %ecx,%ecx
    3874:	0f 9e c1             	setle  %cl
    3877:	0f b6 c9             	movzbl %cl,%ecx
    387a:	66 0f 1f 44 00 00    	nopw   0x0(%rax,%rax,1)
    3880:	85 c0                	test   %eax,%eax
    3882:	8d 51 01             	lea    0x1(%rcx),%edx
    3885:	74 59                	je     38e0 <_ZN6db_avlI9list_nodeI6recordEE9search_gtEP8avl_nodeIS2_ERKS0_I7commandE+0x440>
    3887:	48 8b 56 10          	mov    0x10(%rsi),%rdx
    388b:	49 2b 57 10          	sub    0x10(%r15),%rdx
    388f:	83 f8 06             	cmp    $0x6,%eax
    3892:	0f 87 a6 0c 00 00    	ja     453e <_ZN6db_avlI9list_nodeI6recordEE9search_gtEP8avl_nodeIS2_ERKS0_I7commandE+0x109e>
    3898:	49 63 04 84          	movslq (%r12,%rax,4),%rax
    389c:	4c 01 e0             	add    %r12,%rax
    389f:	ff e0                	jmpq   *%rax
    38a1:	85 c9                	test   %ecx,%ecx
    38a3:	0f 9e c1             	setle  %cl
    38a6:	0f b6 c9             	movzbl %cl,%ecx
    38a9:	0f 1f 80 00 00 00 00 	nopl   0x0(%rax)
    38b0:	85 c0                	test   %eax,%eax
    38b2:	8d 51 01             	lea    0x1(%rcx),%edx
    38b5:	74 61                	je     3918 <_ZN6db_avlI9list_nodeI6recordEE9search_gtEP8avl_nodeIS2_ERKS0_I7commandE+0x478>
    38b7:	48 8b 56 10          	mov    0x10(%rsi),%rdx
    38bb:	49 2b 57 10          	sub    0x10(%r15),%rdx
    38bf:	83 f8 06             	cmp    $0x6,%eax
    38c2:	0f 87 6e 0c 00 00    	ja     4536 <_ZN6db_avlI9list_nodeI6recordEE9search_gtEP8avl_nodeIS2_ERKS0_I7commandE+0x1096>
    38c8:	49 63 04 84          	movslq (%r12,%rax,4),%rax
    38cc:	4c 01 e0             	add    %r12,%rax
    38cf:	ff e0                	jmpq   *%rax
    38d1:	48 f7 d2             	not    %rdx
    38d4:	48 c1 ea 3f          	shr    $0x3f,%rdx
    38d8:	01 ca                	add    %ecx,%edx
    38da:	66 0f 1f 44 00 00    	nopw   0x0(%rax,%rax,1)
    38e0:	83 fa 02             	cmp    $0x2,%edx
    38e3:	74 6b                	je     3950 <_ZN6db_avlI9list_nodeI6recordEE9search_gtEP8avl_nodeIS2_ERKS0_I7commandE+0x4b0>
    38e5:	83 fa 01             	cmp    $0x1,%edx
    38e8:	74 5e                	je     3948 <_ZN6db_avlI9list_nodeI6recordEE9search_gtEP8avl_nodeIS2_ERKS0_I7commandE+0x4a8>
    38ea:	49 8b 75 08          	mov    0x8(%r13),%rsi
    38ee:	4c 89 fa             	mov    %r15,%rdx
    38f1:	4c 89 f7             	mov    %r14,%rdi
    38f4:	e8 47 f5 ff ff       	callq  2e40 <_ZN6db_avlI9list_nodeI6recordEE15print_and_countEP8avl_nodeIS2_ERKS0_I7commandE>
    38f9:	4d 8b 6d 10          	mov    0x10(%r13),%r13
    38fd:	4d 85 ed             	test   %r13,%r13
    3900:	0f 85 2f ff ff ff    	jne    3835 <_ZN6db_avlI9list_nodeI6recordEE9search_gtEP8avl_nodeIS2_ERKS0_I7commandE+0x395>
    3906:	e9 a8 fc ff ff       	jmpq   35b3 <_ZN6db_avlI9list_nodeI6recordEE9search_gtEP8avl_nodeIS2_ERKS0_I7commandE+0x113>
    390b:	48 f7 d2             	not    %rdx
    390e:	48 c1 ea 3f          	shr    $0x3f,%rdx
    3912:	01 ca                	add    %ecx,%edx
    3914:	0f 1f 40 00          	nopl   0x0(%rax)
    3918:	83 fa 02             	cmp    $0x2,%edx
    391b:	74 63                	je     3980 <_ZN6db_avlI9list_nodeI6recordEE9search_gtEP8avl_nodeIS2_ERKS0_I7commandE+0x4e0>
    391d:	83 fa 01             	cmp    $0x1,%edx
    3920:	74 4e                	je     3970 <_ZN6db_avlI9list_nodeI6recordEE9search_gtEP8avl_nodeIS2_ERKS0_I7commandE+0x4d0>
    3922:	49 8b 75 08          	mov    0x8(%r13),%rsi
    3926:	4c 89 fa             	mov    %r15,%rdx
    3929:	4c 89 f7             	mov    %r14,%rdi
    392c:	e8 0f f5 ff ff       	callq  2e40 <_ZN6db_avlI9list_nodeI6recordEE15print_and_countEP8avl_nodeIS2_ERKS0_I7commandE>
    3931:	4d 8b 6d 10          	mov    0x10(%r13),%r13
    3935:	4d 85 ed             	test   %r13,%r13
    3938:	0f 85 0f fe ff ff    	jne    374d <_ZN6db_avlI9list_nodeI6recordEE9search_gtEP8avl_nodeIS2_ERKS0_I7commandE+0x2ad>
    393e:	e9 70 fc ff ff       	jmpq   35b3 <_ZN6db_avlI9list_nodeI6recordEE9search_gtEP8avl_nodeIS2_ERKS0_I7commandE+0x113>
    3943:	0f 1f 44 00 00       	nopl   0x0(%rax,%rax,1)
    3948:	41 83 7f 2c 02       	cmpl   $0x2,0x2c(%r15)
    394d:	75 9b                	jne    38ea <_ZN6db_avlI9list_nodeI6recordEE9search_gtEP8avl_nodeIS2_ERKS0_I7commandE+0x44a>
    394f:	90                   	nop
    3950:	48 8b 4e 10          	mov    0x10(%rsi),%rcx
    3954:	44 8b 46 18          	mov    0x18(%rsi),%r8d
    3958:	bf 01 00 00 00       	mov    $0x1,%edi
    395d:	48 8b 16             	mov    (%rsi),%rdx
    3960:	31 c0                	xor    %eax,%eax
    3962:	48 89 de             	mov    %rbx,%rsi
    3965:	e8 e6 d2 ff ff       	callq  c50 <__printf_chk@plt>
    396a:	e9 7b ff ff ff       	jmpq   38ea <_ZN6db_avlI9list_nodeI6recordEE9search_gtEP8avl_nodeIS2_ERKS0_I7commandE+0x44a>
    396f:	90                   	nop
    3970:	41 83 7f 2c 02       	cmpl   $0x2,0x2c(%r15)
    3975:	75 ab                	jne    3922 <_ZN6db_avlI9list_nodeI6recordEE9search_gtEP8avl_nodeIS2_ERKS0_I7commandE+0x482>
    3977:	66 0f 1f 84 00 00 00 	nopw   0x0(%rax,%rax,1)
    397e:	00 00 
    3980:	48 8b 4e 10          	mov    0x10(%rsi),%rcx
    3984:	44 8b 46 18          	mov    0x18(%rsi),%r8d
    3988:	bf 01 00 00 00       	mov    $0x1,%edi
    398d:	48 8b 16             	mov    (%rsi),%rdx
    3990:	31 c0                	xor    %eax,%eax
    3992:	48 89 de             	mov    %rbx,%rsi
    3995:	e8 b6 d2 ff ff       	callq  c50 <__printf_chk@plt>
    399a:	eb 86                	jmp    3922 <_ZN6db_avlI9list_nodeI6recordEE9search_gtEP8avl_nodeIS2_ERKS0_I7commandE+0x482>
    399c:	48 f7 d0             	not    %rax
    399f:	48 c1 e8 3f          	shr    $0x3f,%rax
    39a3:	01 d0                	add    %edx,%eax
    39a5:	0f 1f 00             	nopl   (%rax)
    39a8:	83 f8 02             	cmp    $0x2,%eax
    39ab:	74 13                	je     39c0 <_ZN6db_avlI9list_nodeI6recordEE9search_gtEP8avl_nodeIS2_ERKS0_I7commandE+0x520>
    39ad:	83 f8 01             	cmp    $0x1,%eax
    39b0:	75 2c                	jne    39de <_ZN6db_avlI9list_nodeI6recordEE9search_gtEP8avl_nodeIS2_ERKS0_I7commandE+0x53e>
    39b2:	41 83 7f 2c 02       	cmpl   $0x2,0x2c(%r15)
    39b7:	75 25                	jne    39de <_ZN6db_avlI9list_nodeI6recordEE9search_gtEP8avl_nodeIS2_ERKS0_I7commandE+0x53e>
    39b9:	0f 1f 80 00 00 00 00 	nopl   0x0(%rax)
    39c0:	48 8b 4b 10          	mov    0x10(%rbx),%rcx
    39c4:	44 8b 43 18          	mov    0x18(%rbx),%r8d
    39c8:	48 8d 35 86 41 00 00 	lea    0x4186(%rip),%rsi        # 7b55 <_IO_stdin_used+0x55>
    39cf:	48 89 ea             	mov    %rbp,%rdx
    39d2:	bf 01 00 00 00       	mov    $0x1,%edi
    39d7:	31 c0                	xor    %eax,%eax
    39d9:	e8 72 d2 ff ff       	callq  c50 <__printf_chk@plt>
    39de:	48 8b 44 24 08       	mov    0x8(%rsp),%rax
    39e3:	48 8b 40 08          	mov    0x8(%rax),%rax
    39e7:	48 85 c0             	test   %rax,%rax
    39ea:	48 89 44 24 10       	mov    %rax,0x10(%rsp)
    39ef:	0f 84 69 fb ff ff    	je     355e <_ZN6db_avlI9list_nodeI6recordEE9search_gtEP8avl_nodeIS2_ERKS0_I7commandE+0xbe>
    39f5:	48 8b 10             	mov    (%rax),%rdx
    39f8:	41 8b 47 28          	mov    0x28(%r15),%eax
    39fc:	41 8b 77 24          	mov    0x24(%r15),%esi
    3a00:	41 8b 4f 20          	mov    0x20(%r15),%ecx
    3a04:	01 c1                	add    %eax,%ecx
    3a06:	01 f1                	add    %esi,%ecx
    3a08:	0f 84 32 0c 00 00    	je     4640 <_ZN6db_avlI9list_nodeI6recordEE9search_gtEP8avl_nodeIS2_ERKS0_I7commandE+0x11a0>
    3a0e:	85 c0                	test   %eax,%eax
    3a10:	b9 01 00 00 00       	mov    $0x1,%ecx
    3a15:	0f 84 65 06 00 00    	je     4080 <_ZN6db_avlI9list_nodeI6recordEE9search_gtEP8avl_nodeIS2_ERKS0_I7commandE+0xbe0>
    3a1b:	8b 4a 18             	mov    0x18(%rdx),%ecx
    3a1e:	41 2b 4f 18          	sub    0x18(%r15),%ecx
    3a22:	83 f8 06             	cmp    $0x6,%eax
    3a25:	0f 87 c1 0e 00 00    	ja     48ec <_ZN6db_avlI9list_nodeI6recordEE9search_gtEP8avl_nodeIS2_ERKS0_I7commandE+0x144c>
    3a2b:	48 8d 3d da 43 00 00 	lea    0x43da(%rip),%rdi        # 7e0c <_IO_stdin_used+0x30c>
    3a32:	48 63 04 87          	movslq (%rdi,%rax,4),%rax
    3a36:	48 01 f8             	add    %rdi,%rax
    3a39:	ff e0                	jmpq   *%rax
    3a3b:	48 f7 d0             	not    %rax
    3a3e:	48 c1 e8 3f          	shr    $0x3f,%rax
    3a42:	01 d0                	add    %edx,%eax
    3a44:	0f 1f 40 00          	nopl   0x0(%rax)
    3a48:	83 f8 02             	cmp    $0x2,%eax
    3a4b:	74 13                	je     3a60 <_ZN6db_avlI9list_nodeI6recordEE9search_gtEP8avl_nodeIS2_ERKS0_I7commandE+0x5c0>
    3a4d:	83 f8 01             	cmp    $0x1,%eax
    3a50:	75 2c                	jne    3a7e <_ZN6db_avlI9list_nodeI6recordEE9search_gtEP8avl_nodeIS2_ERKS0_I7commandE+0x5de>
    3a52:	41 83 7f 2c 02       	cmpl   $0x2,0x2c(%r15)
    3a57:	75 25                	jne    3a7e <_ZN6db_avlI9list_nodeI6recordEE9search_gtEP8avl_nodeIS2_ERKS0_I7commandE+0x5de>
    3a59:	0f 1f 80 00 00 00 00 	nopl   0x0(%rax)
    3a60:	48 8b 4b 10          	mov    0x10(%rbx),%rcx
    3a64:	44 8b 43 18          	mov    0x18(%rbx),%r8d
    3a68:	48 8d 35 e6 40 00 00 	lea    0x40e6(%rip),%rsi        # 7b55 <_IO_stdin_used+0x55>
    3a6f:	48 89 ea             	mov    %rbp,%rdx
    3a72:	bf 01 00 00 00       	mov    $0x1,%edi
    3a77:	31 c0                	xor    %eax,%eax
    3a79:	e8 d2 d1 ff ff       	callq  c50 <__printf_chk@plt>
    3a7e:	48 8b 44 24 08       	mov    0x8(%rsp),%rax
    3a83:	48 8b 40 08          	mov    0x8(%rax),%rax
    3a87:	48 85 c0             	test   %rax,%rax
    3a8a:	48 89 44 24 10       	mov    %rax,0x10(%rsp)
    3a8f:	0f 84 c9 fa ff ff    	je     355e <_ZN6db_avlI9list_nodeI6recordEE9search_gtEP8avl_nodeIS2_ERKS0_I7commandE+0xbe>
    3a95:	48 8b 10             	mov    (%rax),%rdx
    3a98:	41 8b 47 28          	mov    0x28(%r15),%eax
    3a9c:	41 8b 77 24          	mov    0x24(%r15),%esi
    3aa0:	41 8b 4f 20          	mov    0x20(%r15),%ecx
    3aa4:	01 c1                	add    %eax,%ecx
    3aa6:	01 f1                	add    %esi,%ecx
    3aa8:	0f 84 62 0b 00 00    	je     4610 <_ZN6db_avlI9list_nodeI6recordEE9search_gtEP8avl_nodeIS2_ERKS0_I7commandE+0x1170>
    3aae:	85 c0                	test   %eax,%eax
    3ab0:	b9 01 00 00 00       	mov    $0x1,%ecx
    3ab5:	0f 84 0d 01 00 00    	je     3bc8 <_ZN6db_avlI9list_nodeI6recordEE9search_gtEP8avl_nodeIS2_ERKS0_I7commandE+0x728>
    3abb:	8b 4a 18             	mov    0x18(%rdx),%ecx
    3abe:	41 2b 4f 18          	sub    0x18(%r15),%ecx
    3ac2:	83 f8 06             	cmp    $0x6,%eax
    3ac5:	0f 87 17 0e 00 00    	ja     48e2 <_ZN6db_avlI9list_nodeI6recordEE9search_gtEP8avl_nodeIS2_ERKS0_I7commandE+0x1442>
    3acb:	48 8d 3d 56 43 00 00 	lea    0x4356(%rip),%rdi        # 7e28 <_IO_stdin_used+0x328>
    3ad2:	48 63 04 87          	movslq (%rdi,%rax,4),%rax
    3ad6:	48 01 f8             	add    %rdi,%rax
    3ad9:	ff e0                	jmpq   *%rax
    3adb:	f7 d1                	not    %ecx
    3add:	c1 e9 1f             	shr    $0x1f,%ecx
    3ae0:	e9 cb fd ff ff       	jmpq   38b0 <_ZN6db_avlI9list_nodeI6recordEE9search_gtEP8avl_nodeIS2_ERKS0_I7commandE+0x410>
    3ae5:	f7 d1                	not    %ecx
    3ae7:	c1 e9 1f             	shr    $0x1f,%ecx
    3aea:	e9 91 fd ff ff       	jmpq   3880 <_ZN6db_avlI9list_nodeI6recordEE9search_gtEP8avl_nodeIS2_ERKS0_I7commandE+0x3e0>
    3aef:	48 85 d2             	test   %rdx,%rdx
    3af2:	0f 9e c2             	setle  %dl
    3af5:	0f b6 d2             	movzbl %dl,%edx
    3af8:	01 ca                	add    %ecx,%edx
    3afa:	e9 19 fe ff ff       	jmpq   3918 <_ZN6db_avlI9list_nodeI6recordEE9search_gtEP8avl_nodeIS2_ERKS0_I7commandE+0x478>
    3aff:	48 85 d2             	test   %rdx,%rdx
    3b02:	0f 9f c2             	setg   %dl
    3b05:	0f b6 d2             	movzbl %dl,%edx
    3b08:	01 ca                	add    %ecx,%edx
    3b0a:	e9 09 fe ff ff       	jmpq   3918 <_ZN6db_avlI9list_nodeI6recordEE9search_gtEP8avl_nodeIS2_ERKS0_I7commandE+0x478>
    3b0f:	85 c9                	test   %ecx,%ecx
    3b11:	0f 95 c1             	setne  %cl
    3b14:	0f b6 c9             	movzbl %cl,%ecx
    3b17:	e9 64 fd ff ff       	jmpq   3880 <_ZN6db_avlI9list_nodeI6recordEE9search_gtEP8avl_nodeIS2_ERKS0_I7commandE+0x3e0>
    3b1c:	85 c9                	test   %ecx,%ecx
    3b1e:	0f 94 c1             	sete   %cl
    3b21:	0f b6 c9             	movzbl %cl,%ecx
    3b24:	e9 57 fd ff ff       	jmpq   3880 <_ZN6db_avlI9list_nodeI6recordEE9search_gtEP8avl_nodeIS2_ERKS0_I7commandE+0x3e0>
    3b29:	85 c9                	test   %ecx,%ecx
    3b2b:	0f 9f c1             	setg   %cl
    3b2e:	0f b6 c9             	movzbl %cl,%ecx
    3b31:	e9 4a fd ff ff       	jmpq   3880 <_ZN6db_avlI9list_nodeI6recordEE9search_gtEP8avl_nodeIS2_ERKS0_I7commandE+0x3e0>
    3b36:	48 85 d2             	test   %rdx,%rdx
    3b39:	0f 94 c2             	sete   %dl
    3b3c:	0f b6 d2             	movzbl %dl,%edx
    3b3f:	01 ca                	add    %ecx,%edx
    3b41:	e9 9a fd ff ff       	jmpq   38e0 <_ZN6db_avlI9list_nodeI6recordEE9search_gtEP8avl_nodeIS2_ERKS0_I7commandE+0x440>
    3b46:	85 c9                	test   %ecx,%ecx
    3b48:	0f 9f c1             	setg   %cl
    3b4b:	0f b6 c9             	movzbl %cl,%ecx
    3b4e:	e9 5d fd ff ff       	jmpq   38b0 <_ZN6db_avlI9list_nodeI6recordEE9search_gtEP8avl_nodeIS2_ERKS0_I7commandE+0x410>
    3b53:	85 c9                	test   %ecx,%ecx
    3b55:	0f 95 c1             	setne  %cl
    3b58:	0f b6 c9             	movzbl %cl,%ecx
    3b5b:	e9 50 fd ff ff       	jmpq   38b0 <_ZN6db_avlI9list_nodeI6recordEE9search_gtEP8avl_nodeIS2_ERKS0_I7commandE+0x410>
    3b60:	85 c9                	test   %ecx,%ecx
    3b62:	0f 94 c1             	sete   %cl
    3b65:	0f b6 c9             	movzbl %cl,%ecx
    3b68:	e9 43 fd ff ff       	jmpq   38b0 <_ZN6db_avlI9list_nodeI6recordEE9search_gtEP8avl_nodeIS2_ERKS0_I7commandE+0x410>
    3b6d:	48 85 d2             	test   %rdx,%rdx
    3b70:	0f 95 c2             	setne  %dl
    3b73:	0f b6 d2             	movzbl %dl,%edx
    3b76:	01 ca                	add    %ecx,%edx
    3b78:	e9 63 fd ff ff       	jmpq   38e0 <_ZN6db_avlI9list_nodeI6recordEE9search_gtEP8avl_nodeIS2_ERKS0_I7commandE+0x440>
    3b7d:	48 85 d2             	test   %rdx,%rdx
    3b80:	0f 9e c2             	setle  %dl
    3b83:	0f b6 d2             	movzbl %dl,%edx
    3b86:	01 ca                	add    %ecx,%edx
    3b88:	e9 53 fd ff ff       	jmpq   38e0 <_ZN6db_avlI9list_nodeI6recordEE9search_gtEP8avl_nodeIS2_ERKS0_I7commandE+0x440>
    3b8d:	48 85 d2             	test   %rdx,%rdx
    3b90:	0f 9f c2             	setg   %dl
    3b93:	0f b6 d2             	movzbl %dl,%edx
    3b96:	01 ca                	add    %ecx,%edx
    3b98:	e9 43 fd ff ff       	jmpq   38e0 <_ZN6db_avlI9list_nodeI6recordEE9search_gtEP8avl_nodeIS2_ERKS0_I7commandE+0x440>
    3b9d:	48 85 d2             	test   %rdx,%rdx
    3ba0:	0f 95 c2             	setne  %dl
    3ba3:	0f b6 d2             	movzbl %dl,%edx
    3ba6:	01 ca                	add    %ecx,%edx
    3ba8:	e9 6b fd ff ff       	jmpq   3918 <_ZN6db_avlI9list_nodeI6recordEE9search_gtEP8avl_nodeIS2_ERKS0_I7commandE+0x478>
    3bad:	48 85 d2             	test   %rdx,%rdx
    3bb0:	0f 94 c2             	sete   %dl
    3bb3:	0f b6 d2             	movzbl %dl,%edx
    3bb6:	01 ca                	add    %ecx,%edx
    3bb8:	e9 5b fd ff ff       	jmpq   3918 <_ZN6db_avlI9list_nodeI6recordEE9search_gtEP8avl_nodeIS2_ERKS0_I7commandE+0x478>
    3bbd:	f7 d1                	not    %ecx
    3bbf:	c1 e9 1f             	shr    $0x1f,%ecx
    3bc2:	66 0f 1f 44 00 00    	nopw   0x0(%rax,%rax,1)
    3bc8:	85 f6                	test   %esi,%esi
    3bca:	8d 41 01             	lea    0x1(%rcx),%eax
    3bcd:	74 31                	je     3c00 <_ZN6db_avlI9list_nodeI6recordEE9search_gtEP8avl_nodeIS2_ERKS0_I7commandE+0x760>
    3bcf:	48 8b 42 10          	mov    0x10(%rdx),%rax
    3bd3:	49 2b 47 10          	sub    0x10(%r15),%rax
    3bd7:	83 fe 06             	cmp    $0x6,%esi
    3bda:	0f 87 fa 0c 00 00    	ja     48da <_ZN6db_avlI9list_nodeI6recordEE9search_gtEP8avl_nodeIS2_ERKS0_I7commandE+0x143a>
    3be0:	48 8d 3d 5d 42 00 00 	lea    0x425d(%rip),%rdi        # 7e44 <_IO_stdin_used+0x344>
    3be7:	48 63 34 b7          	movslq (%rdi,%rsi,4),%rsi
    3beb:	48 01 fe             	add    %rdi,%rsi
    3bee:	ff e6                	jmpq   *%rsi
    3bf0:	48 f7 d0             	not    %rax
    3bf3:	48 c1 e8 3f          	shr    $0x3f,%rax
    3bf7:	01 c8                	add    %ecx,%eax
    3bf9:	0f 1f 80 00 00 00 00 	nopl   0x0(%rax)
    3c00:	83 f8 02             	cmp    $0x2,%eax
    3c03:	0f 84 07 0a 00 00    	je     4610 <_ZN6db_avlI9list_nodeI6recordEE9search_gtEP8avl_nodeIS2_ERKS0_I7commandE+0x1170>
    3c09:	83 f8 01             	cmp    $0x1,%eax
    3c0c:	0f 84 ee 09 00 00    	je     4600 <_ZN6db_avlI9list_nodeI6recordEE9search_gtEP8avl_nodeIS2_ERKS0_I7commandE+0x1160>
    3c12:	48 8b 44 24 10       	mov    0x10(%rsp),%rax
    3c17:	4c 8b 68 08          	mov    0x8(%rax),%r13
    3c1b:	4d 85 ed             	test   %r13,%r13
    3c1e:	0f 84 25 02 00 00    	je     3e49 <_ZN6db_avlI9list_nodeI6recordEE9search_gtEP8avl_nodeIS2_ERKS0_I7commandE+0x9a9>
    3c24:	41 8b 47 28          	mov    0x28(%r15),%eax
    3c28:	41 8b 77 24          	mov    0x24(%r15),%esi
    3c2c:	41 8b 4f 20          	mov    0x20(%r15),%ecx
    3c30:	49 8b 55 00          	mov    0x0(%r13),%rdx
    3c34:	01 c1                	add    %eax,%ecx
    3c36:	01 f1                	add    %esi,%ecx
    3c38:	0f 84 7a 09 00 00    	je     45b8 <_ZN6db_avlI9list_nodeI6recordEE9search_gtEP8avl_nodeIS2_ERKS0_I7commandE+0x1118>
    3c3e:	85 c0                	test   %eax,%eax
    3c40:	b9 01 00 00 00       	mov    $0x1,%ecx
    3c45:	74 29                	je     3c70 <_ZN6db_avlI9list_nodeI6recordEE9search_gtEP8avl_nodeIS2_ERKS0_I7commandE+0x7d0>
    3c47:	8b 4a 18             	mov    0x18(%rdx),%ecx
    3c4a:	41 2b 4f 18          	sub    0x18(%r15),%ecx
    3c4e:	83 f8 06             	cmp    $0x6,%eax
    3c51:	0f 87 87 0a 00 00    	ja     46de <_ZN6db_avlI9list_nodeI6recordEE9search_gtEP8avl_nodeIS2_ERKS0_I7commandE+0x123e>
    3c57:	48 8d 3d 02 42 00 00 	lea    0x4202(%rip),%rdi        # 7e60 <_IO_stdin_used+0x360>
    3c5e:	48 63 04 87          	movslq (%rdi,%rax,4),%rax
    3c62:	48 01 f8             	add    %rdi,%rax
    3c65:	ff e0                	jmpq   *%rax
    3c67:	f7 d1                	not    %ecx
    3c69:	c1 e9 1f             	shr    $0x1f,%ecx
    3c6c:	0f 1f 40 00          	nopl   0x0(%rax)
    3c70:	85 f6                	test   %esi,%esi
    3c72:	8d 41 01             	lea    0x1(%rcx),%eax
    3c75:	74 31                	je     3ca8 <_ZN6db_avlI9list_nodeI6recordEE9search_gtEP8avl_nodeIS2_ERKS0_I7commandE+0x808>
    3c77:	48 8b 42 10          	mov    0x10(%rdx),%rax
    3c7b:	49 2b 47 10          	sub    0x10(%r15),%rax
    3c7f:	83 fe 06             	cmp    $0x6,%esi
    3c82:	0f 87 e6 03 00 00    	ja     406e <_ZN6db_avlI9list_nodeI6recordEE9search_gtEP8avl_nodeIS2_ERKS0_I7commandE+0xbce>
    3c88:	48 8d 1d ed 41 00 00 	lea    0x41ed(%rip),%rbx        # 7e7c <_IO_stdin_used+0x37c>
    3c8f:	48 63 34 b3          	movslq (%rbx,%rsi,4),%rsi
    3c93:	48 01 de             	add    %rbx,%rsi
    3c96:	ff e6                	jmpq   *%rsi
    3c98:	48 f7 d0             	not    %rax
    3c9b:	48 c1 e8 3f          	shr    $0x3f,%rax
    3c9f:	01 c8                	add    %ecx,%eax
    3ca1:	0f 1f 80 00 00 00 00 	nopl   0x0(%rax)
    3ca8:	83 f8 02             	cmp    $0x2,%eax
    3cab:	0f 84 07 09 00 00    	je     45b8 <_ZN6db_avlI9list_nodeI6recordEE9search_gtEP8avl_nodeIS2_ERKS0_I7commandE+0x1118>
    3cb1:	83 f8 01             	cmp    $0x1,%eax
    3cb4:	0f 84 ee 08 00 00    	je     45a8 <_ZN6db_avlI9list_nodeI6recordEE9search_gtEP8avl_nodeIS2_ERKS0_I7commandE+0x1108>
    3cba:	49 8b 5d 08          	mov    0x8(%r13),%rbx
    3cbe:	48 85 db             	test   %rbx,%rbx
    3cc1:	0f 84 75 01 00 00    	je     3e3c <_ZN6db_avlI9list_nodeI6recordEE9search_gtEP8avl_nodeIS2_ERKS0_I7commandE+0x99c>
    3cc7:	4c 89 6c 24 18       	mov    %r13,0x18(%rsp)
    3ccc:	41 8b 47 28          	mov    0x28(%r15),%eax
    3cd0:	41 8b 77 24          	mov    0x24(%r15),%esi
    3cd4:	41 8b 4f 20          	mov    0x20(%r15),%ecx
    3cd8:	48 8b 13             	mov    (%rbx),%rdx
    3cdb:	01 c1                	add    %eax,%ecx
    3cdd:	01 f1                	add    %esi,%ecx
    3cdf:	0f 84 63 02 00 00    	je     3f48 <_ZN6db_avlI9list_nodeI6recordEE9search_gtEP8avl_nodeIS2_ERKS0_I7commandE+0xaa8>
    3ce5:	85 c0                	test   %eax,%eax
    3ce7:	b9 01 00 00 00       	mov    $0x1,%ecx
    3cec:	74 2a                	je     3d18 <_ZN6db_avlI9list_nodeI6recordEE9search_gtEP8avl_nodeIS2_ERKS0_I7commandE+0x878>
    3cee:	8b 4a 18             	mov    0x18(%rdx),%ecx
    3cf1:	41 2b 4f 18          	sub    0x18(%r15),%ecx
    3cf5:	83 f8 06             	cmp    $0x6,%eax
    3cf8:	0f 87 f2 02 00 00    	ja     3ff0 <_ZN6db_avlI9list_nodeI6recordEE9search_gtEP8avl_nodeIS2_ERKS0_I7commandE+0xb50>
    3cfe:	48 8d 3d 93 41 00 00 	lea    0x4193(%rip),%rdi        # 7e98 <_IO_stdin_used+0x398>
    3d05:	48 63 04 87          	movslq (%rdi,%rax,4),%rax
    3d09:	48 01 f8             	add    %rdi,%rax
    3d0c:	ff e0                	jmpq   *%rax
    3d0e:	66 90                	xchg   %ax,%ax
    3d10:	f7 d1                	not    %ecx
    3d12:	c1 e9 1f             	shr    $0x1f,%ecx
    3d15:	0f 1f 00             	nopl   (%rax)
    3d18:	85 f6                	test   %esi,%esi
    3d1a:	8d 41 01             	lea    0x1(%rcx),%eax
    3d1d:	74 31                	je     3d50 <_ZN6db_avlI9list_nodeI6recordEE9search_gtEP8avl_nodeIS2_ERKS0_I7commandE+0x8b0>
    3d1f:	48 8b 42 10          	mov    0x10(%rdx),%rax
    3d23:	49 2b 47 10          	sub    0x10(%r15),%rax
    3d27:	83 fe 06             	cmp    $0x6,%esi
    3d2a:	0f 87 b0 02 00 00    	ja     3fe0 <_ZN6db_avlI9list_nodeI6recordEE9search_gtEP8avl_nodeIS2_ERKS0_I7commandE+0xb40>
    3d30:	48 8d 3d 7d 41 00 00 	lea    0x417d(%rip),%rdi        # 7eb4 <_IO_stdin_used+0x3b4>
    3d37:	48 63 34 b7          	movslq (%rdi,%rsi,4),%rsi
    3d3b:	48 01 fe             	add    %rdi,%rsi
    3d3e:	ff e6                	jmpq   *%rsi
    3d40:	48 f7 d0             	not    %rax
    3d43:	48 c1 e8 3f          	shr    $0x3f,%rax
    3d47:	01 c8                	add    %ecx,%eax
    3d49:	0f 1f 80 00 00 00 00 	nopl   0x0(%rax)
    3d50:	83 f8 02             	cmp    $0x2,%eax
    3d53:	0f 84 ef 01 00 00    	je     3f48 <_ZN6db_avlI9list_nodeI6recordEE9search_gtEP8avl_nodeIS2_ERKS0_I7commandE+0xaa8>
    3d59:	83 f8 01             	cmp    $0x1,%eax
    3d5c:	0f 84 8e 08 00 00    	je     45f0 <_ZN6db_avlI9list_nodeI6recordEE9search_gtEP8avl_nodeIS2_ERKS0_I7commandE+0x1150>
    3d62:	4c 8b 6b 08          	mov    0x8(%rbx),%r13
    3d66:	4d 85 ed             	test   %r13,%r13
    3d69:	0f 84 bb 00 00 00    	je     3e2a <_ZN6db_avlI9list_nodeI6recordEE9search_gtEP8avl_nodeIS2_ERKS0_I7commandE+0x98a>
    3d6f:	48 8d 2d df 3d 00 00 	lea    0x3ddf(%rip),%rbp        # 7b55 <_IO_stdin_used+0x55>
    3d76:	4c 8d 25 53 41 00 00 	lea    0x4153(%rip),%r12        # 7ed0 <_IO_stdin_used+0x3d0>
    3d7d:	41 8b 47 28          	mov    0x28(%r15),%eax
    3d81:	41 8b 77 24          	mov    0x24(%r15),%esi
    3d85:	41 8b 4f 20          	mov    0x20(%r15),%ecx
    3d89:	49 8b 55 00          	mov    0x0(%r13),%rdx
    3d8d:	01 c1                	add    %eax,%ecx
    3d8f:	01 f1                	add    %esi,%ecx
    3d91:	0f 84 e9 00 00 00    	je     3e80 <_ZN6db_avlI9list_nodeI6recordEE9search_gtEP8avl_nodeIS2_ERKS0_I7commandE+0x9e0>
    3d97:	85 c0                	test   %eax,%eax
    3d99:	b9 01 00 00 00       	mov    $0x1,%ecx
    3d9e:	74 28                	je     3dc8 <_ZN6db_avlI9list_nodeI6recordEE9search_gtEP8avl_nodeIS2_ERKS0_I7commandE+0x928>
    3da0:	8b 4a 18             	mov    0x18(%rdx),%ecx
    3da3:	41 2b 4f 18          	sub    0x18(%r15),%ecx
    3da7:	83 f8 06             	cmp    $0x6,%eax
    3daa:	0f 87 70 01 00 00    	ja     3f20 <_ZN6db_avlI9list_nodeI6recordEE9search_gtEP8avl_nodeIS2_ERKS0_I7commandE+0xa80>
    3db0:	49 63 04 84          	movslq (%r12,%rax,4),%rax
    3db4:	4c 01 e0             	add    %r12,%rax
    3db7:	ff e0                	jmpq   *%rax
    3db9:	0f 1f 80 00 00 00 00 	nopl   0x0(%rax)
    3dc0:	f7 d1                	not    %ecx
    3dc2:	c1 e9 1f             	shr    $0x1f,%ecx
    3dc5:	0f 1f 00             	nopl   (%rax)
    3dc8:	85 f6                	test   %esi,%esi
    3dca:	8d 41 01             	lea    0x1(%rcx),%eax
    3dcd:	74 31                	je     3e00 <_ZN6db_avlI9list_nodeI6recordEE9search_gtEP8avl_nodeIS2_ERKS0_I7commandE+0x960>
    3dcf:	48 8b 42 10          	mov    0x10(%rdx),%rax
    3dd3:	49 2b 47 10          	sub    0x10(%r15),%rax
    3dd7:	83 fe 06             	cmp    $0x6,%esi
    3dda:	0f 87 30 01 00 00    	ja     3f10 <_ZN6db_avlI9list_nodeI6recordEE9search_gtEP8avl_nodeIS2_ERKS0_I7commandE+0xa70>
    3de0:	48 8d 3d 05 41 00 00 	lea    0x4105(%rip),%rdi        # 7eec <_IO_stdin_used+0x3ec>
    3de7:	48 63 34 b7          	movslq (%rdi,%rsi,4),%rsi
    3deb:	48 01 fe             	add    %rdi,%rsi
    3dee:	ff e6                	jmpq   *%rsi
    3df0:	48 f7 d0             	not    %rax
    3df3:	48 c1 e8 3f          	shr    $0x3f,%rax
    3df7:	01 c8                	add    %ecx,%eax
    3df9:	0f 1f 80 00 00 00 00 	nopl   0x0(%rax)
    3e00:	83 f8 02             	cmp    $0x2,%eax
    3e03:	74 7b                	je     3e80 <_ZN6db_avlI9list_nodeI6recordEE9search_gtEP8avl_nodeIS2_ERKS0_I7commandE+0x9e0>
    3e05:	83 f8 01             	cmp    $0x1,%eax
    3e08:	0f 84 42 07 00 00    	je     4550 <_ZN6db_avlI9list_nodeI6recordEE9search_gtEP8avl_nodeIS2_ERKS0_I7commandE+0x10b0>
    3e0e:	49 8b 75 08          	mov    0x8(%r13),%rsi
    3e12:	4c 89 fa             	mov    %r15,%rdx
    3e15:	4c 89 f7             	mov    %r14,%rdi
    3e18:	e8 23 f0 ff ff       	callq  2e40 <_ZN6db_avlI9list_nodeI6recordEE15print_and_countEP8avl_nodeIS2_ERKS0_I7commandE>
    3e1d:	4d 8b 6d 10          	mov    0x10(%r13),%r13
    3e21:	4d 85 ed             	test   %r13,%r13
    3e24:	0f 85 53 ff ff ff    	jne    3d7d <_ZN6db_avlI9list_nodeI6recordEE9search_gtEP8avl_nodeIS2_ERKS0_I7commandE+0x8dd>
    3e2a:	48 8b 5b 10          	mov    0x10(%rbx),%rbx
    3e2e:	48 85 db             	test   %rbx,%rbx
    3e31:	0f 85 95 fe ff ff    	jne    3ccc <_ZN6db_avlI9list_nodeI6recordEE9search_gtEP8avl_nodeIS2_ERKS0_I7commandE+0x82c>
    3e37:	4c 8b 6c 24 18       	mov    0x18(%rsp),%r13
    3e3c:	4d 8b 6d 10          	mov    0x10(%r13),%r13
    3e40:	4d 85 ed             	test   %r13,%r13
    3e43:	0f 85 db fd ff ff    	jne    3c24 <_ZN6db_avlI9list_nodeI6recordEE9search_gtEP8avl_nodeIS2_ERKS0_I7commandE+0x784>
    3e49:	48 8b 44 24 10       	mov    0x10(%rsp),%rax
    3e4e:	48 8b 40 10          	mov    0x10(%rax),%rax
    3e52:	48 85 c0             	test   %rax,%rax
    3e55:	48 89 44 24 10       	mov    %rax,0x10(%rsp)
    3e5a:	0f 85 35 fc ff ff    	jne    3a95 <_ZN6db_avlI9list_nodeI6recordEE9search_gtEP8avl_nodeIS2_ERKS0_I7commandE+0x5f5>
    3e60:	e9 f9 f6 ff ff       	jmpq   355e <_ZN6db_avlI9list_nodeI6recordEE9search_gtEP8avl_nodeIS2_ERKS0_I7commandE+0xbe>
    3e65:	0f 1f 00             	nopl   (%rax)
    3e68:	48 85 c0             	test   %rax,%rax
    3e6b:	0f 95 c0             	setne  %al
    3e6e:	0f b6 c0             	movzbl %al,%eax
    3e71:	01 c8                	add    %ecx,%eax
    3e73:	83 f8 02             	cmp    $0x2,%eax
    3e76:	75 8d                	jne    3e05 <_ZN6db_avlI9list_nodeI6recordEE9search_gtEP8avl_nodeIS2_ERKS0_I7commandE+0x965>
    3e78:	0f 1f 84 00 00 00 00 	nopl   0x0(%rax,%rax,1)
    3e7f:	00 
    3e80:	48 8b 4a 10          	mov    0x10(%rdx),%rcx
    3e84:	44 8b 42 18          	mov    0x18(%rdx),%r8d
    3e88:	48 89 ee             	mov    %rbp,%rsi
    3e8b:	48 8b 12             	mov    (%rdx),%rdx
    3e8e:	bf 01 00 00 00       	mov    $0x1,%edi
    3e93:	31 c0                	xor    %eax,%eax
    3e95:	e8 b6 cd ff ff       	callq  c50 <__printf_chk@plt>
    3e9a:	e9 6f ff ff ff       	jmpq   3e0e <_ZN6db_avlI9list_nodeI6recordEE9search_gtEP8avl_nodeIS2_ERKS0_I7commandE+0x96e>
    3e9f:	90                   	nop
    3ea0:	48 85 c0             	test   %rax,%rax
    3ea3:	0f 94 c0             	sete   %al
    3ea6:	0f b6 c0             	movzbl %al,%eax
    3ea9:	01 c8                	add    %ecx,%eax
    3eab:	e9 50 ff ff ff       	jmpq   3e00 <_ZN6db_avlI9list_nodeI6recordEE9search_gtEP8avl_nodeIS2_ERKS0_I7commandE+0x960>
    3eb0:	85 c9                	test   %ecx,%ecx
    3eb2:	0f 95 c1             	setne  %cl
    3eb5:	0f b6 c9             	movzbl %cl,%ecx
    3eb8:	e9 0b ff ff ff       	jmpq   3dc8 <_ZN6db_avlI9list_nodeI6recordEE9search_gtEP8avl_nodeIS2_ERKS0_I7commandE+0x928>
    3ebd:	0f 1f 00             	nopl   (%rax)
    3ec0:	48 85 c0             	test   %rax,%rax
    3ec3:	0f 9e c0             	setle  %al
    3ec6:	0f b6 c0             	movzbl %al,%eax
    3ec9:	01 c8                	add    %ecx,%eax
    3ecb:	e9 30 ff ff ff       	jmpq   3e00 <_ZN6db_avlI9list_nodeI6recordEE9search_gtEP8avl_nodeIS2_ERKS0_I7commandE+0x960>
    3ed0:	48 85 c0             	test   %rax,%rax
    3ed3:	0f 9f c0             	setg   %al
    3ed6:	0f b6 c0             	movzbl %al,%eax
    3ed9:	01 c8                	add    %ecx,%eax
    3edb:	e9 20 ff ff ff       	jmpq   3e00 <_ZN6db_avlI9list_nodeI6recordEE9search_gtEP8avl_nodeIS2_ERKS0_I7commandE+0x960>
    3ee0:	85 c9                	test   %ecx,%ecx
    3ee2:	0f 94 c1             	sete   %cl
    3ee5:	0f b6 c9             	movzbl %cl,%ecx
    3ee8:	e9 db fe ff ff       	jmpq   3dc8 <_ZN6db_avlI9list_nodeI6recordEE9search_gtEP8avl_nodeIS2_ERKS0_I7commandE+0x928>
    3eed:	0f 1f 00             	nopl   (%rax)
    3ef0:	85 c9                	test   %ecx,%ecx
    3ef2:	0f 9e c1             	setle  %cl
    3ef5:	0f b6 c9             	movzbl %cl,%ecx
    3ef8:	e9 cb fe ff ff       	jmpq   3dc8 <_ZN6db_avlI9list_nodeI6recordEE9search_gtEP8avl_nodeIS2_ERKS0_I7commandE+0x928>
    3efd:	0f 1f 00             	nopl   (%rax)
    3f00:	85 c9                	test   %ecx,%ecx
    3f02:	0f 9f c1             	setg   %cl
    3f05:	0f b6 c9             	movzbl %cl,%ecx
    3f08:	e9 bb fe ff ff       	jmpq   3dc8 <_ZN6db_avlI9list_nodeI6recordEE9search_gtEP8avl_nodeIS2_ERKS0_I7commandE+0x928>
    3f0d:	0f 1f 00             	nopl   (%rax)
    3f10:	8d 41 01             	lea    0x1(%rcx),%eax
    3f13:	e9 e8 fe ff ff       	jmpq   3e00 <_ZN6db_avlI9list_nodeI6recordEE9search_gtEP8avl_nodeIS2_ERKS0_I7commandE+0x960>
    3f18:	0f 1f 84 00 00 00 00 	nopl   0x0(%rax,%rax,1)
    3f1f:	00 
    3f20:	b9 01 00 00 00       	mov    $0x1,%ecx
    3f25:	e9 9e fe ff ff       	jmpq   3dc8 <_ZN6db_avlI9list_nodeI6recordEE9search_gtEP8avl_nodeIS2_ERKS0_I7commandE+0x928>
    3f2a:	66 0f 1f 44 00 00    	nopw   0x0(%rax,%rax,1)
    3f30:	48 85 c0             	test   %rax,%rax
    3f33:	0f 95 c0             	setne  %al
    3f36:	0f b6 c0             	movzbl %al,%eax
    3f39:	01 c8                	add    %ecx,%eax
    3f3b:	83 f8 02             	cmp    $0x2,%eax
    3f3e:	0f 85 15 fe ff ff    	jne    3d59 <_ZN6db_avlI9list_nodeI6recordEE9search_gtEP8avl_nodeIS2_ERKS0_I7commandE+0x8b9>
    3f44:	0f 1f 40 00          	nopl   0x0(%rax)
    3f48:	48 8b 4a 10          	mov    0x10(%rdx),%rcx
    3f4c:	44 8b 42 18          	mov    0x18(%rdx),%r8d
    3f50:	48 8d 35 fe 3b 00 00 	lea    0x3bfe(%rip),%rsi        # 7b55 <_IO_stdin_used+0x55>
    3f57:	48 8b 12             	mov    (%rdx),%rdx
    3f5a:	bf 01 00 00 00       	mov    $0x1,%edi
    3f5f:	31 c0                	xor    %eax,%eax
    3f61:	e8 ea cc ff ff       	callq  c50 <__printf_chk@plt>
    3f66:	e9 f7 fd ff ff       	jmpq   3d62 <_ZN6db_avlI9list_nodeI6recordEE9search_gtEP8avl_nodeIS2_ERKS0_I7commandE+0x8c2>
    3f6b:	0f 1f 44 00 00       	nopl   0x0(%rax,%rax,1)
    3f70:	48 85 c0             	test   %rax,%rax
    3f73:	0f 94 c0             	sete   %al
    3f76:	0f b6 c0             	movzbl %al,%eax
    3f79:	01 c8                	add    %ecx,%eax
    3f7b:	e9 d0 fd ff ff       	jmpq   3d50 <_ZN6db_avlI9list_nodeI6recordEE9search_gtEP8avl_nodeIS2_ERKS0_I7commandE+0x8b0>
    3f80:	48 85 c0             	test   %rax,%rax
    3f83:	0f 9e c0             	setle  %al
    3f86:	0f b6 c0             	movzbl %al,%eax
    3f89:	01 c8                	add    %ecx,%eax
    3f8b:	e9 c0 fd ff ff       	jmpq   3d50 <_ZN6db_avlI9list_nodeI6recordEE9search_gtEP8avl_nodeIS2_ERKS0_I7commandE+0x8b0>
    3f90:	48 85 c0             	test   %rax,%rax
    3f93:	0f 9f c0             	setg   %al
    3f96:	0f b6 c0             	movzbl %al,%eax
    3f99:	01 c8                	add    %ecx,%eax
    3f9b:	e9 b0 fd ff ff       	jmpq   3d50 <_ZN6db_avlI9list_nodeI6recordEE9search_gtEP8avl_nodeIS2_ERKS0_I7commandE+0x8b0>
    3fa0:	85 c9                	test   %ecx,%ecx
    3fa2:	0f 95 c1             	setne  %cl
    3fa5:	0f b6 c9             	movzbl %cl,%ecx
    3fa8:	e9 6b fd ff ff       	jmpq   3d18 <_ZN6db_avlI9list_nodeI6recordEE9search_gtEP8avl_nodeIS2_ERKS0_I7commandE+0x878>
    3fad:	0f 1f 00             	nopl   (%rax)
    3fb0:	85 c9                	test   %ecx,%ecx
    3fb2:	0f 94 c1             	sete   %cl
    3fb5:	0f b6 c9             	movzbl %cl,%ecx
    3fb8:	e9 5b fd ff ff       	jmpq   3d18 <_ZN6db_avlI9list_nodeI6recordEE9search_gtEP8avl_nodeIS2_ERKS0_I7commandE+0x878>
    3fbd:	0f 1f 00             	nopl   (%rax)
    3fc0:	85 c9                	test   %ecx,%ecx
    3fc2:	0f 9e c1             	setle  %cl
    3fc5:	0f b6 c9             	movzbl %cl,%ecx
    3fc8:	e9 4b fd ff ff       	jmpq   3d18 <_ZN6db_avlI9list_nodeI6recordEE9search_gtEP8avl_nodeIS2_ERKS0_I7commandE+0x878>
    3fcd:	0f 1f 00             	nopl   (%rax)
    3fd0:	85 c9                	test   %ecx,%ecx
    3fd2:	0f 9f c1             	setg   %cl
    3fd5:	0f b6 c9             	movzbl %cl,%ecx
    3fd8:	e9 3b fd ff ff       	jmpq   3d18 <_ZN6db_avlI9list_nodeI6recordEE9search_gtEP8avl_nodeIS2_ERKS0_I7commandE+0x878>
    3fdd:	0f 1f 00             	nopl   (%rax)
    3fe0:	8d 41 01             	lea    0x1(%rcx),%eax
    3fe3:	e9 68 fd ff ff       	jmpq   3d50 <_ZN6db_avlI9list_nodeI6recordEE9search_gtEP8avl_nodeIS2_ERKS0_I7commandE+0x8b0>
    3fe8:	0f 1f 84 00 00 00 00 	nopl   0x0(%rax,%rax,1)
    3fef:	00 
    3ff0:	b9 01 00 00 00       	mov    $0x1,%ecx
    3ff5:	e9 1e fd ff ff       	jmpq   3d18 <_ZN6db_avlI9list_nodeI6recordEE9search_gtEP8avl_nodeIS2_ERKS0_I7commandE+0x878>
    3ffa:	48 85 c0             	test   %rax,%rax
    3ffd:	0f 95 c0             	setne  %al
    4000:	0f b6 c0             	movzbl %al,%eax
    4003:	01 c8                	add    %ecx,%eax
    4005:	e9 9e fc ff ff       	jmpq   3ca8 <_ZN6db_avlI9list_nodeI6recordEE9search_gtEP8avl_nodeIS2_ERKS0_I7commandE+0x808>
    400a:	48 85 c0             	test   %rax,%rax
    400d:	0f 94 c0             	sete   %al
    4010:	0f b6 c0             	movzbl %al,%eax
    4013:	01 c8                	add    %ecx,%eax
    4015:	e9 8e fc ff ff       	jmpq   3ca8 <_ZN6db_avlI9list_nodeI6recordEE9search_gtEP8avl_nodeIS2_ERKS0_I7commandE+0x808>
    401a:	85 c9                	test   %ecx,%ecx
    401c:	0f 94 c1             	sete   %cl
    401f:	0f b6 c9             	movzbl %cl,%ecx
    4022:	e9 49 fc ff ff       	jmpq   3c70 <_ZN6db_avlI9list_nodeI6recordEE9search_gtEP8avl_nodeIS2_ERKS0_I7commandE+0x7d0>
    4027:	85 c9                	test   %ecx,%ecx
    4029:	0f 95 c1             	setne  %cl
    402c:	0f b6 c9             	movzbl %cl,%ecx
    402f:	e9 3c fc ff ff       	jmpq   3c70 <_ZN6db_avlI9list_nodeI6recordEE9search_gtEP8avl_nodeIS2_ERKS0_I7commandE+0x7d0>
    4034:	48 85 c0             	test   %rax,%rax
    4037:	0f 9e c0             	setle  %al
    403a:	0f b6 c0             	movzbl %al,%eax
    403d:	01 c8                	add    %ecx,%eax
    403f:	e9 64 fc ff ff       	jmpq   3ca8 <_ZN6db_avlI9list_nodeI6recordEE9search_gtEP8avl_nodeIS2_ERKS0_I7commandE+0x808>
    4044:	48 85 c0             	test   %rax,%rax
    4047:	0f 9f c0             	setg   %al
    404a:	0f b6 c0             	movzbl %al,%eax
    404d:	01 c8                	add    %ecx,%eax
    404f:	e9 54 fc ff ff       	jmpq   3ca8 <_ZN6db_avlI9list_nodeI6recordEE9search_gtEP8avl_nodeIS2_ERKS0_I7commandE+0x808>
    4054:	85 c9                	test   %ecx,%ecx
    4056:	0f 9e c1             	setle  %cl
    4059:	0f b6 c9             	movzbl %cl,%ecx
    405c:	e9 0f fc ff ff       	jmpq   3c70 <_ZN6db_avlI9list_nodeI6recordEE9search_gtEP8avl_nodeIS2_ERKS0_I7commandE+0x7d0>
    4061:	85 c9                	test   %ecx,%ecx
    4063:	0f 9f c1             	setg   %cl
    4066:	0f b6 c9             	movzbl %cl,%ecx
    4069:	e9 02 fc ff ff       	jmpq   3c70 <_ZN6db_avlI9list_nodeI6recordEE9search_gtEP8avl_nodeIS2_ERKS0_I7commandE+0x7d0>
    406e:	8d 41 01             	lea    0x1(%rcx),%eax
    4071:	e9 32 fc ff ff       	jmpq   3ca8 <_ZN6db_avlI9list_nodeI6recordEE9search_gtEP8avl_nodeIS2_ERKS0_I7commandE+0x808>
    4076:	f7 d1                	not    %ecx
    4078:	c1 e9 1f             	shr    $0x1f,%ecx
    407b:	0f 1f 44 00 00       	nopl   0x0(%rax,%rax,1)
    4080:	85 f6                	test   %esi,%esi
    4082:	8d 41 01             	lea    0x1(%rcx),%eax
    4085:	74 31                	je     40b8 <_ZN6db_avlI9list_nodeI6recordEE9search_gtEP8avl_nodeIS2_ERKS0_I7commandE+0xc18>
    4087:	48 8b 42 10          	mov    0x10(%rdx),%rax
    408b:	49 2b 47 10          	sub    0x10(%r15),%rax
    408f:	83 fe 06             	cmp    $0x6,%esi
    4092:	0f 87 3a 08 00 00    	ja     48d2 <_ZN6db_avlI9list_nodeI6recordEE9search_gtEP8avl_nodeIS2_ERKS0_I7commandE+0x1432>
    4098:	48 8d 3d 69 3e 00 00 	lea    0x3e69(%rip),%rdi        # 7f08 <_IO_stdin_used+0x408>
    409f:	48 63 34 b7          	movslq (%rdi,%rsi,4),%rsi
    40a3:	48 01 fe             	add    %rdi,%rsi
    40a6:	ff e6                	jmpq   *%rsi
    40a8:	48 f7 d0             	not    %rax
    40ab:	48 c1 e8 3f          	shr    $0x3f,%rax
    40af:	01 c8                	add    %ecx,%eax
    40b1:	0f 1f 80 00 00 00 00 	nopl   0x0(%rax)
    40b8:	83 f8 02             	cmp    $0x2,%eax
    40bb:	0f 84 7f 05 00 00    	je     4640 <_ZN6db_avlI9list_nodeI6recordEE9search_gtEP8avl_nodeIS2_ERKS0_I7commandE+0x11a0>
    40c1:	83 f8 01             	cmp    $0x1,%eax
    40c4:	0f 84 69 05 00 00    	je     4633 <_ZN6db_avlI9list_nodeI6recordEE9search_gtEP8avl_nodeIS2_ERKS0_I7commandE+0x1193>
    40ca:	48 8b 44 24 10       	mov    0x10(%rsp),%rax
    40cf:	4c 8b 68 08          	mov    0x8(%rax),%r13
    40d3:	4d 85 ed             	test   %r13,%r13
    40d6:	0f 84 2d 02 00 00    	je     4309 <_ZN6db_avlI9list_nodeI6recordEE9search_gtEP8avl_nodeIS2_ERKS0_I7commandE+0xe69>
    40dc:	41 8b 47 28          	mov    0x28(%r15),%eax
    40e0:	41 8b 77 24          	mov    0x24(%r15),%esi
    40e4:	41 8b 4f 20          	mov    0x20(%r15),%ecx
    40e8:	49 8b 55 00          	mov    0x0(%r13),%rdx
    40ec:	01 c1                	add    %eax,%ecx
    40ee:	01 f1                	add    %esi,%ecx
    40f0:	0f 84 8a 04 00 00    	je     4580 <_ZN6db_avlI9list_nodeI6recordEE9search_gtEP8avl_nodeIS2_ERKS0_I7commandE+0x10e0>
    40f6:	85 c0                	test   %eax,%eax
    40f8:	b9 01 00 00 00       	mov    $0x1,%ecx
    40fd:	74 29                	je     4128 <_ZN6db_avlI9list_nodeI6recordEE9search_gtEP8avl_nodeIS2_ERKS0_I7commandE+0xc88>
    40ff:	8b 4a 18             	mov    0x18(%rdx),%ecx
    4102:	41 2b 4f 18          	sub    0x18(%r15),%ecx
    4106:	83 f8 06             	cmp    $0x6,%eax
    4109:	0f 87 c5 05 00 00    	ja     46d4 <_ZN6db_avlI9list_nodeI6recordEE9search_gtEP8avl_nodeIS2_ERKS0_I7commandE+0x1234>
    410f:	48 8d 3d 0e 3e 00 00 	lea    0x3e0e(%rip),%rdi        # 7f24 <_IO_stdin_used+0x424>
    4116:	48 63 04 87          	movslq (%rdi,%rax,4),%rax
    411a:	48 01 f8             	add    %rdi,%rax
    411d:	ff e0                	jmpq   *%rax
    411f:	f7 d1                	not    %ecx
    4121:	c1 e9 1f             	shr    $0x1f,%ecx
    4124:	0f 1f 40 00          	nopl   0x0(%rax)
    4128:	85 f6                	test   %esi,%esi
    412a:	8d 41 01             	lea    0x1(%rcx),%eax
    412d:	74 31                	je     4160 <_ZN6db_avlI9list_nodeI6recordEE9search_gtEP8avl_nodeIS2_ERKS0_I7commandE+0xcc0>
    412f:	48 8b 42 10          	mov    0x10(%rdx),%rax
    4133:	49 2b 47 10          	sub    0x10(%r15),%rax
    4137:	83 fe 06             	cmp    $0x6,%esi
    413a:	0f 87 ee 03 00 00    	ja     452e <_ZN6db_avlI9list_nodeI6recordEE9search_gtEP8avl_nodeIS2_ERKS0_I7commandE+0x108e>
    4140:	48 8d 1d f9 3d 00 00 	lea    0x3df9(%rip),%rbx        # 7f40 <_IO_stdin_used+0x440>
    4147:	48 63 34 b3          	movslq (%rbx,%rsi,4),%rsi
    414b:	48 01 de             	add    %rbx,%rsi
    414e:	ff e6                	jmpq   *%rsi
    4150:	48 f7 d0             	not    %rax
    4153:	48 c1 e8 3f          	shr    $0x3f,%rax
    4157:	01 c8                	add    %ecx,%eax
    4159:	0f 1f 80 00 00 00 00 	nopl   0x0(%rax)
    4160:	83 f8 02             	cmp    $0x2,%eax
    4163:	0f 84 17 04 00 00    	je     4580 <_ZN6db_avlI9list_nodeI6recordEE9search_gtEP8avl_nodeIS2_ERKS0_I7commandE+0x10e0>
    4169:	83 f8 01             	cmp    $0x1,%eax
    416c:	0f 84 fe 03 00 00    	je     4570 <_ZN6db_avlI9list_nodeI6recordEE9search_gtEP8avl_nodeIS2_ERKS0_I7commandE+0x10d0>
    4172:	49 8b 5d 08          	mov    0x8(%r13),%rbx
    4176:	48 85 db             	test   %rbx,%rbx
    4179:	0f 84 7d 01 00 00    	je     42fc <_ZN6db_avlI9list_nodeI6recordEE9search_gtEP8avl_nodeIS2_ERKS0_I7commandE+0xe5c>
    417f:	4c 89 6c 24 18       	mov    %r13,0x18(%rsp)
    4184:	41 8b 47 28          	mov    0x28(%r15),%eax
    4188:	41 8b 77 24          	mov    0x24(%r15),%esi
    418c:	41 8b 4f 20          	mov    0x20(%r15),%ecx
    4190:	48 8b 13             	mov    (%rbx),%rdx
    4193:	01 c1                	add    %eax,%ecx
    4195:	01 f1                	add    %esi,%ecx
    4197:	0f 84 6b 02 00 00    	je     4408 <_ZN6db_avlI9list_nodeI6recordEE9search_gtEP8avl_nodeIS2_ERKS0_I7commandE+0xf68>
    419d:	85 c0                	test   %eax,%eax
    419f:	b9 01 00 00 00       	mov    $0x1,%ecx
    41a4:	74 32                	je     41d8 <_ZN6db_avlI9list_nodeI6recordEE9search_gtEP8avl_nodeIS2_ERKS0_I7commandE+0xd38>
    41a6:	8b 4a 18             	mov    0x18(%rdx),%ecx
    41a9:	41 2b 4f 18          	sub    0x18(%r15),%ecx
    41ad:	83 f8 06             	cmp    $0x6,%eax
    41b0:	0f 87 fa 02 00 00    	ja     44b0 <_ZN6db_avlI9list_nodeI6recordEE9search_gtEP8avl_nodeIS2_ERKS0_I7commandE+0x1010>
    41b6:	48 8d 3d 9f 3d 00 00 	lea    0x3d9f(%rip),%rdi        # 7f5c <_IO_stdin_used+0x45c>
    41bd:	48 63 04 87          	movslq (%rdi,%rax,4),%rax
    41c1:	48 01 f8             	add    %rdi,%rax
    41c4:	ff e0                	jmpq   *%rax
    41c6:	66 2e 0f 1f 84 00 00 	nopw   %cs:0x0(%rax,%rax,1)
    41cd:	00 00 00 
    41d0:	f7 d1                	not    %ecx
    41d2:	c1 e9 1f             	shr    $0x1f,%ecx
    41d5:	0f 1f 00             	nopl   (%rax)
    41d8:	85 f6                	test   %esi,%esi
    41da:	8d 41 01             	lea    0x1(%rcx),%eax
    41dd:	74 31                	je     4210 <_ZN6db_avlI9list_nodeI6recordEE9search_gtEP8avl_nodeIS2_ERKS0_I7commandE+0xd70>
    41df:	48 8b 42 10          	mov    0x10(%rdx),%rax
    41e3:	49 2b 47 10          	sub    0x10(%r15),%rax
    41e7:	83 fe 06             	cmp    $0x6,%esi
    41ea:	0f 87 b0 02 00 00    	ja     44a0 <_ZN6db_avlI9list_nodeI6recordEE9search_gtEP8avl_nodeIS2_ERKS0_I7commandE+0x1000>
    41f0:	48 8d 3d 81 3d 00 00 	lea    0x3d81(%rip),%rdi        # 7f78 <_IO_stdin_used+0x478>
    41f7:	48 63 34 b7          	movslq (%rdi,%rsi,4),%rsi
    41fb:	48 01 fe             	add    %rdi,%rsi
    41fe:	ff e6                	jmpq   *%rsi
    4200:	48 f7 d0             	not    %rax
    4203:	48 c1 e8 3f          	shr    $0x3f,%rax
    4207:	01 c8                	add    %ecx,%eax
    4209:	0f 1f 80 00 00 00 00 	nopl   0x0(%rax)
    4210:	83 f8 02             	cmp    $0x2,%eax
    4213:	0f 84 ef 01 00 00    	je     4408 <_ZN6db_avlI9list_nodeI6recordEE9search_gtEP8avl_nodeIS2_ERKS0_I7commandE+0xf68>
    4219:	83 f8 01             	cmp    $0x1,%eax
    421c:	0f 84 be 03 00 00    	je     45e0 <_ZN6db_avlI9list_nodeI6recordEE9search_gtEP8avl_nodeIS2_ERKS0_I7commandE+0x1140>
    4222:	4c 8b 6b 08          	mov    0x8(%rbx),%r13
    4226:	4d 85 ed             	test   %r13,%r13
    4229:	0f 84 bb 00 00 00    	je     42ea <_ZN6db_avlI9list_nodeI6recordEE9search_gtEP8avl_nodeIS2_ERKS0_I7commandE+0xe4a>
    422f:	48 8d 2d 1f 39 00 00 	lea    0x391f(%rip),%rbp        # 7b55 <_IO_stdin_used+0x55>
    4236:	4c 8d 25 57 3d 00 00 	lea    0x3d57(%rip),%r12        # 7f94 <_IO_stdin_used+0x494>
    423d:	41 8b 47 28          	mov    0x28(%r15),%eax
    4241:	41 8b 77 24          	mov    0x24(%r15),%esi
    4245:	41 8b 4f 20          	mov    0x20(%r15),%ecx
    4249:	49 8b 55 00          	mov    0x0(%r13),%rdx
    424d:	01 c1                	add    %eax,%ecx
    424f:	01 f1                	add    %esi,%ecx
    4251:	0f 84 e9 00 00 00    	je     4340 <_ZN6db_avlI9list_nodeI6recordEE9search_gtEP8avl_nodeIS2_ERKS0_I7commandE+0xea0>
    4257:	85 c0                	test   %eax,%eax
    4259:	b9 01 00 00 00       	mov    $0x1,%ecx
    425e:	74 28                	je     4288 <_ZN6db_avlI9list_nodeI6recordEE9search_gtEP8avl_nodeIS2_ERKS0_I7commandE+0xde8>
    4260:	8b 4a 18             	mov    0x18(%rdx),%ecx
    4263:	41 2b 4f 18          	sub    0x18(%r15),%ecx
    4267:	83 f8 06             	cmp    $0x6,%eax
    426a:	0f 87 70 01 00 00    	ja     43e0 <_ZN6db_avlI9list_nodeI6recordEE9search_gtEP8avl_nodeIS2_ERKS0_I7commandE+0xf40>
    4270:	49 63 04 84          	movslq (%r12,%rax,4),%rax
    4274:	4c 01 e0             	add    %r12,%rax
    4277:	ff e0                	jmpq   *%rax
    4279:	0f 1f 80 00 00 00 00 	nopl   0x0(%rax)
    4280:	f7 d1                	not    %ecx
    4282:	c1 e9 1f             	shr    $0x1f,%ecx
    4285:	0f 1f 00             	nopl   (%rax)
    4288:	85 f6                	test   %esi,%esi
    428a:	8d 41 01             	lea    0x1(%rcx),%eax
    428d:	74 31                	je     42c0 <_ZN6db_avlI9list_nodeI6recordEE9search_gtEP8avl_nodeIS2_ERKS0_I7commandE+0xe20>
    428f:	48 8b 42 10          	mov    0x10(%rdx),%rax
    4293:	49 2b 47 10          	sub    0x10(%r15),%rax
    4297:	83 fe 06             	cmp    $0x6,%esi
    429a:	0f 87 30 01 00 00    	ja     43d0 <_ZN6db_avlI9list_nodeI6recordEE9search_gtEP8avl_nodeIS2_ERKS0_I7commandE+0xf30>
    42a0:	48 8d 3d 09 3d 00 00 	lea    0x3d09(%rip),%rdi        # 7fb0 <_IO_stdin_used+0x4b0>
    42a7:	48 63 34 b7          	movslq (%rdi,%rsi,4),%rsi
    42ab:	48 01 fe             	add    %rdi,%rsi
    42ae:	ff e6                	jmpq   *%rsi
    42b0:	48 f7 d0             	not    %rax
    42b3:	48 c1 e8 3f          	shr    $0x3f,%rax
    42b7:	01 c8                	add    %ecx,%eax
    42b9:	0f 1f 80 00 00 00 00 	nopl   0x0(%rax)
    42c0:	83 f8 02             	cmp    $0x2,%eax
    42c3:	74 7b                	je     4340 <_ZN6db_avlI9list_nodeI6recordEE9search_gtEP8avl_nodeIS2_ERKS0_I7commandE+0xea0>
    42c5:	83 f8 01             	cmp    $0x1,%eax
    42c8:	0f 84 92 02 00 00    	je     4560 <_ZN6db_avlI9list_nodeI6recordEE9search_gtEP8avl_nodeIS2_ERKS0_I7commandE+0x10c0>
    42ce:	49 8b 75 08          	mov    0x8(%r13),%rsi
    42d2:	4c 89 fa             	mov    %r15,%rdx
    42d5:	4c 89 f7             	mov    %r14,%rdi
    42d8:	e8 63 eb ff ff       	callq  2e40 <_ZN6db_avlI9list_nodeI6recordEE15print_and_countEP8avl_nodeIS2_ERKS0_I7commandE>
    42dd:	4d 8b 6d 10          	mov    0x10(%r13),%r13
    42e1:	4d 85 ed             	test   %r13,%r13
    42e4:	0f 85 53 ff ff ff    	jne    423d <_ZN6db_avlI9list_nodeI6recordEE9search_gtEP8avl_nodeIS2_ERKS0_I7commandE+0xd9d>
    42ea:	48 8b 5b 10          	mov    0x10(%rbx),%rbx
    42ee:	48 85 db             	test   %rbx,%rbx
    42f1:	0f 85 8d fe ff ff    	jne    4184 <_ZN6db_avlI9list_nodeI6recordEE9search_gtEP8avl_nodeIS2_ERKS0_I7commandE+0xce4>
    42f7:	4c 8b 6c 24 18       	mov    0x18(%rsp),%r13
    42fc:	4d 8b 6d 10          	mov    0x10(%r13),%r13
    4300:	4d 85 ed             	test   %r13,%r13
    4303:	0f 85 d3 fd ff ff    	jne    40dc <_ZN6db_avlI9list_nodeI6recordEE9search_gtEP8avl_nodeIS2_ERKS0_I7commandE+0xc3c>
    4309:	48 8b 44 24 10       	mov    0x10(%rsp),%rax
    430e:	48 8b 40 10          	mov    0x10(%rax),%rax
    4312:	48 85 c0             	test   %rax,%rax
    4315:	48 89 44 24 10       	mov    %rax,0x10(%rsp)
    431a:	0f 85 d5 f6 ff ff    	jne    39f5 <_ZN6db_avlI9list_nodeI6recordEE9search_gtEP8avl_nodeIS2_ERKS0_I7commandE+0x555>
    4320:	e9 39 f2 ff ff       	jmpq   355e <_ZN6db_avlI9list_nodeI6recordEE9search_gtEP8avl_nodeIS2_ERKS0_I7commandE+0xbe>
    4325:	0f 1f 00             	nopl   (%rax)
    4328:	48 85 c0             	test   %rax,%rax
    432b:	0f 9e c0             	setle  %al
    432e:	0f b6 c0             	movzbl %al,%eax
    4331:	01 c8                	add    %ecx,%eax
    4333:	83 f8 02             	cmp    $0x2,%eax
    4336:	75 8d                	jne    42c5 <_ZN6db_avlI9list_nodeI6recordEE9search_gtEP8avl_nodeIS2_ERKS0_I7commandE+0xe25>
    4338:	0f 1f 84 00 00 00 00 	nopl   0x0(%rax,%rax,1)
    433f:	00 
    4340:	48 8b 4a 10          	mov    0x10(%rdx),%rcx
    4344:	44 8b 42 18          	mov    0x18(%rdx),%r8d
    4348:	48 89 ee             	mov    %rbp,%rsi
    434b:	48 8b 12             	mov    (%rdx),%rdx
    434e:	bf 01 00 00 00       	mov    $0x1,%edi
    4353:	31 c0                	xor    %eax,%eax
    4355:	e8 f6 c8 ff ff       	callq  c50 <__printf_chk@plt>
    435a:	e9 6f ff ff ff       	jmpq   42ce <_ZN6db_avlI9list_nodeI6recordEE9search_gtEP8avl_nodeIS2_ERKS0_I7commandE+0xe2e>
    435f:	90                   	nop
    4360:	48 85 c0             	test   %rax,%rax
    4363:	0f 9f c0             	setg   %al
    4366:	0f b6 c0             	movzbl %al,%eax
    4369:	01 c8                	add    %ecx,%eax
    436b:	e9 50 ff ff ff       	jmpq   42c0 <_ZN6db_avlI9list_nodeI6recordEE9search_gtEP8avl_nodeIS2_ERKS0_I7commandE+0xe20>
    4370:	48 85 c0             	test   %rax,%rax
    4373:	0f 94 c0             	sete   %al
    4376:	0f b6 c0             	movzbl %al,%eax
    4379:	01 c8                	add    %ecx,%eax
    437b:	e9 40 ff ff ff       	jmpq   42c0 <_ZN6db_avlI9list_nodeI6recordEE9search_gtEP8avl_nodeIS2_ERKS0_I7commandE+0xe20>
    4380:	48 85 c0             	test   %rax,%rax
    4383:	0f 95 c0             	setne  %al
    4386:	0f b6 c0             	movzbl %al,%eax
    4389:	01 c8                	add    %ecx,%eax
    438b:	e9 30 ff ff ff       	jmpq   42c0 <_ZN6db_avlI9list_nodeI6recordEE9search_gtEP8avl_nodeIS2_ERKS0_I7commandE+0xe20>
    4390:	85 c9                	test   %ecx,%ecx
    4392:	0f 94 c1             	sete   %cl
    4395:	0f b6 c9             	movzbl %cl,%ecx
    4398:	e9 eb fe ff ff       	jmpq   4288 <_ZN6db_avlI9list_nodeI6recordEE9search_gtEP8avl_nodeIS2_ERKS0_I7commandE+0xde8>
    439d:	0f 1f 00             	nopl   (%rax)
    43a0:	85 c9                	test   %ecx,%ecx
    43a2:	0f 95 c1             	setne  %cl
    43a5:	0f b6 c9             	movzbl %cl,%ecx
    43a8:	e9 db fe ff ff       	jmpq   4288 <_ZN6db_avlI9list_nodeI6recordEE9search_gtEP8avl_nodeIS2_ERKS0_I7commandE+0xde8>
    43ad:	0f 1f 00             	nopl   (%rax)
    43b0:	85 c9                	test   %ecx,%ecx
    43b2:	0f 9e c1             	setle  %cl
    43b5:	0f b6 c9             	movzbl %cl,%ecx
    43b8:	e9 cb fe ff ff       	jmpq   4288 <_ZN6db_avlI9list_nodeI6recordEE9search_gtEP8avl_nodeIS2_ERKS0_I7commandE+0xde8>
    43bd:	0f 1f 00             	nopl   (%rax)
    43c0:	85 c9                	test   %ecx,%ecx
    43c2:	0f 9f c1             	setg   %cl
    43c5:	0f b6 c9             	movzbl %cl,%ecx
    43c8:	e9 bb fe ff ff       	jmpq   4288 <_ZN6db_avlI9list_nodeI6recordEE9search_gtEP8avl_nodeIS2_ERKS0_I7commandE+0xde8>
    43cd:	0f 1f 00             	nopl   (%rax)
    43d0:	8d 41 01             	lea    0x1(%rcx),%eax
    43d3:	e9 e8 fe ff ff       	jmpq   42c0 <_ZN6db_avlI9list_nodeI6recordEE9search_gtEP8avl_nodeIS2_ERKS0_I7commandE+0xe20>
    43d8:	0f 1f 84 00 00 00 00 	nopl   0x0(%rax,%rax,1)
    43df:	00 
    43e0:	b9 01 00 00 00       	mov    $0x1,%ecx
    43e5:	e9 9e fe ff ff       	jmpq   4288 <_ZN6db_avlI9list_nodeI6recordEE9search_gtEP8avl_nodeIS2_ERKS0_I7commandE+0xde8>
    43ea:	66 0f 1f 44 00 00    	nopw   0x0(%rax,%rax,1)
    43f0:	48 85 c0             	test   %rax,%rax
    43f3:	0f 94 c0             	sete   %al
    43f6:	0f b6 c0             	movzbl %al,%eax
    43f9:	01 c8                	add    %ecx,%eax
    43fb:	83 f8 02             	cmp    $0x2,%eax
    43fe:	0f 85 15 fe ff ff    	jne    4219 <_ZN6db_avlI9list_nodeI6recordEE9search_gtEP8avl_nodeIS2_ERKS0_I7commandE+0xd79>
    4404:	0f 1f 40 00          	nopl   0x0(%rax)
    4408:	48 8b 4a 10          	mov    0x10(%rdx),%rcx
    440c:	44 8b 42 18          	mov    0x18(%rdx),%r8d
    4410:	48 8d 35 3e 37 00 00 	lea    0x373e(%rip),%rsi        # 7b55 <_IO_stdin_used+0x55>
    4417:	48 8b 12             	mov    (%rdx),%rdx
    441a:	bf 01 00 00 00       	mov    $0x1,%edi
    441f:	31 c0                	xor    %eax,%eax
    4421:	e8 2a c8 ff ff       	callq  c50 <__printf_chk@plt>
    4426:	e9 f7 fd ff ff       	jmpq   4222 <_ZN6db_avlI9list_nodeI6recordEE9search_gtEP8avl_nodeIS2_ERKS0_I7commandE+0xd82>
    442b:	0f 1f 44 00 00       	nopl   0x0(%rax,%rax,1)
    4430:	48 85 c0             	test   %rax,%rax
    4433:	0f 95 c0             	setne  %al
    4436:	0f b6 c0             	movzbl %al,%eax
    4439:	01 c8                	add    %ecx,%eax
    443b:	e9 d0 fd ff ff       	jmpq   4210 <_ZN6db_avlI9list_nodeI6recordEE9search_gtEP8avl_nodeIS2_ERKS0_I7commandE+0xd70>
    4440:	48 85 c0             	test   %rax,%rax
    4443:	0f 9e c0             	setle  %al
    4446:	0f b6 c0             	movzbl %al,%eax
    4449:	01 c8                	add    %ecx,%eax
    444b:	e9 c0 fd ff ff       	jmpq   4210 <_ZN6db_avlI9list_nodeI6recordEE9search_gtEP8avl_nodeIS2_ERKS0_I7commandE+0xd70>
    4450:	48 85 c0             	test   %rax,%rax
    4453:	0f 9f c0             	setg   %al
    4456:	0f b6 c0             	movzbl %al,%eax
    4459:	01 c8                	add    %ecx,%eax
    445b:	e9 b0 fd ff ff       	jmpq   4210 <_ZN6db_avlI9list_nodeI6recordEE9search_gtEP8avl_nodeIS2_ERKS0_I7commandE+0xd70>
    4460:	85 c9                	test   %ecx,%ecx
    4462:	0f 95 c1             	setne  %cl
    4465:	0f b6 c9             	movzbl %cl,%ecx
    4468:	e9 6b fd ff ff       	jmpq   41d8 <_ZN6db_avlI9list_nodeI6recordEE9search_gtEP8avl_nodeIS2_ERKS0_I7commandE+0xd38>
    446d:	0f 1f 00             	nopl   (%rax)
    4470:	85 c9                	test   %ecx,%ecx
    4472:	0f 94 c1             	sete   %cl
    4475:	0f b6 c9             	movzbl %cl,%ecx
    4478:	e9 5b fd ff ff       	jmpq   41d8 <_ZN6db_avlI9list_nodeI6recordEE9search_gtEP8avl_nodeIS2_ERKS0_I7commandE+0xd38>
    447d:	0f 1f 00             	nopl   (%rax)
    4480:	85 c9                	test   %ecx,%ecx
    4482:	0f 9e c1             	setle  %cl
    4485:	0f b6 c9             	movzbl %cl,%ecx
    4488:	e9 4b fd ff ff       	jmpq   41d8 <_ZN6db_avlI9list_nodeI6recordEE9search_gtEP8avl_nodeIS2_ERKS0_I7commandE+0xd38>
    448d:	0f 1f 00             	nopl   (%rax)
    4490:	85 c9                	test   %ecx,%ecx
    4492:	0f 9f c1             	setg   %cl
    4495:	0f b6 c9             	movzbl %cl,%ecx
    4498:	e9 3b fd ff ff       	jmpq   41d8 <_ZN6db_avlI9list_nodeI6recordEE9search_gtEP8avl_nodeIS2_ERKS0_I7commandE+0xd38>
    449d:	0f 1f 00             	nopl   (%rax)
    44a0:	8d 41 01             	lea    0x1(%rcx),%eax
    44a3:	e9 68 fd ff ff       	jmpq   4210 <_ZN6db_avlI9list_nodeI6recordEE9search_gtEP8avl_nodeIS2_ERKS0_I7commandE+0xd70>
    44a8:	0f 1f 84 00 00 00 00 	nopl   0x0(%rax,%rax,1)
    44af:	00 
    44b0:	b9 01 00 00 00       	mov    $0x1,%ecx
    44b5:	e9 1e fd ff ff       	jmpq   41d8 <_ZN6db_avlI9list_nodeI6recordEE9search_gtEP8avl_nodeIS2_ERKS0_I7commandE+0xd38>
    44ba:	48 85 c0             	test   %rax,%rax
    44bd:	0f 95 c0             	setne  %al
    44c0:	0f b6 c0             	movzbl %al,%eax
    44c3:	01 c8                	add    %ecx,%eax
    44c5:	e9 96 fc ff ff       	jmpq   4160 <_ZN6db_avlI9list_nodeI6recordEE9search_gtEP8avl_nodeIS2_ERKS0_I7commandE+0xcc0>
    44ca:	48 85 c0             	test   %rax,%rax
    44cd:	0f 94 c0             	sete   %al
    44d0:	0f b6 c0             	movzbl %al,%eax
    44d3:	01 c8                	add    %ecx,%eax
    44d5:	e9 86 fc ff ff       	jmpq   4160 <_ZN6db_avlI9list_nodeI6recordEE9search_gtEP8avl_nodeIS2_ERKS0_I7commandE+0xcc0>
    44da:	85 c9                	test   %ecx,%ecx
    44dc:	0f 95 c1             	setne  %cl
    44df:	0f b6 c9             	movzbl %cl,%ecx
    44e2:	e9 41 fc ff ff       	jmpq   4128 <_ZN6db_avlI9list_nodeI6recordEE9search_gtEP8avl_nodeIS2_ERKS0_I7commandE+0xc88>
    44e7:	85 c9                	test   %ecx,%ecx
    44e9:	0f 94 c1             	sete   %cl
    44ec:	0f b6 c9             	movzbl %cl,%ecx
    44ef:	e9 34 fc ff ff       	jmpq   4128 <_ZN6db_avlI9list_nodeI6recordEE9search_gtEP8avl_nodeIS2_ERKS0_I7commandE+0xc88>
    44f4:	48 85 c0             	test   %rax,%rax
    44f7:	0f 9e c0             	setle  %al
    44fa:	0f b6 c0             	movzbl %al,%eax
    44fd:	01 c8                	add    %ecx,%eax
    44ff:	e9 5c fc ff ff       	jmpq   4160 <_ZN6db_avlI9list_nodeI6recordEE9search_gtEP8avl_nodeIS2_ERKS0_I7commandE+0xcc0>
    4504:	48 85 c0             	test   %rax,%rax
    4507:	0f 9f c0             	setg   %al
    450a:	0f b6 c0             	movzbl %al,%eax
    450d:	01 c8                	add    %ecx,%eax
    450f:	e9 4c fc ff ff       	jmpq   4160 <_ZN6db_avlI9list_nodeI6recordEE9search_gtEP8avl_nodeIS2_ERKS0_I7commandE+0xcc0>
    4514:	85 c9                	test   %ecx,%ecx
    4516:	0f 9e c1             	setle  %cl
    4519:	0f b6 c9             	movzbl %cl,%ecx
    451c:	e9 07 fc ff ff       	jmpq   4128 <_ZN6db_avlI9list_nodeI6recordEE9search_gtEP8avl_nodeIS2_ERKS0_I7commandE+0xc88>
    4521:	85 c9                	test   %ecx,%ecx
    4523:	0f 9f c1             	setg   %cl
    4526:	0f b6 c9             	movzbl %cl,%ecx
    4529:	e9 fa fb ff ff       	jmpq   4128 <_ZN6db_avlI9list_nodeI6recordEE9search_gtEP8avl_nodeIS2_ERKS0_I7commandE+0xc88>
    452e:	8d 41 01             	lea    0x1(%rcx),%eax
    4531:	e9 2a fc ff ff       	jmpq   4160 <_ZN6db_avlI9list_nodeI6recordEE9search_gtEP8avl_nodeIS2_ERKS0_I7commandE+0xcc0>
    4536:	8d 51 01             	lea    0x1(%rcx),%edx
    4539:	e9 da f3 ff ff       	jmpq   3918 <_ZN6db_avlI9list_nodeI6recordEE9search_gtEP8avl_nodeIS2_ERKS0_I7commandE+0x478>
    453e:	8d 51 01             	lea    0x1(%rcx),%edx
    4541:	e9 9a f3 ff ff       	jmpq   38e0 <_ZN6db_avlI9list_nodeI6recordEE9search_gtEP8avl_nodeIS2_ERKS0_I7commandE+0x440>
    4546:	66 2e 0f 1f 84 00 00 	nopw   %cs:0x0(%rax,%rax,1)
    454d:	00 00 00 
    4550:	41 83 7f 2c 02       	cmpl   $0x2,0x2c(%r15)
    4555:	0f 85 b3 f8 ff ff    	jne    3e0e <_ZN6db_avlI9list_nodeI6recordEE9search_gtEP8avl_nodeIS2_ERKS0_I7commandE+0x96e>
    455b:	e9 20 f9 ff ff       	jmpq   3e80 <_ZN6db_avlI9list_nodeI6recordEE9search_gtEP8avl_nodeIS2_ERKS0_I7commandE+0x9e0>
    4560:	41 83 7f 2c 02       	cmpl   $0x2,0x2c(%r15)
    4565:	0f 85 63 fd ff ff    	jne    42ce <_ZN6db_avlI9list_nodeI6recordEE9search_gtEP8avl_nodeIS2_ERKS0_I7commandE+0xe2e>
    456b:	e9 d0 fd ff ff       	jmpq   4340 <_ZN6db_avlI9list_nodeI6recordEE9search_gtEP8avl_nodeIS2_ERKS0_I7commandE+0xea0>
    4570:	41 83 7f 2c 02       	cmpl   $0x2,0x2c(%r15)
    4575:	0f 85 f7 fb ff ff    	jne    4172 <_ZN6db_avlI9list_nodeI6recordEE9search_gtEP8avl_nodeIS2_ERKS0_I7commandE+0xcd2>
    457b:	0f 1f 44 00 00       	nopl   0x0(%rax,%rax,1)
    4580:	48 8b 4a 10          	mov    0x10(%rdx),%rcx
    4584:	44 8b 42 18          	mov    0x18(%rdx),%r8d
    4588:	48 8d 35 c6 35 00 00 	lea    0x35c6(%rip),%rsi        # 7b55 <_IO_stdin_used+0x55>
    458f:	48 8b 12             	mov    (%rdx),%rdx
    4592:	bf 01 00 00 00       	mov    $0x1,%edi
    4597:	31 c0                	xor    %eax,%eax
    4599:	e8 b2 c6 ff ff       	callq  c50 <__printf_chk@plt>
    459e:	e9 cf fb ff ff       	jmpq   4172 <_ZN6db_avlI9list_nodeI6recordEE9search_gtEP8avl_nodeIS2_ERKS0_I7commandE+0xcd2>
    45a3:	0f 1f 44 00 00       	nopl   0x0(%rax,%rax,1)
    45a8:	41 83 7f 2c 02       	cmpl   $0x2,0x2c(%r15)
    45ad:	0f 85 07 f7 ff ff    	jne    3cba <_ZN6db_avlI9list_nodeI6recordEE9search_gtEP8avl_nodeIS2_ERKS0_I7commandE+0x81a>
    45b3:	0f 1f 44 00 00       	nopl   0x0(%rax,%rax,1)
    45b8:	48 8b 4a 10          	mov    0x10(%rdx),%rcx
    45bc:	44 8b 42 18          	mov    0x18(%rdx),%r8d
    45c0:	48 8d 35 8e 35 00 00 	lea    0x358e(%rip),%rsi        # 7b55 <_IO_stdin_used+0x55>
    45c7:	48 8b 12             	mov    (%rdx),%rdx
    45ca:	bf 01 00 00 00       	mov    $0x1,%edi
    45cf:	31 c0                	xor    %eax,%eax
    45d1:	e8 7a c6 ff ff       	callq  c50 <__printf_chk@plt>
    45d6:	e9 df f6 ff ff       	jmpq   3cba <_ZN6db_avlI9list_nodeI6recordEE9search_gtEP8avl_nodeIS2_ERKS0_I7commandE+0x81a>
    45db:	0f 1f 44 00 00       	nopl   0x0(%rax,%rax,1)
    45e0:	41 83 7f 2c 02       	cmpl   $0x2,0x2c(%r15)
    45e5:	0f 85 37 fc ff ff    	jne    4222 <_ZN6db_avlI9list_nodeI6recordEE9search_gtEP8avl_nodeIS2_ERKS0_I7commandE+0xd82>
    45eb:	e9 18 fe ff ff       	jmpq   4408 <_ZN6db_avlI9list_nodeI6recordEE9search_gtEP8avl_nodeIS2_ERKS0_I7commandE+0xf68>
    45f0:	41 83 7f 2c 02       	cmpl   $0x2,0x2c(%r15)
    45f5:	0f 85 67 f7 ff ff    	jne    3d62 <_ZN6db_avlI9list_nodeI6recordEE9search_gtEP8avl_nodeIS2_ERKS0_I7commandE+0x8c2>
    45fb:	e9 48 f9 ff ff       	jmpq   3f48 <_ZN6db_avlI9list_nodeI6recordEE9search_gtEP8avl_nodeIS2_ERKS0_I7commandE+0xaa8>
    4600:	41 83 7f 2c 02       	cmpl   $0x2,0x2c(%r15)
    4605:	0f 85 07 f6 ff ff    	jne    3c12 <_ZN6db_avlI9list_nodeI6recordEE9search_gtEP8avl_nodeIS2_ERKS0_I7commandE+0x772>
    460b:	0f 1f 44 00 00       	nopl   0x0(%rax,%rax,1)
    4610:	48 8b 4a 10          	mov    0x10(%rdx),%rcx
    4614:	44 8b 42 18          	mov    0x18(%rdx),%r8d
    4618:	48 8d 35 36 35 00 00 	lea    0x3536(%rip),%rsi        # 7b55 <_IO_stdin_used+0x55>
    461f:	48 8b 12             	mov    (%rdx),%rdx
    4622:	bf 01 00 00 00       	mov    $0x1,%edi
    4627:	31 c0                	xor    %eax,%eax
    4629:	e8 22 c6 ff ff       	callq  c50 <__printf_chk@plt>
    462e:	e9 df f5 ff ff       	jmpq   3c12 <_ZN6db_avlI9list_nodeI6recordEE9search_gtEP8avl_nodeIS2_ERKS0_I7commandE+0x772>
    4633:	41 83 7f 2c 02       	cmpl   $0x2,0x2c(%r15)
    4638:	0f 85 8c fa ff ff    	jne    40ca <_ZN6db_avlI9list_nodeI6recordEE9search_gtEP8avl_nodeIS2_ERKS0_I7commandE+0xc2a>
    463e:	66 90                	xchg   %ax,%ax
    4640:	48 8b 4a 10          	mov    0x10(%rdx),%rcx
    4644:	44 8b 42 18          	mov    0x18(%rdx),%r8d
    4648:	48 8d 35 06 35 00 00 	lea    0x3506(%rip),%rsi        # 7b55 <_IO_stdin_used+0x55>
    464f:	48 8b 12             	mov    (%rdx),%rdx
    4652:	bf 01 00 00 00       	mov    $0x1,%edi
    4657:	31 c0                	xor    %eax,%eax
    4659:	e8 f2 c5 ff ff       	callq  c50 <__printf_chk@plt>
    465e:	e9 67 fa ff ff       	jmpq   40ca <_ZN6db_avlI9list_nodeI6recordEE9search_gtEP8avl_nodeIS2_ERKS0_I7commandE+0xc2a>
    4663:	85 d2                	test   %edx,%edx
    4665:	0f 9e c2             	setle  %dl
    4668:	0f b6 d2             	movzbl %dl,%edx
    466b:	0f 1f 44 00 00       	nopl   0x0(%rax,%rax,1)
    4670:	85 c9                	test   %ecx,%ecx
    4672:	8d 42 01             	lea    0x1(%rdx),%eax
    4675:	0f 84 cd f3 ff ff    	je     3a48 <_ZN6db_avlI9list_nodeI6recordEE9search_gtEP8avl_nodeIS2_ERKS0_I7commandE+0x5a8>
    467b:	48 8b 43 10          	mov    0x10(%rbx),%rax
    467f:	49 2b 47 10          	sub    0x10(%r15),%rax
    4683:	83 f9 06             	cmp    $0x6,%ecx
    4686:	0f 87 78 03 00 00    	ja     4a04 <_ZN6db_avlI9list_nodeI6recordEE9search_gtEP8avl_nodeIS2_ERKS0_I7commandE+0x1564>
    468c:	48 8d 35 39 39 00 00 	lea    0x3939(%rip),%rsi        # 7fcc <_IO_stdin_used+0x4cc>
    4693:	48 63 0c 8e          	movslq (%rsi,%rcx,4),%rcx
    4697:	48 01 f1             	add    %rsi,%rcx
    469a:	ff e1                	jmpq   *%rcx
    469c:	85 d2                	test   %edx,%edx
    469e:	0f 9e c2             	setle  %dl
    46a1:	0f b6 d2             	movzbl %dl,%edx
    46a4:	0f 1f 40 00          	nopl   0x0(%rax)
    46a8:	85 c9                	test   %ecx,%ecx
    46aa:	8d 42 01             	lea    0x1(%rdx),%eax
    46ad:	0f 84 f5 f2 ff ff    	je     39a8 <_ZN6db_avlI9list_nodeI6recordEE9search_gtEP8avl_nodeIS2_ERKS0_I7commandE+0x508>
    46b3:	48 8b 43 10          	mov    0x10(%rbx),%rax
    46b7:	49 2b 47 10          	sub    0x10(%r15),%rax
    46bb:	83 f9 06             	cmp    $0x6,%ecx
    46be:	0f 87 38 03 00 00    	ja     49fc <_ZN6db_avlI9list_nodeI6recordEE9search_gtEP8avl_nodeIS2_ERKS0_I7commandE+0x155c>
    46c4:	48 8d 35 1d 39 00 00 	lea    0x391d(%rip),%rsi        # 7fe8 <_IO_stdin_used+0x4e8>
    46cb:	48 63 0c 8e          	movslq (%rsi,%rcx,4),%rcx
    46cf:	48 01 f1             	add    %rsi,%rcx
    46d2:	ff e1                	jmpq   *%rcx
    46d4:	b9 01 00 00 00       	mov    $0x1,%ecx
    46d9:	e9 4a fa ff ff       	jmpq   4128 <_ZN6db_avlI9list_nodeI6recordEE9search_gtEP8avl_nodeIS2_ERKS0_I7commandE+0xc88>
    46de:	b9 01 00 00 00       	mov    $0x1,%ecx
    46e3:	e9 88 f5 ff ff       	jmpq   3c70 <_ZN6db_avlI9list_nodeI6recordEE9search_gtEP8avl_nodeIS2_ERKS0_I7commandE+0x7d0>
    46e8:	48 85 c0             	test   %rax,%rax
    46eb:	0f 9e c0             	setle  %al
    46ee:	0f b6 c0             	movzbl %al,%eax
    46f1:	01 c8                	add    %ecx,%eax
    46f3:	e9 08 f5 ff ff       	jmpq   3c00 <_ZN6db_avlI9list_nodeI6recordEE9search_gtEP8avl_nodeIS2_ERKS0_I7commandE+0x760>
    46f8:	48 85 c0             	test   %rax,%rax
    46fb:	0f 9f c0             	setg   %al
    46fe:	0f b6 c0             	movzbl %al,%eax
    4701:	01 c8                	add    %ecx,%eax
    4703:	e9 f8 f4 ff ff       	jmpq   3c00 <_ZN6db_avlI9list_nodeI6recordEE9search_gtEP8avl_nodeIS2_ERKS0_I7commandE+0x760>
    4708:	48 85 c0             	test   %rax,%rax
    470b:	0f 95 c0             	setne  %al
    470e:	0f b6 c0             	movzbl %al,%eax
    4711:	01 c8                	add    %ecx,%eax
    4713:	e9 e8 f4 ff ff       	jmpq   3c00 <_ZN6db_avlI9list_nodeI6recordEE9search_gtEP8avl_nodeIS2_ERKS0_I7commandE+0x760>
    4718:	48 85 c0             	test   %rax,%rax
    471b:	0f 94 c0             	sete   %al
    471e:	0f b6 c0             	movzbl %al,%eax
    4721:	01 c8                	add    %ecx,%eax
    4723:	e9 d8 f4 ff ff       	jmpq   3c00 <_ZN6db_avlI9list_nodeI6recordEE9search_gtEP8avl_nodeIS2_ERKS0_I7commandE+0x760>
    4728:	85 c9                	test   %ecx,%ecx
    472a:	0f 9e c1             	setle  %cl
    472d:	0f b6 c9             	movzbl %cl,%ecx
    4730:	e9 93 f4 ff ff       	jmpq   3bc8 <_ZN6db_avlI9list_nodeI6recordEE9search_gtEP8avl_nodeIS2_ERKS0_I7commandE+0x728>
    4735:	85 c9                	test   %ecx,%ecx
    4737:	0f 9f c1             	setg   %cl
    473a:	0f b6 c9             	movzbl %cl,%ecx
    473d:	e9 86 f4 ff ff       	jmpq   3bc8 <_ZN6db_avlI9list_nodeI6recordEE9search_gtEP8avl_nodeIS2_ERKS0_I7commandE+0x728>
    4742:	85 c9                	test   %ecx,%ecx
    4744:	0f 95 c1             	setne  %cl
    4747:	0f b6 c9             	movzbl %cl,%ecx
    474a:	e9 79 f4 ff ff       	jmpq   3bc8 <_ZN6db_avlI9list_nodeI6recordEE9search_gtEP8avl_nodeIS2_ERKS0_I7commandE+0x728>
    474f:	85 c9                	test   %ecx,%ecx
    4751:	0f 94 c1             	sete   %cl
    4754:	0f b6 c9             	movzbl %cl,%ecx
    4757:	e9 6c f4 ff ff       	jmpq   3bc8 <_ZN6db_avlI9list_nodeI6recordEE9search_gtEP8avl_nodeIS2_ERKS0_I7commandE+0x728>
    475c:	85 c9                	test   %ecx,%ecx
    475e:	0f 9e c1             	setle  %cl
    4761:	0f b6 c9             	movzbl %cl,%ecx
    4764:	e9 17 f9 ff ff       	jmpq   4080 <_ZN6db_avlI9list_nodeI6recordEE9search_gtEP8avl_nodeIS2_ERKS0_I7commandE+0xbe0>
    4769:	48 85 c0             	test   %rax,%rax
    476c:	0f 9e c0             	setle  %al
    476f:	0f b6 c0             	movzbl %al,%eax
    4772:	01 c8                	add    %ecx,%eax
    4774:	e9 3f f9 ff ff       	jmpq   40b8 <_ZN6db_avlI9list_nodeI6recordEE9search_gtEP8avl_nodeIS2_ERKS0_I7commandE+0xc18>
    4779:	48 85 c0             	test   %rax,%rax
    477c:	0f 9f c0             	setg   %al
    477f:	0f b6 c0             	movzbl %al,%eax
    4782:	01 c8                	add    %ecx,%eax
    4784:	e9 2f f9 ff ff       	jmpq   40b8 <_ZN6db_avlI9list_nodeI6recordEE9search_gtEP8avl_nodeIS2_ERKS0_I7commandE+0xc18>
    4789:	48 85 c0             	test   %rax,%rax
    478c:	0f 95 c0             	setne  %al
    478f:	0f b6 c0             	movzbl %al,%eax
    4792:	01 c8                	add    %ecx,%eax
    4794:	e9 1f f9 ff ff       	jmpq   40b8 <_ZN6db_avlI9list_nodeI6recordEE9search_gtEP8avl_nodeIS2_ERKS0_I7commandE+0xc18>
    4799:	48 85 c0             	test   %rax,%rax
    479c:	0f 94 c0             	sete   %al
    479f:	0f b6 c0             	movzbl %al,%eax
    47a2:	01 c8                	add    %ecx,%eax
    47a4:	e9 0f f9 ff ff       	jmpq   40b8 <_ZN6db_avlI9list_nodeI6recordEE9search_gtEP8avl_nodeIS2_ERKS0_I7commandE+0xc18>
    47a9:	85 c9                	test   %ecx,%ecx
    47ab:	0f 9f c1             	setg   %cl
    47ae:	0f b6 c9             	movzbl %cl,%ecx
    47b1:	e9 ca f8 ff ff       	jmpq   4080 <_ZN6db_avlI9list_nodeI6recordEE9search_gtEP8avl_nodeIS2_ERKS0_I7commandE+0xbe0>
    47b6:	85 c9                	test   %ecx,%ecx
    47b8:	0f 95 c1             	setne  %cl
    47bb:	0f b6 c9             	movzbl %cl,%ecx
    47be:	e9 bd f8 ff ff       	jmpq   4080 <_ZN6db_avlI9list_nodeI6recordEE9search_gtEP8avl_nodeIS2_ERKS0_I7commandE+0xbe0>
    47c3:	85 c9                	test   %ecx,%ecx
    47c5:	0f 94 c1             	sete   %cl
    47c8:	0f b6 c9             	movzbl %cl,%ecx
    47cb:	e9 b0 f8 ff ff       	jmpq   4080 <_ZN6db_avlI9list_nodeI6recordEE9search_gtEP8avl_nodeIS2_ERKS0_I7commandE+0xbe0>
    47d0:	b9 01 00 00 00       	mov    $0x1,%ecx
    47d5:	e9 d6 f0 ff ff       	jmpq   38b0 <_ZN6db_avlI9list_nodeI6recordEE9search_gtEP8avl_nodeIS2_ERKS0_I7commandE+0x410>
    47da:	b9 01 00 00 00       	mov    $0x1,%ecx
    47df:	e9 9c f0 ff ff       	jmpq   3880 <_ZN6db_avlI9list_nodeI6recordEE9search_gtEP8avl_nodeIS2_ERKS0_I7commandE+0x3e0>
    47e4:	f7 d6                	not    %esi
    47e6:	c1 ee 1f             	shr    $0x1f,%esi
    47e9:	e9 ca ee ff ff       	jmpq   36b8 <_ZN6db_avlI9list_nodeI6recordEE9search_gtEP8avl_nodeIS2_ERKS0_I7commandE+0x218>
    47ee:	f7 d6                	not    %esi
    47f0:	c1 ee 1f             	shr    $0x1f,%esi
    47f3:	e9 a8 ef ff ff       	jmpq   37a0 <_ZN6db_avlI9list_nodeI6recordEE9search_gtEP8avl_nodeIS2_ERKS0_I7commandE+0x300>
    47f8:	85 f6                	test   %esi,%esi
    47fa:	40 0f 9f c6          	setg   %sil
    47fe:	40 0f b6 f6          	movzbl %sil,%esi
    4802:	e9 b1 ee ff ff       	jmpq   36b8 <_ZN6db_avlI9list_nodeI6recordEE9search_gtEP8avl_nodeIS2_ERKS0_I7commandE+0x218>
    4807:	85 f6                	test   %esi,%esi
    4809:	40 0f 95 c6          	setne  %sil
    480d:	40 0f b6 f6          	movzbl %sil,%esi
    4811:	e9 8a ef ff ff       	jmpq   37a0 <_ZN6db_avlI9list_nodeI6recordEE9search_gtEP8avl_nodeIS2_ERKS0_I7commandE+0x300>
    4816:	85 f6                	test   %esi,%esi
    4818:	40 0f 9f c6          	setg   %sil
    481c:	40 0f b6 f6          	movzbl %sil,%esi
    4820:	e9 7b ef ff ff       	jmpq   37a0 <_ZN6db_avlI9list_nodeI6recordEE9search_gtEP8avl_nodeIS2_ERKS0_I7commandE+0x300>
    4825:	85 f6                	test   %esi,%esi
    4827:	40 0f 95 c6          	setne  %sil
    482b:	40 0f b6 f6          	movzbl %sil,%esi
    482f:	e9 84 ee ff ff       	jmpq   36b8 <_ZN6db_avlI9list_nodeI6recordEE9search_gtEP8avl_nodeIS2_ERKS0_I7commandE+0x218>
    4834:	85 f6                	test   %esi,%esi
    4836:	40 0f 94 c6          	sete   %sil
    483a:	40 0f b6 f6          	movzbl %sil,%esi
    483e:	e9 75 ee ff ff       	jmpq   36b8 <_ZN6db_avlI9list_nodeI6recordEE9search_gtEP8avl_nodeIS2_ERKS0_I7commandE+0x218>
    4843:	48 85 d2             	test   %rdx,%rdx
    4846:	0f 9f c2             	setg   %dl
    4849:	0f b6 d2             	movzbl %dl,%edx
    484c:	01 f2                	add    %esi,%edx
    484e:	e9 9d ee ff ff       	jmpq   36f0 <_ZN6db_avlI9list_nodeI6recordEE9search_gtEP8avl_nodeIS2_ERKS0_I7commandE+0x250>
    4853:	48 85 d2             	test   %rdx,%rdx
    4856:	0f 95 c2             	setne  %dl
    4859:	0f b6 d2             	movzbl %dl,%edx
    485c:	01 f2                	add    %esi,%edx
    485e:	e9 75 ef ff ff       	jmpq   37d8 <_ZN6db_avlI9list_nodeI6recordEE9search_gtEP8avl_nodeIS2_ERKS0_I7commandE+0x338>
    4863:	48 85 d2             	test   %rdx,%rdx
    4866:	0f 94 c2             	sete   %dl
    4869:	0f b6 d2             	movzbl %dl,%edx
    486c:	01 f2                	add    %esi,%edx
    486e:	e9 65 ef ff ff       	jmpq   37d8 <_ZN6db_avlI9list_nodeI6recordEE9search_gtEP8avl_nodeIS2_ERKS0_I7commandE+0x338>
    4873:	48 85 d2             	test   %rdx,%rdx
    4876:	0f 9e c2             	setle  %dl
    4879:	0f b6 d2             	movzbl %dl,%edx
    487c:	01 f2                	add    %esi,%edx
    487e:	e9 55 ef ff ff       	jmpq   37d8 <_ZN6db_avlI9list_nodeI6recordEE9search_gtEP8avl_nodeIS2_ERKS0_I7commandE+0x338>
    4883:	48 85 d2             	test   %rdx,%rdx
    4886:	0f 9f c2             	setg   %dl
    4889:	0f b6 d2             	movzbl %dl,%edx
    488c:	01 f2                	add    %esi,%edx
    488e:	e9 45 ef ff ff       	jmpq   37d8 <_ZN6db_avlI9list_nodeI6recordEE9search_gtEP8avl_nodeIS2_ERKS0_I7commandE+0x338>
    4893:	48 85 d2             	test   %rdx,%rdx
    4896:	0f 95 c2             	setne  %dl
    4899:	0f b6 d2             	movzbl %dl,%edx
    489c:	01 f2                	add    %esi,%edx
    489e:	e9 4d ee ff ff       	jmpq   36f0 <_ZN6db_avlI9list_nodeI6recordEE9search_gtEP8avl_nodeIS2_ERKS0_I7commandE+0x250>
    48a3:	48 85 d2             	test   %rdx,%rdx
    48a6:	0f 94 c2             	sete   %dl
    48a9:	0f b6 d2             	movzbl %dl,%edx
    48ac:	01 f2                	add    %esi,%edx
    48ae:	e9 3d ee ff ff       	jmpq   36f0 <_ZN6db_avlI9list_nodeI6recordEE9search_gtEP8avl_nodeIS2_ERKS0_I7commandE+0x250>
    48b3:	85 f6                	test   %esi,%esi
    48b5:	40 0f 94 c6          	sete   %sil
    48b9:	40 0f b6 f6          	movzbl %sil,%esi
    48bd:	e9 de ee ff ff       	jmpq   37a0 <_ZN6db_avlI9list_nodeI6recordEE9search_gtEP8avl_nodeIS2_ERKS0_I7commandE+0x300>
    48c2:	48 85 d2             	test   %rdx,%rdx
    48c5:	0f 9e c2             	setle  %dl
    48c8:	0f b6 d2             	movzbl %dl,%edx
    48cb:	01 f2                	add    %esi,%edx
    48cd:	e9 1e ee ff ff       	jmpq   36f0 <_ZN6db_avlI9list_nodeI6recordEE9search_gtEP8avl_nodeIS2_ERKS0_I7commandE+0x250>
    48d2:	8d 41 01             	lea    0x1(%rcx),%eax
    48d5:	e9 de f7 ff ff       	jmpq   40b8 <_ZN6db_avlI9list_nodeI6recordEE9search_gtEP8avl_nodeIS2_ERKS0_I7commandE+0xc18>
    48da:	8d 41 01             	lea    0x1(%rcx),%eax
    48dd:	e9 1e f3 ff ff       	jmpq   3c00 <_ZN6db_avlI9list_nodeI6recordEE9search_gtEP8avl_nodeIS2_ERKS0_I7commandE+0x760>
    48e2:	b9 01 00 00 00       	mov    $0x1,%ecx
    48e7:	e9 dc f2 ff ff       	jmpq   3bc8 <_ZN6db_avlI9list_nodeI6recordEE9search_gtEP8avl_nodeIS2_ERKS0_I7commandE+0x728>
    48ec:	b9 01 00 00 00       	mov    $0x1,%ecx
    48f1:	e9 8a f7 ff ff       	jmpq   4080 <_ZN6db_avlI9list_nodeI6recordEE9search_gtEP8avl_nodeIS2_ERKS0_I7commandE+0xbe0>
    48f6:	f7 d2                	not    %edx
    48f8:	c1 ea 1f             	shr    $0x1f,%edx
    48fb:	e9 a8 fd ff ff       	jmpq   46a8 <_ZN6db_avlI9list_nodeI6recordEE9search_gtEP8avl_nodeIS2_ERKS0_I7commandE+0x1208>
    4900:	f7 d2                	not    %edx
    4902:	c1 ea 1f             	shr    $0x1f,%edx
    4905:	e9 66 fd ff ff       	jmpq   4670 <_ZN6db_avlI9list_nodeI6recordEE9search_gtEP8avl_nodeIS2_ERKS0_I7commandE+0x11d0>
    490a:	85 d2                	test   %edx,%edx
    490c:	0f 94 c2             	sete   %dl
    490f:	0f b6 d2             	movzbl %dl,%edx
    4912:	e9 91 fd ff ff       	jmpq   46a8 <_ZN6db_avlI9list_nodeI6recordEE9search_gtEP8avl_nodeIS2_ERKS0_I7commandE+0x1208>
    4917:	48 85 c0             	test   %rax,%rax
    491a:	0f 94 c0             	sete   %al
    491d:	0f b6 c0             	movzbl %al,%eax
    4920:	01 d0                	add    %edx,%eax
    4922:	e9 21 f1 ff ff       	jmpq   3a48 <_ZN6db_avlI9list_nodeI6recordEE9search_gtEP8avl_nodeIS2_ERKS0_I7commandE+0x5a8>
    4927:	48 85 c0             	test   %rax,%rax
    492a:	0f 95 c0             	setne  %al
    492d:	0f b6 c0             	movzbl %al,%eax
    4930:	01 d0                	add    %edx,%eax
    4932:	e9 11 f1 ff ff       	jmpq   3a48 <_ZN6db_avlI9list_nodeI6recordEE9search_gtEP8avl_nodeIS2_ERKS0_I7commandE+0x5a8>
    4937:	48 85 c0             	test   %rax,%rax
    493a:	0f 95 c0             	setne  %al
    493d:	0f b6 c0             	movzbl %al,%eax
    4940:	01 d0                	add    %edx,%eax
    4942:	e9 61 f0 ff ff       	jmpq   39a8 <_ZN6db_avlI9list_nodeI6recordEE9search_gtEP8avl_nodeIS2_ERKS0_I7commandE+0x508>
    4947:	48 85 c0             	test   %rax,%rax
    494a:	0f 9e c0             	setle  %al
    494d:	0f b6 c0             	movzbl %al,%eax
    4950:	01 d0                	add    %edx,%eax
    4952:	e9 51 f0 ff ff       	jmpq   39a8 <_ZN6db_avlI9list_nodeI6recordEE9search_gtEP8avl_nodeIS2_ERKS0_I7commandE+0x508>
    4957:	48 85 c0             	test   %rax,%rax
    495a:	0f 9f c0             	setg   %al
    495d:	0f b6 c0             	movzbl %al,%eax
    4960:	01 d0                	add    %edx,%eax
    4962:	e9 41 f0 ff ff       	jmpq   39a8 <_ZN6db_avlI9list_nodeI6recordEE9search_gtEP8avl_nodeIS2_ERKS0_I7commandE+0x508>
    4967:	48 85 c0             	test   %rax,%rax
    496a:	0f 94 c0             	sete   %al
    496d:	0f b6 c0             	movzbl %al,%eax
    4970:	01 d0                	add    %edx,%eax
    4972:	e9 31 f0 ff ff       	jmpq   39a8 <_ZN6db_avlI9list_nodeI6recordEE9search_gtEP8avl_nodeIS2_ERKS0_I7commandE+0x508>
    4977:	85 d2                	test   %edx,%edx
    4979:	0f 95 c2             	setne  %dl
    497c:	0f b6 d2             	movzbl %dl,%edx
    497f:	e9 24 fd ff ff       	jmpq   46a8 <_ZN6db_avlI9list_nodeI6recordEE9search_gtEP8avl_nodeIS2_ERKS0_I7commandE+0x1208>
    4984:	85 d2                	test   %edx,%edx
    4986:	0f 9f c2             	setg   %dl
    4989:	0f b6 d2             	movzbl %dl,%edx
    498c:	e9 df fc ff ff       	jmpq   4670 <_ZN6db_avlI9list_nodeI6recordEE9search_gtEP8avl_nodeIS2_ERKS0_I7commandE+0x11d0>
    4991:	85 d2                	test   %edx,%edx
    4993:	0f 95 c2             	setne  %dl
    4996:	0f b6 d2             	movzbl %dl,%edx
    4999:	e9 d2 fc ff ff       	jmpq   4670 <_ZN6db_avlI9list_nodeI6recordEE9search_gtEP8avl_nodeIS2_ERKS0_I7commandE+0x11d0>
    499e:	85 d2                	test   %edx,%edx
    49a0:	0f 94 c2             	sete   %dl
    49a3:	0f b6 d2             	movzbl %dl,%edx
    49a6:	e9 c5 fc ff ff       	jmpq   4670 <_ZN6db_avlI9list_nodeI6recordEE9search_gtEP8avl_nodeIS2_ERKS0_I7commandE+0x11d0>
    49ab:	48 85 c0             	test   %rax,%rax
    49ae:	0f 9e c0             	setle  %al
    49b1:	0f b6 c0             	movzbl %al,%eax
    49b4:	01 d0                	add    %edx,%eax
    49b6:	e9 8d f0 ff ff       	jmpq   3a48 <_ZN6db_avlI9list_nodeI6recordEE9search_gtEP8avl_nodeIS2_ERKS0_I7commandE+0x5a8>
    49bb:	48 85 c0             	test   %rax,%rax
    49be:	0f 9f c0             	setg   %al
    49c1:	0f b6 c0             	movzbl %al,%eax
    49c4:	01 d0                	add    %edx,%eax
    49c6:	e9 7d f0 ff ff       	jmpq   3a48 <_ZN6db_avlI9list_nodeI6recordEE9search_gtEP8avl_nodeIS2_ERKS0_I7commandE+0x5a8>
    49cb:	85 d2                	test   %edx,%edx
    49cd:	0f 9f c2             	setg   %dl
    49d0:	0f b6 d2             	movzbl %dl,%edx
    49d3:	e9 d0 fc ff ff       	jmpq   46a8 <_ZN6db_avlI9list_nodeI6recordEE9search_gtEP8avl_nodeIS2_ERKS0_I7commandE+0x1208>
    49d8:	8d 56 01             	lea    0x1(%rsi),%edx
    49db:	e9 f8 ed ff ff       	jmpq   37d8 <_ZN6db_avlI9list_nodeI6recordEE9search_gtEP8avl_nodeIS2_ERKS0_I7commandE+0x338>
    49e0:	8d 56 01             	lea    0x1(%rsi),%edx
    49e3:	e9 08 ed ff ff       	jmpq   36f0 <_ZN6db_avlI9list_nodeI6recordEE9search_gtEP8avl_nodeIS2_ERKS0_I7commandE+0x250>
    49e8:	be 01 00 00 00       	mov    $0x1,%esi
    49ed:	e9 c6 ec ff ff       	jmpq   36b8 <_ZN6db_avlI9list_nodeI6recordEE9search_gtEP8avl_nodeIS2_ERKS0_I7commandE+0x218>
    49f2:	be 01 00 00 00       	mov    $0x1,%esi
    49f7:	e9 a4 ed ff ff       	jmpq   37a0 <_ZN6db_avlI9list_nodeI6recordEE9search_gtEP8avl_nodeIS2_ERKS0_I7commandE+0x300>
    49fc:	8d 42 01             	lea    0x1(%rdx),%eax
    49ff:	e9 a4 ef ff ff       	jmpq   39a8 <_ZN6db_avlI9list_nodeI6recordEE9search_gtEP8avl_nodeIS2_ERKS0_I7commandE+0x508>
    4a04:	8d 42 01             	lea    0x1(%rdx),%eax
    4a07:	e9 3c f0 ff ff       	jmpq   3a48 <_ZN6db_avlI9list_nodeI6recordEE9search_gtEP8avl_nodeIS2_ERKS0_I7commandE+0x5a8>
    4a0c:	ba 01 00 00 00       	mov    $0x1,%edx
    4a11:	e9 5a fc ff ff       	jmpq   4670 <_ZN6db_avlI9list_nodeI6recordEE9search_gtEP8avl_nodeIS2_ERKS0_I7commandE+0x11d0>
    4a16:	ba 01 00 00 00       	mov    $0x1,%edx
    4a1b:	e9 88 fc ff ff       	jmpq   46a8 <_ZN6db_avlI9list_nodeI6recordEE9search_gtEP8avl_nodeIS2_ERKS0_I7commandE+0x1208>

0000000000004a20 <_ZN8DatabaseI6recordE9run_shellEv>:
    4a20:	41 57                	push   %r15
    4a22:	41 56                	push   %r14
    4a24:	b9 95 00 00 00       	mov    $0x95,%ecx
    4a29:	41 55                	push   %r13
    4a2b:	41 54                	push   %r12
    4a2d:	31 f6                	xor    %esi,%esi
    4a2f:	55                   	push   %rbp
    4a30:	53                   	push   %rbx
    4a31:	48 bb 73 65 6c 65 63 	movabs $0x7463656c6573,%rbx
    4a38:	74 00 00 
    4a3b:	66 0f ef c0          	pxor   %xmm0,%xmm0
    4a3f:	48 81 ec 88 10 00 00 	sub    $0x1088,%rsp
    4a46:	48 89 7c 24 28       	mov    %rdi,0x28(%rsp)
    4a4b:	31 ff                	xor    %edi,%edi
    4a4d:	48 c7 84 24 c0 01 00 	movq   $0x0,0x1c0(%rsp)
    4a54:	00 00 00 00 00 
    4a59:	64 48 8b 04 25 28 00 	mov    %fs:0x28,%rax
    4a60:	00 00 
    4a62:	48 89 84 24 78 10 00 	mov    %rax,0x1078(%rsp)
    4a69:	00 
    4a6a:	31 c0                	xor    %eax,%eax
    4a6c:	66 89 bc 24 1c 02 00 	mov    %di,0x21c(%rsp)
    4a73:	00 
    4a74:	48 8d bc 24 30 02 00 	lea    0x230(%rsp),%rdi
    4a7b:	00 
    4a7c:	c7 84 24 c8 01 00 00 	movl   $0x0,0x1c8(%rsp)
    4a83:	00 00 00 00 
    4a87:	0f 11 84 24 dc 01 00 	movups %xmm0,0x1dc(%rsp)
    4a8e:	00 
    4a8f:	f3 48 ab             	rep stos %rax,%es:(%rdi)
    4a92:	66 0f ef c0          	pxor   %xmm0,%xmm0
    4a96:	b9 95 00 00 00       	mov    $0x95,%ecx
    4a9b:	48 89 9c 24 2c 02 00 	mov    %rbx,0x22c(%rsp)
    4aa2:	00 
    4aa3:	48 89 b4 24 34 02 00 	mov    %rsi,0x234(%rsp)
    4aaa:	00 
    4aab:	48 bb 69 6e 73 65 72 	movabs $0x747265736e69,%rbx
    4ab2:	74 00 00 
    4ab5:	31 f6                	xor    %esi,%esi
    4ab7:	48 89 9c 24 54 02 00 	mov    %rbx,0x254(%rsp)
    4abe:	00 
    4abf:	48 bb 77 68 65 72 65 	movabs $0x6572656877,%rbx
    4ac6:	00 00 00 
    4ac9:	48 89 b4 24 5c 02 00 	mov    %rsi,0x25c(%rsp)
    4ad0:	00 
    4ad1:	31 f6                	xor    %esi,%esi
    4ad3:	c7 84 24 cc 01 00 00 	movl   $0x0,0x1cc(%rsp)
    4ada:	00 00 00 00 
    4ade:	c7 07 00 00 00 00    	movl   $0x0,(%rdi)
    4ae4:	48 8d bc 24 e0 06 00 	lea    0x6e0(%rsp),%rdi
    4aeb:	00 
    4aec:	48 c7 84 24 d0 01 00 	movq   $0x0,0x1d0(%rsp)
    4af3:	00 00 00 00 00 
    4af8:	0f 29 84 24 00 02 00 	movaps %xmm0,0x200(%rsp)
    4aff:	00 
    4b00:	c7 84 24 d8 01 00 00 	movl   $0x0,0x1d8(%rsp)
    4b07:	00 00 00 00 
    4b0b:	c7 84 24 ec 01 00 00 	movl   $0x0,0x1ec(%rsp)
    4b12:	00 00 00 00 
    4b16:	0f 11 84 24 3c 02 00 	movups %xmm0,0x23c(%rsp)
    4b1d:	00 
    4b1e:	0f 11 84 24 64 02 00 	movups %xmm0,0x264(%rsp)
    4b25:	00 
    4b26:	c6 84 24 f0 01 00 00 	movb   $0x0,0x1f0(%rsp)
    4b2d:	00 
    4b2e:	48 c7 84 24 10 02 00 	movq   $0x0,0x210(%rsp)
    4b35:	00 00 00 00 00 
    4b3a:	c7 84 24 18 02 00 00 	movl   $0x0,0x218(%rsp)
    4b41:	00 00 00 00 
    4b45:	c6 84 24 1e 02 00 00 	movb   $0x0,0x21e(%rsp)
    4b4c:	00 
    4b4d:	48 c7 84 24 4c 02 00 	movq   $0x0,0x24c(%rsp)
    4b54:	00 00 00 00 00 
    4b59:	48 c7 84 24 74 02 00 	movq   $0x0,0x274(%rsp)
    4b60:	00 00 00 00 00 
    4b65:	48 89 9c 24 7c 02 00 	mov    %rbx,0x27c(%rsp)
    4b6c:	00 
    4b6d:	48 89 b4 24 84 02 00 	mov    %rsi,0x284(%rsp)
    4b74:	00 
    4b75:	48 bb 64 65 6c 65 74 	movabs $0x6574656c6564,%rbx
    4b7c:	65 00 00 
    4b7f:	31 f6                	xor    %esi,%esi
    4b81:	48 89 9c 24 cc 02 00 	mov    %rbx,0x2cc(%rsp)
    4b88:	00 
    4b89:	48 c7 84 24 9c 02 00 	movq   $0x0,0x29c(%rsp)
    4b90:	00 00 00 00 00 
    4b95:	0f 11 84 24 8c 02 00 	movups %xmm0,0x28c(%rsp)
    4b9c:	00 
    4b9d:	48 89 b4 24 d4 02 00 	mov    %rsi,0x2d4(%rsp)
    4ba4:	00 
    4ba5:	48 c7 84 24 a4 02 00 	movq   $0x74697571,0x2a4(%rsp)
    4bac:	00 71 75 69 74 
    4bb1:	0f 11 84 24 b4 02 00 	movups %xmm0,0x2b4(%rsp)
    4bb8:	00 
    4bb9:	0f 11 84 24 dc 02 00 	movups %xmm0,0x2dc(%rsp)
    4bc0:	00 
    4bc1:	0f 11 84 24 04 03 00 	movups %xmm0,0x304(%rsp)
    4bc8:	00 
    4bc9:	0f 11 84 24 2c 03 00 	movups %xmm0,0x32c(%rsp)
    4bd0:	00 
    4bd1:	0f 11 84 24 54 03 00 	movups %xmm0,0x354(%rsp)
    4bd8:	00 
    4bd9:	0f 11 84 24 7c 03 00 	movups %xmm0,0x37c(%rsp)
    4be0:	00 
    4be1:	0f 11 84 24 a4 03 00 	movups %xmm0,0x3a4(%rsp)
    4be8:	00 
    4be9:	48 c7 84 24 ac 02 00 	movq   $0x0,0x2ac(%rsp)
    4bf0:	00 00 00 00 00 
    4bf5:	48 c7 84 24 c4 02 00 	movq   $0x0,0x2c4(%rsp)
    4bfc:	00 00 00 00 00 
    4c01:	48 c7 84 24 ec 02 00 	movq   $0x0,0x2ec(%rsp)
    4c08:	00 00 00 00 00 
    4c0d:	48 c7 84 24 f4 02 00 	movq   $0x656b696c,0x2f4(%rsp)
    4c14:	00 6c 69 6b 65 
    4c19:	48 c7 84 24 fc 02 00 	movq   $0x0,0x2fc(%rsp)
    4c20:	00 00 00 00 00 
    4c25:	48 c7 84 24 14 03 00 	movq   $0x0,0x314(%rsp)
    4c2c:	00 00 00 00 00 
    4c31:	48 c7 84 24 1c 03 00 	movq   $0x6d6f7266,0x31c(%rsp)
    4c38:	00 66 72 6f 6d 
    4c3d:	48 c7 84 24 24 03 00 	movq   $0x0,0x324(%rsp)
    4c44:	00 00 00 00 00 
    4c49:	48 c7 84 24 3c 03 00 	movq   $0x0,0x33c(%rsp)
    4c50:	00 00 00 00 00 
    4c55:	48 c7 84 24 44 03 00 	movq   $0x646e61,0x344(%rsp)
    4c5c:	00 61 6e 64 00 
    4c61:	48 c7 84 24 4c 03 00 	movq   $0x0,0x34c(%rsp)
    4c68:	00 00 00 00 00 
    4c6d:	48 c7 84 24 64 03 00 	movq   $0x0,0x364(%rsp)
    4c74:	00 00 00 00 00 
    4c79:	48 c7 84 24 6c 03 00 	movq   $0x726f,0x36c(%rsp)
    4c80:	00 6f 72 00 00 
    4c85:	48 c7 84 24 74 03 00 	movq   $0x0,0x374(%rsp)
    4c8c:	00 00 00 00 00 
    4c91:	48 c7 84 24 8c 03 00 	movq   $0x0,0x38c(%rsp)
    4c98:	00 00 00 00 00 
    4c9d:	48 c7 84 24 94 03 00 	movq   $0x3b,0x394(%rsp)
    4ca4:	00 3b 00 00 00 
    4ca9:	48 c7 84 24 9c 03 00 	movq   $0x0,0x39c(%rsp)
    4cb0:	00 00 00 00 00 
    4cb5:	48 c7 84 24 b4 03 00 	movq   $0x0,0x3b4(%rsp)
    4cbc:	00 00 00 00 00 
    4cc1:	48 c7 84 24 bc 03 00 	movq   $0x464f45,0x3bc(%rsp)
    4cc8:	00 45 4f 46 00 
    4ccd:	48 c7 84 24 c4 03 00 	movq   $0x0,0x3c4(%rsp)
    4cd4:	00 00 00 00 00 
    4cd9:	f3 48 ab             	rep stos %rax,%es:(%rdi)
    4cdc:	48 b8 00 00 00 00 28 	movabs $0x2800000000,%rax
    4ce3:	00 00 00 
    4ce6:	48 c7 84 24 dc 03 00 	movq   $0x0,0x3dc(%rsp)
    4ced:	00 00 00 00 00 
    4cf2:	48 c7 84 24 dc 06 00 	movq   $0x3b,0x6dc(%rsp)
    4cf9:	00 3b 00 00 00 
    4cfe:	0f 11 84 24 cc 03 00 	movups %xmm0,0x3cc(%rsp)
    4d05:	00 
    4d06:	48 c7 84 24 e4 06 00 	movq   $0x0,0x6e4(%rsp)
    4d0d:	00 00 00 00 00 
    4d12:	48 c7 84 24 fc 06 00 	movq   $0x0,0x6fc(%rsp)
    4d19:	00 00 00 00 00 
    4d1e:	0f 11 84 24 ec 06 00 	movups %xmm0,0x6ec(%rsp)
    4d25:	00 
    4d26:	0f 11 84 24 14 07 00 	movups %xmm0,0x714(%rsp)
    4d2d:	00 
    4d2e:	0f 11 84 24 3c 07 00 	movups %xmm0,0x73c(%rsp)
    4d35:	00 
    4d36:	0f 11 84 24 64 07 00 	movups %xmm0,0x764(%rsp)
    4d3d:	00 
    4d3e:	c7 07 00 00 00 00    	movl   $0x0,(%rdi)
    4d44:	bf 40 01 00 00       	mov    $0x140,%edi
    4d49:	48 c7 84 24 04 07 00 	movq   $0x29,0x704(%rsp)
    4d50:	00 29 00 00 00 
    4d55:	48 c7 84 24 0c 07 00 	movq   $0x0,0x70c(%rsp)
    4d5c:	00 00 00 00 00 
    4d61:	48 c7 84 24 24 07 00 	movq   $0x0,0x724(%rsp)
    4d68:	00 00 00 00 00 
    4d6d:	48 c7 84 24 2c 07 00 	movq   $0x28,0x72c(%rsp)
    4d74:	00 28 00 00 00 
    4d79:	48 c7 84 24 34 07 00 	movq   $0x0,0x734(%rsp)
    4d80:	00 00 00 00 00 
    4d85:	48 c7 84 24 4c 07 00 	movq   $0x0,0x74c(%rsp)
    4d8c:	00 00 00 00 00 
    4d91:	48 c7 84 24 54 07 00 	movq   $0x464f45,0x754(%rsp)
    4d98:	00 45 4f 46 00 
    4d9d:	48 c7 84 24 5c 07 00 	movq   $0x0,0x75c(%rsp)
    4da4:	00 00 00 00 00 
    4da9:	48 c7 84 24 74 07 00 	movq   $0x0,0x774(%rsp)
    4db0:	00 00 00 00 00 
    4db5:	48 89 84 24 20 02 00 	mov    %rax,0x220(%rsp)
    4dbc:	00 
    4dbd:	c7 84 24 28 02 00 00 	movl   $0x0,0x228(%rsp)
    4dc4:	00 00 00 00 
    4dc8:	e8 93 be ff ff       	callq  c60 <_Znam@plt>
    4dcd:	48 8d a8 40 01 00 00 	lea    0x140(%rax),%rbp
    4dd4:	48 89 84 24 f8 01 00 	mov    %rax,0x1f8(%rsp)
    4ddb:	00 
    4ddc:	48 89 c3             	mov    %rax,%rbx
    4ddf:	90                   	nop
    4de0:	bf 1f 00 00 00       	mov    $0x1f,%edi
    4de5:	48 83 c3 08          	add    $0x8,%rbx
    4de9:	e8 72 be ff ff       	callq  c60 <_Znam@plt>
    4dee:	48 89 43 f8          	mov    %rax,-0x8(%rbx)
    4df2:	48 39 dd             	cmp    %rbx,%rbp
    4df5:	75 e9                	jne    4de0 <_ZN8DatabaseI6recordE9run_shellEv+0x3c0>
    4df7:	48 8d 84 24 c0 0b 00 	lea    0xbc0(%rsp),%rax
    4dfe:	00 
    4dff:	48 89 44 24 20       	mov    %rax,0x20(%rsp)
    4e04:	48 8d 84 24 c0 01 00 	lea    0x1c0(%rsp),%rax
    4e0b:	00 
    4e0c:	4c 8d 78 40          	lea    0x40(%rax),%r15
    4e10:	48 89 44 24 18       	mov    %rax,0x18(%rsp)
    4e15:	48 8d 1d 80 32 00 00 	lea    0x3280(%rip),%rbx        # 809c <_IO_stdin_used+0x59c>
    4e1c:	48 8b 15 fd 41 20 00 	mov    0x2041fd(%rip),%rdx        # 209020 <stdin@@GLIBC_2.2.5>
    4e23:	48 8b 7c 24 20       	mov    0x20(%rsp),%rdi
    4e28:	be b0 04 00 00       	mov    $0x4b0,%esi
    4e2d:	e8 7e bf ff ff       	callq  db0 <fgets@plt>
    4e32:	48 85 c0             	test   %rax,%rax
    4e35:	0f 84 04 0d 00 00    	je     5b3f <_ZN8DatabaseI6recordE9run_shellEv+0x111f>
    4e3b:	0f b6 94 24 c0 0b 00 	movzbl 0xbc0(%rsp),%edx
    4e42:	00 
    4e43:	66 0f ef c0          	pxor   %xmm0,%xmm0
    4e47:	48 c7 84 24 d0 01 00 	movq   $0x0,0x1d0(%rsp)
    4e4e:	00 00 00 00 00 
    4e53:	c7 84 24 d8 01 00 00 	movl   $0x0,0x1d8(%rsp)
    4e5a:	00 00 00 00 
    4e5e:	c7 84 24 ec 01 00 00 	movl   $0x0,0x1ec(%rsp)
    4e65:	00 00 00 00 
    4e69:	c6 84 24 f0 01 00 00 	movb   $0x0,0x1f0(%rsp)
    4e70:	00 
    4e71:	0f 11 84 24 dc 01 00 	movups %xmm0,0x1dc(%rsp)
    4e78:	00 
    4e79:	84 d2                	test   %dl,%dl
    4e7b:	c7 84 24 20 02 00 00 	movl   $0x0,0x220(%rsp)
    4e82:	00 00 00 00 
    4e86:	c7 84 24 28 02 00 00 	movl   $0x0,0x228(%rsp)
    4e8d:	00 00 00 00 
    4e91:	0f 84 f4 19 00 00    	je     688b <_ZN8DatabaseI6recordE9run_shellEv+0x1e6b>
    4e97:	31 c0                	xor    %eax,%eax
    4e99:	31 ed                	xor    %ebp,%ebp
    4e9b:	4c 8b 64 24 18       	mov    0x18(%rsp),%r12
    4ea0:	44 0f b6 ac 04 c1 0b 	movzbl 0xbc1(%rsp,%rax,1),%r13d
    4ea7:	00 00 
    4ea9:	8d 42 f6             	lea    -0xa(%rdx),%eax
    4eac:	3c 34                	cmp    $0x34,%al
    4eae:	0f 87 f4 05 00 00    	ja     54a8 <_ZN8DatabaseI6recordE9run_shellEv+0xa88>
    4eb4:	0f b6 c0             	movzbl %al,%eax
    4eb7:	48 63 04 83          	movslq (%rbx,%rax,4),%rax
    4ebb:	48 01 d8             	add    %rbx,%rax
    4ebe:	ff e0                	jmpq   *%rax
    4ec0:	44 8b b4 24 20 02 00 	mov    0x220(%rsp),%r14d
    4ec7:	00 
    4ec8:	41 83 fe 27          	cmp    $0x27,%r14d
    4ecc:	0f 8f b0 05 00 00    	jg     5482 <_ZN8DatabaseI6recordE9run_shellEv+0xa62>
    4ed2:	80 bc 24 00 02 00 00 	cmpb   $0x0,0x200(%rsp)
    4ed9:	00 
    4eda:	0f 85 d0 06 00 00    	jne    55b0 <_ZN8DatabaseI6recordE9run_shellEv+0xb90>
    4ee0:	8b 84 24 28 02 00 00 	mov    0x228(%rsp),%eax
    4ee7:	83 f8 1d             	cmp    $0x1d,%eax
    4eea:	0f 8f 95 22 00 00    	jg     7185 <_ZN8DatabaseI6recordE9run_shellEv+0x2765>
    4ef0:	8d 50 01             	lea    0x1(%rax),%edx
    4ef3:	48 63 c8             	movslq %eax,%rcx
    4ef6:	41 80 fd 3d          	cmp    $0x3d,%r13b
    4efa:	c6 84 0c 00 02 00 00 	movb   $0x3e,0x200(%rsp,%rcx,1)
    4f01:	3e 
    4f02:	89 94 24 28 02 00 00 	mov    %edx,0x228(%rsp)
    4f09:	75 21                	jne    4f2c <_ZN8DatabaseI6recordE9run_shellEv+0x50c>
    4f0b:	83 fa 1e             	cmp    $0x1e,%edx
    4f0e:	0f 84 71 22 00 00    	je     7185 <_ZN8DatabaseI6recordE9run_shellEv+0x2765>
    4f14:	48 63 d2             	movslq %edx,%rdx
    4f17:	83 c0 02             	add    $0x2,%eax
    4f1a:	83 c5 01             	add    $0x1,%ebp
    4f1d:	c6 84 14 00 02 00 00 	movb   $0x3d,0x200(%rsp,%rdx,1)
    4f24:	3d 
    4f25:	89 84 24 28 02 00 00 	mov    %eax,0x228(%rsp)
    4f2c:	80 bc 24 00 02 00 00 	cmpb   $0x0,0x200(%rsp)
    4f33:	00 
    4f34:	0f 85 a4 05 00 00    	jne    54de <_ZN8DatabaseI6recordE9run_shellEv+0xabe>
    4f3a:	66 0f 1f 44 00 00    	nopw   0x0(%rax,%rax,1)
    4f40:	83 c5 01             	add    $0x1,%ebp
    4f43:	48 63 c5             	movslq %ebp,%rax
    4f46:	0f b6 94 04 c0 0b 00 	movzbl 0xbc0(%rsp,%rax,1),%edx
    4f4d:	00 
    4f4e:	84 d2                	test   %dl,%dl
    4f50:	0f 85 4a ff ff ff    	jne    4ea0 <_ZN8DatabaseI6recordE9run_shellEv+0x480>
    4f56:	8b ac 24 20 02 00 00 	mov    0x220(%rsp),%ebp
    4f5d:	83 fd 27             	cmp    $0x27,%ebp
    4f60:	0f 8f 1c 05 00 00    	jg     5482 <_ZN8DatabaseI6recordE9run_shellEv+0xa62>
    4f66:	80 bc 24 00 02 00 00 	cmpb   $0x0,0x200(%rsp)
    4f6d:	00 
    4f6e:	0f 85 e5 0a 00 00    	jne    5a59 <_ZN8DatabaseI6recordE9run_shellEv+0x1039>
    4f74:	8b 84 24 28 02 00 00 	mov    0x228(%rsp),%eax
    4f7b:	83 f8 1d             	cmp    $0x1d,%eax
    4f7e:	0f 8f 01 22 00 00    	jg     7185 <_ZN8DatabaseI6recordE9run_shellEv+0x2765>
    4f84:	8d 50 01             	lea    0x1(%rax),%edx
    4f87:	48 63 c8             	movslq %eax,%rcx
    4f8a:	c6 84 0c 00 02 00 00 	movb   $0x45,0x200(%rsp,%rcx,1)
    4f91:	45 
    4f92:	83 fa 1e             	cmp    $0x1e,%edx
    4f95:	89 94 24 28 02 00 00 	mov    %edx,0x228(%rsp)
    4f9c:	0f 84 e3 21 00 00    	je     7185 <_ZN8DatabaseI6recordE9run_shellEv+0x2765>
    4fa2:	48 63 d2             	movslq %edx,%rdx
    4fa5:	c6 84 14 00 02 00 00 	movb   $0x4f,0x200(%rsp,%rdx,1)
    4fac:	4f 
    4fad:	8d 50 02             	lea    0x2(%rax),%edx
    4fb0:	83 fa 1e             	cmp    $0x1e,%edx
    4fb3:	89 94 24 28 02 00 00 	mov    %edx,0x228(%rsp)
    4fba:	0f 84 c5 21 00 00    	je     7185 <_ZN8DatabaseI6recordE9run_shellEv+0x2765>
    4fc0:	48 63 d2             	movslq %edx,%rdx
    4fc3:	83 c0 03             	add    $0x3,%eax
    4fc6:	c6 84 14 00 02 00 00 	movb   $0x46,0x200(%rsp,%rdx,1)
    4fcd:	46 
    4fce:	89 84 24 28 02 00 00 	mov    %eax,0x228(%rsp)
    4fd5:	80 bc 24 00 02 00 00 	cmpb   $0x0,0x200(%rsp)
    4fdc:	00 
    4fdd:	48 8b 84 24 f8 01 00 	mov    0x1f8(%rsp),%rax
    4fe4:	00 
    4fe5:	48 89 04 24          	mov    %rax,(%rsp)
    4fe9:	74 50                	je     503b <_ZN8DatabaseI6recordE9run_shellEv+0x61b>
    4feb:	48 89 c1             	mov    %rax,%rcx
    4fee:	48 63 c5             	movslq %ebp,%rax
    4ff1:	4c 89 fe             	mov    %r15,%rsi
    4ff4:	48 8b 3c c1          	mov    (%rcx,%rax,8),%rdi
    4ff8:	83 c5 01             	add    $0x1,%ebp
    4ffb:	e8 00 bd ff ff       	callq  d00 <strcpy@plt>
    5000:	66 0f ef c0          	pxor   %xmm0,%xmm0
    5004:	48 8b 04 24          	mov    (%rsp),%rax
    5008:	45 31 c9             	xor    %r9d,%r9d
    500b:	89 ac 24 20 02 00 00 	mov    %ebp,0x220(%rsp)
    5012:	49 c7 47 10 00 00 00 	movq   $0x0,0x10(%r15)
    5019:	00 
    501a:	41 c7 47 18 00 00 00 	movl   $0x0,0x18(%r15)
    5021:	00 
    5022:	66 45 89 4f 1c       	mov    %r9w,0x1c(%r15)
    5027:	41 0f 29 07          	movaps %xmm0,(%r15)
    502b:	41 c6 47 1e 00       	movb   $0x0,0x1e(%r15)
    5030:	c7 84 24 28 02 00 00 	movl   $0x0,0x228(%rsp)
    5037:	00 00 00 00 
    503b:	4c 8d 2d f4 2f 00 00 	lea    0x2ff4(%rip),%r13        # 8036 <_IO_stdin_used+0x536>
    5042:	b9 04 00 00 00       	mov    $0x4,%ecx
    5047:	48 8b 10             	mov    (%rax),%rdx
    504a:	4c 89 ef             	mov    %r13,%rdi
    504d:	48 89 d6             	mov    %rdx,%rsi
    5050:	f3 a6                	repz cmpsb %es:(%rdi),%ds:(%rsi)
    5052:	0f 97 c0             	seta   %al
    5055:	1c 00                	sbb    $0x0,%al
    5057:	84 c0                	test   %al,%al
    5059:	0f 84 e1 09 00 00    	je     5a40 <_ZN8DatabaseI6recordE9run_shellEv+0x1020>
    505f:	48 8d 3d d4 2f 00 00 	lea    0x2fd4(%rip),%rdi        # 803a <_IO_stdin_used+0x53a>
    5066:	b9 07 00 00 00       	mov    $0x7,%ecx
    506b:	48 89 d6             	mov    %rdx,%rsi
    506e:	f3 a6                	repz cmpsb %es:(%rdi),%ds:(%rsi)
    5070:	0f 97 c0             	seta   %al
    5073:	1c 00                	sbb    $0x0,%al
    5075:	84 c0                	test   %al,%al
    5077:	0f 85 53 0a 00 00    	jne    5ad0 <_ZN8DatabaseI6recordE9run_shellEv+0x10b0>
    507d:	48 8b 44 24 18       	mov    0x18(%rsp),%rax
    5082:	c7 84 24 dc 01 00 00 	movl   $0x3,0x1dc(%rsp)
    5089:	03 00 00 00 
    508d:	45 31 e4             	xor    %r12d,%r12d
    5090:	4c 89 7c 24 10       	mov    %r15,0x10(%rsp)
    5095:	48 83 c0 6c          	add    $0x6c,%rax
    5099:	48 89 44 24 08       	mov    %rax,0x8(%rsp)
    509e:	66 90                	xchg   %ax,%ax
    50a0:	48 8b 04 24          	mov    (%rsp),%rax
    50a4:	b9 04 00 00 00       	mov    $0x4,%ecx
    50a9:	4c 89 ef             	mov    %r13,%rdi
    50ac:	45 89 e6             	mov    %r12d,%r14d
    50af:	4a 8b 6c e0 08       	mov    0x8(%rax,%r12,8),%rbp
    50b4:	48 89 ee             	mov    %rbp,%rsi
    50b7:	f3 a6                	repz cmpsb %es:(%rdi),%ds:(%rsi)
    50b9:	0f 97 c0             	seta   %al
    50bc:	1c 00                	sbb    $0x0,%al
    50be:	84 c0                	test   %al,%al
    50c0:	0f 84 70 09 00 00    	je     5a36 <_ZN8DatabaseI6recordE9run_shellEv+0x1016>
    50c6:	4c 8b 7c 24 08       	mov    0x8(%rsp),%r15
    50cb:	eb 1a                	jmp    50e7 <_ZN8DatabaseI6recordE9run_shellEv+0x6c7>
    50cd:	0f 1f 00             	nopl   (%rax)
    50d0:	4c 89 ff             	mov    %r15,%rdi
    50d3:	48 89 ee             	mov    %rbp,%rsi
    50d6:	49 83 c7 28          	add    $0x28,%r15
    50da:	e8 a1 bc ff ff       	callq  d80 <strcmp@plt>
    50df:	85 c0                	test   %eax,%eax
    50e1:	0f 84 29 08 00 00    	je     5910 <_ZN8DatabaseI6recordE9run_shellEv+0xef0>
    50e7:	b9 04 00 00 00       	mov    $0x4,%ecx
    50ec:	4c 89 fe             	mov    %r15,%rsi
    50ef:	4c 89 ef             	mov    %r13,%rdi
    50f2:	f3 a6                	repz cmpsb %es:(%rdi),%ds:(%rsi)
    50f4:	0f 97 c0             	seta   %al
    50f7:	1c 00                	sbb    $0x0,%al
    50f9:	84 c0                	test   %al,%al
    50fb:	75 d3                	jne    50d0 <_ZN8DatabaseI6recordE9run_shellEv+0x6b0>
    50fd:	48 8d 3d 93 2f 00 00 	lea    0x2f93(%rip),%rdi        # 8097 <_IO_stdin_used+0x597>
    5104:	b9 05 00 00 00       	mov    $0x5,%ecx
    5109:	48 89 ee             	mov    %rbp,%rsi
    510c:	f3 a6                	repz cmpsb %es:(%rdi),%ds:(%rsi)
    510e:	0f 97 c0             	seta   %al
    5111:	1c 00                	sbb    $0x0,%al
    5113:	84 c0                	test   %al,%al
    5115:	74 79                	je     5190 <_ZN8DatabaseI6recordE9run_shellEv+0x770>
    5117:	48 8d 3d 23 2f 00 00 	lea    0x2f23(%rip),%rdi        # 8041 <_IO_stdin_used+0x541>
    511e:	b9 06 00 00 00       	mov    $0x6,%ecx
    5123:	48 89 ee             	mov    %rbp,%rsi
    5126:	f3 a6                	repz cmpsb %es:(%rdi),%ds:(%rsi)
    5128:	0f 97 c0             	seta   %al
    512b:	1c 00                	sbb    $0x0,%al
    512d:	84 c0                	test   %al,%al
    512f:	74 5f                	je     5190 <_ZN8DatabaseI6recordE9run_shellEv+0x770>
    5131:	48 8d 3d 0f 2f 00 00 	lea    0x2f0f(%rip),%rdi        # 8047 <_IO_stdin_used+0x547>
    5138:	b9 06 00 00 00       	mov    $0x6,%ecx
    513d:	48 89 ee             	mov    %rbp,%rsi
    5140:	f3 a6                	repz cmpsb %es:(%rdi),%ds:(%rsi)
    5142:	0f 97 c0             	seta   %al
    5145:	1c 00                	sbb    $0x0,%al
    5147:	84 c0                	test   %al,%al
    5149:	74 45                	je     5190 <_ZN8DatabaseI6recordE9run_shellEv+0x770>
    514b:	48 8d 3d fb 2e 00 00 	lea    0x2efb(%rip),%rdi        # 804d <_IO_stdin_used+0x54d>
    5152:	b9 02 00 00 00       	mov    $0x2,%ecx
    5157:	48 89 ee             	mov    %rbp,%rsi
    515a:	f3 a6                	repz cmpsb %es:(%rdi),%ds:(%rsi)
    515c:	0f 97 c0             	seta   %al
    515f:	1c 00                	sbb    $0x0,%al
    5161:	84 c0                	test   %al,%al
    5163:	74 2b                	je     5190 <_ZN8DatabaseI6recordE9run_shellEv+0x770>
    5165:	45 85 f6             	test   %r14d,%r14d
    5168:	0f 84 c8 08 00 00    	je     5a36 <_ZN8DatabaseI6recordE9run_shellEv+0x1016>
    516e:	48 8d 3d da 2e 00 00 	lea    0x2eda(%rip),%rdi        # 804f <_IO_stdin_used+0x54f>
    5175:	b9 02 00 00 00       	mov    $0x2,%ecx
    517a:	48 89 ee             	mov    %rbp,%rsi
    517d:	f3 a6                	repz cmpsb %es:(%rdi),%ds:(%rsi)
    517f:	0f 97 c0             	seta   %al
    5182:	1c 00                	sbb    $0x0,%al
    5184:	84 c0                	test   %al,%al
    5186:	0f 85 aa 08 00 00    	jne    5a36 <_ZN8DatabaseI6recordE9run_shellEv+0x1016>
    518c:	0f 1f 40 00          	nopl   0x0(%rax)
    5190:	49 83 c4 01          	add    $0x1,%r12
    5194:	e9 07 ff ff ff       	jmpq   50a0 <_ZN8DatabaseI6recordE9run_shellEv+0x680>
    5199:	0f 1f 80 00 00 00 00 	nopl   0x0(%rax)
    51a0:	44 8b ac 24 20 02 00 	mov    0x220(%rsp),%r13d
    51a7:	00 
    51a8:	41 83 fd 27          	cmp    $0x27,%r13d
    51ac:	0f 8f d0 02 00 00    	jg     5482 <_ZN8DatabaseI6recordE9run_shellEv+0xa62>
    51b2:	80 bc 24 00 02 00 00 	cmpb   $0x0,0x200(%rsp)
    51b9:	00 
    51ba:	0f 85 80 03 00 00    	jne    5540 <_ZN8DatabaseI6recordE9run_shellEv+0xb20>
    51c0:	8b 84 24 28 02 00 00 	mov    0x228(%rsp),%eax
    51c7:	83 f8 1d             	cmp    $0x1d,%eax
    51ca:	0f 8f b5 1f 00 00    	jg     7185 <_ZN8DatabaseI6recordE9run_shellEv+0x2765>
    51d0:	48 63 d0             	movslq %eax,%rdx
    51d3:	83 c0 01             	add    $0x1,%eax
    51d6:	c6 84 14 00 02 00 00 	movb   $0x3d,0x200(%rsp,%rdx,1)
    51dd:	3d 
    51de:	89 84 24 28 02 00 00 	mov    %eax,0x228(%rsp)
    51e5:	0f 1f 00             	nopl   (%rax)
    51e8:	80 bc 24 00 02 00 00 	cmpb   $0x0,0x200(%rsp)
    51ef:	00 
    51f0:	0f 84 4a fd ff ff    	je     4f40 <_ZN8DatabaseI6recordE9run_shellEv+0x520>
    51f6:	48 8b 84 24 f8 01 00 	mov    0x1f8(%rsp),%rax
    51fd:	00 
    51fe:	49 63 d5             	movslq %r13d,%rdx
    5201:	4c 89 fe             	mov    %r15,%rsi
    5204:	41 83 c5 01          	add    $0x1,%r13d
    5208:	48 8b 3c d0          	mov    (%rax,%rdx,8),%rdi
    520c:	e8 ef ba ff ff       	callq  d00 <strcpy@plt>
    5211:	44 89 ac 24 20 02 00 	mov    %r13d,0x220(%rsp)
    5218:	00 
    5219:	66 0f ef c0          	pxor   %xmm0,%xmm0
    521d:	45 31 db             	xor    %r11d,%r11d
    5220:	49 c7 47 10 00 00 00 	movq   $0x0,0x10(%r15)
    5227:	00 
    5228:	41 c7 47 18 00 00 00 	movl   $0x0,0x18(%r15)
    522f:	00 
    5230:	66 45 89 5f 1c       	mov    %r11w,0x1c(%r15)
    5235:	41 c6 47 1e 00       	movb   $0x0,0x1e(%r15)
    523a:	c7 84 24 28 02 00 00 	movl   $0x0,0x228(%rsp)
    5241:	00 00 00 00 
    5245:	41 0f 29 07          	movaps %xmm0,(%r15)
    5249:	e9 f2 fc ff ff       	jmpq   4f40 <_ZN8DatabaseI6recordE9run_shellEv+0x520>
    524e:	66 90                	xchg   %ax,%ax
    5250:	44 8b b4 24 20 02 00 	mov    0x220(%rsp),%r14d
    5257:	00 
    5258:	41 83 fe 27          	cmp    $0x27,%r14d
    525c:	0f 8f 20 02 00 00    	jg     5482 <_ZN8DatabaseI6recordE9run_shellEv+0xa62>
    5262:	80 bc 24 00 02 00 00 	cmpb   $0x0,0x200(%rsp)
    5269:	00 
    526a:	0f 85 00 06 00 00    	jne    5870 <_ZN8DatabaseI6recordE9run_shellEv+0xe50>
    5270:	8b 84 24 28 02 00 00 	mov    0x228(%rsp),%eax
    5277:	83 f8 1d             	cmp    $0x1d,%eax
    527a:	0f 8f 05 1f 00 00    	jg     7185 <_ZN8DatabaseI6recordE9run_shellEv+0x2765>
    5280:	8d 50 01             	lea    0x1(%rax),%edx
    5283:	48 63 c8             	movslq %eax,%rcx
    5286:	41 80 fd 3d          	cmp    $0x3d,%r13b
    528a:	c6 84 0c 00 02 00 00 	movb   $0x3c,0x200(%rsp,%rcx,1)
    5291:	3c 
    5292:	89 94 24 28 02 00 00 	mov    %edx,0x228(%rsp)
    5299:	0f 84 71 07 00 00    	je     5a10 <_ZN8DatabaseI6recordE9run_shellEv+0xff0>
    529f:	41 80 fd 3e          	cmp    $0x3e,%r13b
    52a3:	0f 84 d3 1e 00 00    	je     717c <_ZN8DatabaseI6recordE9run_shellEv+0x275c>
    52a9:	80 bc 24 00 02 00 00 	cmpb   $0x0,0x200(%rsp)
    52b0:	00 
    52b1:	0f 84 89 fc ff ff    	je     4f40 <_ZN8DatabaseI6recordE9run_shellEv+0x520>
    52b7:	48 8b 84 24 f8 01 00 	mov    0x1f8(%rsp),%rax
    52be:	00 
    52bf:	49 63 d6             	movslq %r14d,%rdx
    52c2:	4c 89 fe             	mov    %r15,%rsi
    52c5:	41 83 c6 01          	add    $0x1,%r14d
    52c9:	48 8b 3c d0          	mov    (%rax,%rdx,8),%rdi
    52cd:	e8 2e ba ff ff       	callq  d00 <strcpy@plt>
    52d2:	44 89 b4 24 20 02 00 	mov    %r14d,0x220(%rsp)
    52d9:	00 
    52da:	e9 3a ff ff ff       	jmpq   5219 <_ZN8DatabaseI6recordE9run_shellEv+0x7f9>
    52df:	90                   	nop
    52e0:	44 8b ac 24 20 02 00 	mov    0x220(%rsp),%r13d
    52e7:	00 
    52e8:	41 83 fd 27          	cmp    $0x27,%r13d
    52ec:	0f 8f 90 01 00 00    	jg     5482 <_ZN8DatabaseI6recordE9run_shellEv+0xa62>
    52f2:	80 bc 24 00 02 00 00 	cmpb   $0x0,0x200(%rsp)
    52f9:	00 
    52fa:	0f 85 b0 03 00 00    	jne    56b0 <_ZN8DatabaseI6recordE9run_shellEv+0xc90>
    5300:	8b 84 24 28 02 00 00 	mov    0x228(%rsp),%eax
    5307:	83 f8 1d             	cmp    $0x1d,%eax
    530a:	0f 8f 75 1e 00 00    	jg     7185 <_ZN8DatabaseI6recordE9run_shellEv+0x2765>
    5310:	48 63 d0             	movslq %eax,%rdx
    5313:	83 c0 01             	add    $0x1,%eax
    5316:	c6 84 14 00 02 00 00 	movb   $0x3b,0x200(%rsp,%rdx,1)
    531d:	3b 
    531e:	89 84 24 28 02 00 00 	mov    %eax,0x228(%rsp)
    5325:	e9 be fe ff ff       	jmpq   51e8 <_ZN8DatabaseI6recordE9run_shellEv+0x7c8>
    532a:	66 0f 1f 44 00 00    	nopw   0x0(%rax,%rax,1)
    5330:	44 8b ac 24 20 02 00 	mov    0x220(%rsp),%r13d
    5337:	00 
    5338:	41 83 fd 27          	cmp    $0x27,%r13d
    533c:	0f 8f 40 01 00 00    	jg     5482 <_ZN8DatabaseI6recordE9run_shellEv+0xa62>
    5342:	80 bc 24 00 02 00 00 	cmpb   $0x0,0x200(%rsp)
    5349:	00 
    534a:	0f 85 d0 03 00 00    	jne    5720 <_ZN8DatabaseI6recordE9run_shellEv+0xd00>
    5350:	8b 84 24 28 02 00 00 	mov    0x228(%rsp),%eax
    5357:	83 f8 1d             	cmp    $0x1d,%eax
    535a:	0f 8f 25 1e 00 00    	jg     7185 <_ZN8DatabaseI6recordE9run_shellEv+0x2765>
    5360:	48 63 d0             	movslq %eax,%rdx
    5363:	83 c0 01             	add    $0x1,%eax
    5366:	c6 84 14 00 02 00 00 	movb   $0x2a,0x200(%rsp,%rdx,1)
    536d:	2a 
    536e:	89 84 24 28 02 00 00 	mov    %eax,0x228(%rsp)
    5375:	e9 6e fe ff ff       	jmpq   51e8 <_ZN8DatabaseI6recordE9run_shellEv+0x7c8>
    537a:	66 0f 1f 44 00 00    	nopw   0x0(%rax,%rax,1)
    5380:	44 8b ac 24 20 02 00 	mov    0x220(%rsp),%r13d
    5387:	00 
    5388:	41 83 fd 27          	cmp    $0x27,%r13d
    538c:	0f 8f f0 00 00 00    	jg     5482 <_ZN8DatabaseI6recordE9run_shellEv+0xa62>
    5392:	80 bc 24 00 02 00 00 	cmpb   $0x0,0x200(%rsp)
    5399:	00 
    539a:	0f 85 f0 03 00 00    	jne    5790 <_ZN8DatabaseI6recordE9run_shellEv+0xd70>
    53a0:	8b 84 24 28 02 00 00 	mov    0x228(%rsp),%eax
    53a7:	83 f8 1d             	cmp    $0x1d,%eax
    53aa:	0f 8f d5 1d 00 00    	jg     7185 <_ZN8DatabaseI6recordE9run_shellEv+0x2765>
    53b0:	48 63 d0             	movslq %eax,%rdx
    53b3:	83 c0 01             	add    $0x1,%eax
    53b6:	c6 84 14 00 02 00 00 	movb   $0x29,0x200(%rsp,%rdx,1)
    53bd:	29 
    53be:	89 84 24 28 02 00 00 	mov    %eax,0x228(%rsp)
    53c5:	e9 1e fe ff ff       	jmpq   51e8 <_ZN8DatabaseI6recordE9run_shellEv+0x7c8>
    53ca:	66 0f 1f 44 00 00    	nopw   0x0(%rax,%rax,1)
    53d0:	44 8b ac 24 20 02 00 	mov    0x220(%rsp),%r13d
    53d7:	00 
    53d8:	41 83 fd 27          	cmp    $0x27,%r13d
    53dc:	0f 8f a0 00 00 00    	jg     5482 <_ZN8DatabaseI6recordE9run_shellEv+0xa62>
    53e2:	80 bc 24 00 02 00 00 	cmpb   $0x0,0x200(%rsp)
    53e9:	00 
    53ea:	0f 85 50 02 00 00    	jne    5640 <_ZN8DatabaseI6recordE9run_shellEv+0xc20>
    53f0:	8b 84 24 28 02 00 00 	mov    0x228(%rsp),%eax
    53f7:	83 f8 1d             	cmp    $0x1d,%eax
    53fa:	0f 8f 85 1d 00 00    	jg     7185 <_ZN8DatabaseI6recordE9run_shellEv+0x2765>
    5400:	48 63 d0             	movslq %eax,%rdx
    5403:	83 c0 01             	add    $0x1,%eax
    5406:	c6 84 14 00 02 00 00 	movb   $0x28,0x200(%rsp,%rdx,1)
    540d:	28 
    540e:	89 84 24 28 02 00 00 	mov    %eax,0x228(%rsp)
    5415:	e9 ce fd ff ff       	jmpq   51e8 <_ZN8DatabaseI6recordE9run_shellEv+0x7c8>
    541a:	66 0f 1f 44 00 00    	nopw   0x0(%rax,%rax,1)
    5420:	44 8b ac 24 20 02 00 	mov    0x220(%rsp),%r13d
    5427:	00 
    5428:	41 83 fd 27          	cmp    $0x27,%r13d
    542c:	7f 54                	jg     5482 <_ZN8DatabaseI6recordE9run_shellEv+0xa62>
    542e:	80 bc 24 00 02 00 00 	cmpb   $0x0,0x200(%rsp)
    5435:	00 
    5436:	0f 85 c4 03 00 00    	jne    5800 <_ZN8DatabaseI6recordE9run_shellEv+0xde0>
    543c:	8b 84 24 28 02 00 00 	mov    0x228(%rsp),%eax
    5443:	83 f8 1d             	cmp    $0x1d,%eax
    5446:	0f 8f 39 1d 00 00    	jg     7185 <_ZN8DatabaseI6recordE9run_shellEv+0x2765>
    544c:	48 63 d0             	movslq %eax,%rdx
    544f:	83 c0 01             	add    $0x1,%eax
    5452:	c6 84 14 00 02 00 00 	movb   $0x2c,0x200(%rsp,%rdx,1)
    5459:	2c 
    545a:	89 84 24 28 02 00 00 	mov    %eax,0x228(%rsp)
    5461:	e9 82 fd ff ff       	jmpq   51e8 <_ZN8DatabaseI6recordE9run_shellEv+0x7c8>
    5466:	66 2e 0f 1f 84 00 00 	nopw   %cs:0x0(%rax,%rax,1)
    546d:	00 00 00 
    5470:	44 8b ac 24 20 02 00 	mov    0x220(%rsp),%r13d
    5477:	00 
    5478:	41 83 fd 27          	cmp    $0x27,%r13d
    547c:	0f 8e 66 fd ff ff    	jle    51e8 <_ZN8DatabaseI6recordE9run_shellEv+0x7c8>
    5482:	48 8d 0d 27 2e 00 00 	lea    0x2e27(%rip),%rcx        # 82b0 <_ZZN10sql_parser9add_tokenEvE19__PRETTY_FUNCTION__>
    5489:	48 8d 35 74 2b 00 00 	lea    0x2b74(%rip),%rsi        # 8004 <_IO_stdin_used+0x504>
    5490:	48 8d 3d 76 2b 00 00 	lea    0x2b76(%rip),%rdi        # 800d <_IO_stdin_used+0x50d>
    5497:	ba 49 00 00 00       	mov    $0x49,%edx
    549c:	e8 0f b8 ff ff       	callq  cb0 <__assert_fail@plt>
    54a1:	0f 1f 80 00 00 00 00 	nopl   0x0(%rax)
    54a8:	8b 84 24 28 02 00 00 	mov    0x228(%rsp),%eax
    54af:	83 f8 1d             	cmp    $0x1d,%eax
    54b2:	0f 8f cd 1c 00 00    	jg     7185 <_ZN8DatabaseI6recordE9run_shellEv+0x2765>
    54b8:	48 63 c8             	movslq %eax,%rcx
    54bb:	83 c0 01             	add    $0x1,%eax
    54be:	88 94 0c 00 02 00 00 	mov    %dl,0x200(%rsp,%rcx,1)
    54c5:	89 84 24 28 02 00 00 	mov    %eax,0x228(%rsp)
    54cc:	e9 6f fa ff ff       	jmpq   4f40 <_ZN8DatabaseI6recordE9run_shellEv+0x520>
    54d1:	0f 1f 80 00 00 00 00 	nopl   0x0(%rax)
    54d8:	41 83 fe 28          	cmp    $0x28,%r14d
    54dc:	74 a4                	je     5482 <_ZN8DatabaseI6recordE9run_shellEv+0xa62>
    54de:	48 8b 84 24 f8 01 00 	mov    0x1f8(%rsp),%rax
    54e5:	00 
    54e6:	49 63 d6             	movslq %r14d,%rdx
    54e9:	4d 8d 6c 24 40       	lea    0x40(%r12),%r13
    54ee:	41 83 c6 01          	add    $0x1,%r14d
    54f2:	4c 89 ee             	mov    %r13,%rsi
    54f5:	48 8b 3c d0          	mov    (%rax,%rdx,8),%rdi
    54f9:	e8 02 b8 ff ff       	callq  d00 <strcpy@plt>
    54fe:	66 0f ef c0          	pxor   %xmm0,%xmm0
    5502:	31 c0                	xor    %eax,%eax
    5504:	44 89 b4 24 20 02 00 	mov    %r14d,0x220(%rsp)
    550b:	00 
    550c:	49 c7 44 24 50 00 00 	movq   $0x0,0x50(%r12)
    5513:	00 00 
    5515:	41 c7 44 24 58 00 00 	movl   $0x0,0x58(%r12)
    551c:	00 00 
    551e:	66 41 89 44 24 5c    	mov    %ax,0x5c(%r12)
    5524:	41 c6 44 24 5e 00    	movb   $0x0,0x5e(%r12)
    552a:	c7 84 24 28 02 00 00 	movl   $0x0,0x228(%rsp)
    5531:	00 00 00 00 
    5535:	41 0f 29 44 24 40    	movaps %xmm0,0x40(%r12)
    553b:	e9 00 fa ff ff       	jmpq   4f40 <_ZN8DatabaseI6recordE9run_shellEv+0x520>
    5540:	48 8b 84 24 f8 01 00 	mov    0x1f8(%rsp),%rax
    5547:	00 
    5548:	49 63 d5             	movslq %r13d,%rdx
    554b:	4c 89 fe             	mov    %r15,%rsi
    554e:	41 83 c5 01          	add    $0x1,%r13d
    5552:	48 8b 3c d0          	mov    (%rax,%rdx,8),%rdi
    5556:	e8 a5 b7 ff ff       	callq  d00 <strcpy@plt>
    555b:	66 0f ef c0          	pxor   %xmm0,%xmm0
    555f:	31 c0                	xor    %eax,%eax
    5561:	41 83 fd 28          	cmp    $0x28,%r13d
    5565:	44 89 ac 24 20 02 00 	mov    %r13d,0x220(%rsp)
    556c:	00 
    556d:	49 c7 47 10 00 00 00 	movq   $0x0,0x10(%r15)
    5574:	00 
    5575:	41 c7 47 18 00 00 00 	movl   $0x0,0x18(%r15)
    557c:	00 
    557d:	66 41 89 47 1c       	mov    %ax,0x1c(%r15)
    5582:	41 c6 47 1e 00       	movb   $0x0,0x1e(%r15)
    5587:	c7 84 24 28 02 00 00 	movl   $0x1,0x228(%rsp)
    558e:	01 00 00 00 
    5592:	41 0f 29 07          	movaps %xmm0,(%r15)
    5596:	c6 84 24 00 02 00 00 	movb   $0x3d,0x200(%rsp)
    559d:	3d 
    559e:	0f 85 44 fc ff ff    	jne    51e8 <_ZN8DatabaseI6recordE9run_shellEv+0x7c8>
    55a4:	e9 d9 fe ff ff       	jmpq   5482 <_ZN8DatabaseI6recordE9run_shellEv+0xa62>
    55a9:	0f 1f 80 00 00 00 00 	nopl   0x0(%rax)
    55b0:	48 8b 84 24 f8 01 00 	mov    0x1f8(%rsp),%rax
    55b7:	00 
    55b8:	49 63 d6             	movslq %r14d,%rdx
    55bb:	4c 89 fe             	mov    %r15,%rsi
    55be:	41 83 c6 01          	add    $0x1,%r14d
    55c2:	48 8b 3c d0          	mov    (%rax,%rdx,8),%rdi
    55c6:	e8 35 b7 ff ff       	callq  d00 <strcpy@plt>
    55cb:	66 0f ef c0          	pxor   %xmm0,%xmm0
    55cf:	31 c0                	xor    %eax,%eax
    55d1:	41 80 fd 3d          	cmp    $0x3d,%r13b
    55d5:	44 89 b4 24 20 02 00 	mov    %r14d,0x220(%rsp)
    55dc:	00 
    55dd:	49 c7 47 10 00 00 00 	movq   $0x0,0x10(%r15)
    55e4:	00 
    55e5:	41 c7 47 18 00 00 00 	movl   $0x0,0x18(%r15)
    55ec:	00 
    55ed:	66 41 89 47 1c       	mov    %ax,0x1c(%r15)
    55f2:	41 c6 47 1e 00       	movb   $0x0,0x1e(%r15)
    55f7:	c7 84 24 28 02 00 00 	movl   $0x1,0x228(%rsp)
    55fe:	01 00 00 00 
    5602:	41 0f 29 07          	movaps %xmm0,(%r15)
    5606:	c6 84 24 00 02 00 00 	movb   $0x3e,0x200(%rsp)
    560d:	3e 
    560e:	0f 85 c4 fe ff ff    	jne    54d8 <_ZN8DatabaseI6recordE9run_shellEv+0xab8>
    5614:	83 c5 01             	add    $0x1,%ebp
    5617:	41 83 fe 28          	cmp    $0x28,%r14d
    561b:	c6 84 24 01 02 00 00 	movb   $0x3d,0x201(%rsp)
    5622:	3d 
    5623:	c7 84 24 28 02 00 00 	movl   $0x2,0x228(%rsp)
    562a:	02 00 00 00 
    562e:	0f 85 f8 f8 ff ff    	jne    4f2c <_ZN8DatabaseI6recordE9run_shellEv+0x50c>
    5634:	e9 49 fe ff ff       	jmpq   5482 <_ZN8DatabaseI6recordE9run_shellEv+0xa62>
    5639:	0f 1f 80 00 00 00 00 	nopl   0x0(%rax)
    5640:	48 8b 84 24 f8 01 00 	mov    0x1f8(%rsp),%rax
    5647:	00 
    5648:	49 63 d5             	movslq %r13d,%rdx
    564b:	4c 89 fe             	mov    %r15,%rsi
    564e:	41 83 c5 01          	add    $0x1,%r13d
    5652:	48 8b 3c d0          	mov    (%rax,%rdx,8),%rdi
    5656:	e8 a5 b6 ff ff       	callq  d00 <strcpy@plt>
    565b:	66 0f ef c0          	pxor   %xmm0,%xmm0
    565f:	31 d2                	xor    %edx,%edx
    5661:	41 83 fd 28          	cmp    $0x28,%r13d
    5665:	44 89 ac 24 20 02 00 	mov    %r13d,0x220(%rsp)
    566c:	00 
    566d:	49 c7 47 10 00 00 00 	movq   $0x0,0x10(%r15)
    5674:	00 
    5675:	41 c7 47 18 00 00 00 	movl   $0x0,0x18(%r15)
    567c:	00 
    567d:	66 41 89 57 1c       	mov    %dx,0x1c(%r15)
    5682:	41 c6 47 1e 00       	movb   $0x0,0x1e(%r15)
    5687:	c7 84 24 28 02 00 00 	movl   $0x1,0x228(%rsp)
    568e:	01 00 00 00 
    5692:	41 0f 29 07          	movaps %xmm0,(%r15)
    5696:	c6 84 24 00 02 00 00 	movb   $0x28,0x200(%rsp)
    569d:	28 
    569e:	0f 85 44 fb ff ff    	jne    51e8 <_ZN8DatabaseI6recordE9run_shellEv+0x7c8>
    56a4:	e9 d9 fd ff ff       	jmpq   5482 <_ZN8DatabaseI6recordE9run_shellEv+0xa62>
    56a9:	0f 1f 80 00 00 00 00 	nopl   0x0(%rax)
    56b0:	48 8b 84 24 f8 01 00 	mov    0x1f8(%rsp),%rax
    56b7:	00 
    56b8:	49 63 d5             	movslq %r13d,%rdx
    56bb:	4c 89 fe             	mov    %r15,%rsi
    56be:	41 83 c5 01          	add    $0x1,%r13d
    56c2:	48 8b 3c d0          	mov    (%rax,%rdx,8),%rdi
    56c6:	e8 35 b6 ff ff       	callq  d00 <strcpy@plt>
    56cb:	66 0f ef c0          	pxor   %xmm0,%xmm0
    56cf:	31 f6                	xor    %esi,%esi
    56d1:	41 83 fd 28          	cmp    $0x28,%r13d
    56d5:	44 89 ac 24 20 02 00 	mov    %r13d,0x220(%rsp)
    56dc:	00 
    56dd:	49 c7 47 10 00 00 00 	movq   $0x0,0x10(%r15)
    56e4:	00 
    56e5:	41 c7 47 18 00 00 00 	movl   $0x0,0x18(%r15)
    56ec:	00 
    56ed:	66 41 89 77 1c       	mov    %si,0x1c(%r15)
    56f2:	41 c6 47 1e 00       	movb   $0x0,0x1e(%r15)
    56f7:	c7 84 24 28 02 00 00 	movl   $0x1,0x228(%rsp)
    56fe:	01 00 00 00 
    5702:	41 0f 29 07          	movaps %xmm0,(%r15)
    5706:	c6 84 24 00 02 00 00 	movb   $0x3b,0x200(%rsp)
    570d:	3b 
    570e:	0f 85 d4 fa ff ff    	jne    51e8 <_ZN8DatabaseI6recordE9run_shellEv+0x7c8>
    5714:	e9 69 fd ff ff       	jmpq   5482 <_ZN8DatabaseI6recordE9run_shellEv+0xa62>
    5719:	0f 1f 80 00 00 00 00 	nopl   0x0(%rax)
    5720:	48 8b 84 24 f8 01 00 	mov    0x1f8(%rsp),%rax
    5727:	00 
    5728:	49 63 d5             	movslq %r13d,%rdx
    572b:	4c 89 fe             	mov    %r15,%rsi
    572e:	41 83 c5 01          	add    $0x1,%r13d
    5732:	48 8b 3c d0          	mov    (%rax,%rdx,8),%rdi
    5736:	e8 c5 b5 ff ff       	callq  d00 <strcpy@plt>
    573b:	66 0f ef c0          	pxor   %xmm0,%xmm0
    573f:	31 c0                	xor    %eax,%eax
    5741:	41 83 fd 28          	cmp    $0x28,%r13d
    5745:	44 89 ac 24 20 02 00 	mov    %r13d,0x220(%rsp)
    574c:	00 
    574d:	49 c7 47 10 00 00 00 	movq   $0x0,0x10(%r15)
    5754:	00 
    5755:	41 c7 47 18 00 00 00 	movl   $0x0,0x18(%r15)
    575c:	00 
    575d:	66 41 89 47 1c       	mov    %ax,0x1c(%r15)
    5762:	41 c6 47 1e 00       	movb   $0x0,0x1e(%r15)
    5767:	c7 84 24 28 02 00 00 	movl   $0x1,0x228(%rsp)
    576e:	01 00 00 00 
    5772:	41 0f 29 07          	movaps %xmm0,(%r15)
    5776:	c6 84 24 00 02 00 00 	movb   $0x2a,0x200(%rsp)
    577d:	2a 
    577e:	0f 85 64 fa ff ff    	jne    51e8 <_ZN8DatabaseI6recordE9run_shellEv+0x7c8>
    5784:	e9 f9 fc ff ff       	jmpq   5482 <_ZN8DatabaseI6recordE9run_shellEv+0xa62>
    5789:	0f 1f 80 00 00 00 00 	nopl   0x0(%rax)
    5790:	48 8b 84 24 f8 01 00 	mov    0x1f8(%rsp),%rax
    5797:	00 
    5798:	49 63 d5             	movslq %r13d,%rdx
    579b:	4c 89 fe             	mov    %r15,%rsi
    579e:	41 83 c5 01          	add    $0x1,%r13d
    57a2:	48 8b 3c d0          	mov    (%rax,%rdx,8),%rdi
    57a6:	e8 55 b5 ff ff       	callq  d00 <strcpy@plt>
    57ab:	66 0f ef c0          	pxor   %xmm0,%xmm0
    57af:	31 c0                	xor    %eax,%eax
    57b1:	41 83 fd 28          	cmp    $0x28,%r13d
    57b5:	44 89 ac 24 20 02 00 	mov    %r13d,0x220(%rsp)
    57bc:	00 
    57bd:	49 c7 47 10 00 00 00 	movq   $0x0,0x10(%r15)
    57c4:	00 
    57c5:	41 c7 47 18 00 00 00 	movl   $0x0,0x18(%r15)
    57cc:	00 
    57cd:	66 41 89 47 1c       	mov    %ax,0x1c(%r15)
    57d2:	41 c6 47 1e 00       	movb   $0x0,0x1e(%r15)
    57d7:	c7 84 24 28 02 00 00 	movl   $0x1,0x228(%rsp)
    57de:	01 00 00 00 
    57e2:	41 0f 29 07          	movaps %xmm0,(%r15)
    57e6:	c6 84 24 00 02 00 00 	movb   $0x29,0x200(%rsp)
    57ed:	29 
    57ee:	0f 85 f4 f9 ff ff    	jne    51e8 <_ZN8DatabaseI6recordE9run_shellEv+0x7c8>
    57f4:	e9 89 fc ff ff       	jmpq   5482 <_ZN8DatabaseI6recordE9run_shellEv+0xa62>
    57f9:	0f 1f 80 00 00 00 00 	nopl   0x0(%rax)
    5800:	48 8b 84 24 f8 01 00 	mov    0x1f8(%rsp),%rax
    5807:	00 
    5808:	49 63 d5             	movslq %r13d,%rdx
    580b:	4c 89 fe             	mov    %r15,%rsi
    580e:	41 83 c5 01          	add    $0x1,%r13d
    5812:	48 8b 3c d0          	mov    (%rax,%rdx,8),%rdi
    5816:	e8 e5 b4 ff ff       	callq  d00 <strcpy@plt>
    581b:	66 0f ef c0          	pxor   %xmm0,%xmm0
    581f:	31 c9                	xor    %ecx,%ecx
    5821:	41 83 fd 28          	cmp    $0x28,%r13d
    5825:	44 89 ac 24 20 02 00 	mov    %r13d,0x220(%rsp)
    582c:	00 
    582d:	49 c7 47 10 00 00 00 	movq   $0x0,0x10(%r15)
    5834:	00 
    5835:	41 c7 47 18 00 00 00 	movl   $0x0,0x18(%r15)
    583c:	00 
    583d:	66 41 89 4f 1c       	mov    %cx,0x1c(%r15)
    5842:	41 c6 47 1e 00       	movb   $0x0,0x1e(%r15)
    5847:	c7 84 24 28 02 00 00 	movl   $0x1,0x228(%rsp)
    584e:	01 00 00 00 
    5852:	41 0f 29 07          	movaps %xmm0,(%r15)
    5856:	c6 84 24 00 02 00 00 	movb   $0x2c,0x200(%rsp)
    585d:	2c 
    585e:	0f 85 84 f9 ff ff    	jne    51e8 <_ZN8DatabaseI6recordE9run_shellEv+0x7c8>
    5864:	e9 19 fc ff ff       	jmpq   5482 <_ZN8DatabaseI6recordE9run_shellEv+0xa62>
    5869:	0f 1f 80 00 00 00 00 	nopl   0x0(%rax)
    5870:	48 8b 84 24 f8 01 00 	mov    0x1f8(%rsp),%rax
    5877:	00 
    5878:	49 63 d6             	movslq %r14d,%rdx
    587b:	4c 89 fe             	mov    %r15,%rsi
    587e:	41 83 c6 01          	add    $0x1,%r14d
    5882:	48 8b 3c d0          	mov    (%rax,%rdx,8),%rdi
    5886:	e8 75 b4 ff ff       	callq  d00 <strcpy@plt>
    588b:	66 0f ef c0          	pxor   %xmm0,%xmm0
    588f:	31 c0                	xor    %eax,%eax
    5891:	41 80 fd 3d          	cmp    $0x3d,%r13b
    5895:	44 89 b4 24 20 02 00 	mov    %r14d,0x220(%rsp)
    589c:	00 
    589d:	49 c7 47 10 00 00 00 	movq   $0x0,0x10(%r15)
    58a4:	00 
    58a5:	41 c7 47 18 00 00 00 	movl   $0x0,0x18(%r15)
    58ac:	00 
    58ad:	66 41 89 47 1c       	mov    %ax,0x1c(%r15)
    58b2:	41 c6 47 1e 00       	movb   $0x0,0x1e(%r15)
    58b7:	c7 84 24 28 02 00 00 	movl   $0x1,0x228(%rsp)
    58be:	01 00 00 00 
    58c2:	41 0f 29 07          	movaps %xmm0,(%r15)
    58c6:	c6 84 24 00 02 00 00 	movb   $0x3c,0x200(%rsp)
    58cd:	3c 
    58ce:	0f 84 7c 01 00 00    	je     5a50 <_ZN8DatabaseI6recordE9run_shellEv+0x1030>
    58d4:	31 c0                	xor    %eax,%eax
    58d6:	41 80 fd 3e          	cmp    $0x3e,%r13b
    58da:	ba 01 00 00 00       	mov    $0x1,%edx
    58df:	75 18                	jne    58f9 <_ZN8DatabaseI6recordE9run_shellEv+0xed9>
    58e1:	48 63 d2             	movslq %edx,%rdx
    58e4:	83 c0 02             	add    $0x2,%eax
    58e7:	83 c5 01             	add    $0x1,%ebp
    58ea:	c6 84 14 00 02 00 00 	movb   $0x3e,0x200(%rsp,%rdx,1)
    58f1:	3e 
    58f2:	89 84 24 28 02 00 00 	mov    %eax,0x228(%rsp)
    58f9:	41 83 fe 28          	cmp    $0x28,%r14d
    58fd:	0f 85 a6 f9 ff ff    	jne    52a9 <_ZN8DatabaseI6recordE9run_shellEv+0x889>
    5903:	e9 7a fb ff ff       	jmpq   5482 <_ZN8DatabaseI6recordE9run_shellEv+0xa62>
    5908:	0f 1f 84 00 00 00 00 	nopl   0x0(%rax,%rax,1)
    590f:	00 
    5910:	45 85 f6             	test   %r14d,%r14d
    5913:	4c 8b 7c 24 10       	mov    0x10(%rsp),%r15
    5918:	44 89 f0             	mov    %r14d,%eax
    591b:	0f 84 1f 01 00 00    	je     5a40 <_ZN8DatabaseI6recordE9run_shellEv+0x1020>
    5921:	48 8b 0c 24          	mov    (%rsp),%rcx
    5925:	83 c0 01             	add    $0x1,%eax
    5928:	48 8d 3d 22 27 00 00 	lea    0x2722(%rip),%rdi        # 8051 <_IO_stdin_used+0x551>
    592f:	48 98                	cltq   
    5931:	4c 8d 04 c5 00 00 00 	lea    0x0(,%rax,8),%r8
    5938:	00 
    5939:	48 8b 14 c1          	mov    (%rcx,%rax,8),%rdx
    593d:	b9 06 00 00 00       	mov    $0x6,%ecx
    5942:	48 89 d6             	mov    %rdx,%rsi
    5945:	f3 a6                	repz cmpsb %es:(%rdi),%ds:(%rsi)
    5947:	0f 97 c0             	seta   %al
    594a:	1c 00                	sbb    $0x0,%al
    594c:	84 c0                	test   %al,%al
    594e:	0f 84 27 03 00 00    	je     5c7b <_ZN8DatabaseI6recordE9run_shellEv+0x125b>
    5954:	48 8d 3d 13 27 00 00 	lea    0x2713(%rip),%rdi        # 806e <_IO_stdin_used+0x56e>
    595b:	b9 02 00 00 00       	mov    $0x2,%ecx
    5960:	48 89 d6             	mov    %rdx,%rsi
    5963:	f3 a6                	repz cmpsb %es:(%rdi),%ds:(%rsi)
    5965:	0f 97 c0             	seta   %al
    5968:	1c 00                	sbb    $0x0,%al
    596a:	84 c0                	test   %al,%al
    596c:	0f 85 ce 00 00 00    	jne    5a40 <_ZN8DatabaseI6recordE9run_shellEv+0x1020>
    5972:	8b 84 24 dc 01 00 00 	mov    0x1dc(%rsp),%eax
    5979:	48 8b 5c 24 28       	mov    0x28(%rsp),%rbx
    597e:	c6 84 24 f0 01 00 00 	movb   $0x1,0x1f0(%rsp)
    5985:	01 
    5986:	83 f8 04             	cmp    $0x4,%eax
    5989:	48 c7 43 34 00 00 00 	movq   $0x0,0x34(%rbx)
    5990:	00 
    5991:	0f 84 d7 07 00 00    	je     616e <_ZN8DatabaseI6recordE9run_shellEv+0x174e>
    5997:	83 f8 05             	cmp    $0x5,%eax
    599a:	0f 85 33 06 00 00    	jne    5fd3 <_ZN8DatabaseI6recordE9run_shellEv+0x15b3>
    59a0:	4c 8b 33             	mov    (%rbx),%r14
    59a3:	4d 85 f6             	test   %r14,%r14
    59a6:	0f 84 bb 09 00 00    	je     6367 <_ZN8DatabaseI6recordE9run_shellEv+0x1947>
    59ac:	4c 89 7c 24 40       	mov    %r15,0x40(%rsp)
    59b1:	8b 94 24 e8 01 00 00 	mov    0x1e8(%rsp),%edx
    59b8:	8b ac 24 e0 01 00 00 	mov    0x1e0(%rsp),%ebp
    59bf:	49 8b 46 20          	mov    0x20(%r14),%rax
    59c3:	8b 8c 24 e4 01 00 00 	mov    0x1e4(%rsp),%ecx
    59ca:	48 89 44 24 38       	mov    %rax,0x38(%rsp)
    59cf:	8d 04 2a             	lea    (%rdx,%rbp,1),%eax
    59d2:	01 c8                	add    %ecx,%eax
    59d4:	0f 84 e3 0a 00 00    	je     64bd <_ZN8DatabaseI6recordE9run_shellEv+0x1a9d>
    59da:	85 d2                	test   %edx,%edx
    59dc:	b8 01 00 00 00       	mov    $0x1,%eax
    59e1:	0f 84 16 08 00 00    	je     61fd <_ZN8DatabaseI6recordE9run_shellEv+0x17dd>
    59e7:	41 8b 46 18          	mov    0x18(%r14),%eax
    59eb:	2b 84 24 d8 01 00 00 	sub    0x1d8(%rsp),%eax
    59f2:	83 fa 06             	cmp    $0x6,%edx
    59f5:	0f 87 e7 1f 00 00    	ja     79e2 <_ZN8DatabaseI6recordE9run_shellEv+0x2fc2>
    59fb:	48 8d 35 6e 27 00 00 	lea    0x276e(%rip),%rsi        # 8170 <_IO_stdin_used+0x670>
    5a02:	48 63 14 96          	movslq (%rsi,%rdx,4),%rdx
    5a06:	48 01 f2             	add    %rsi,%rdx
    5a09:	ff e2                	jmpq   *%rdx
    5a0b:	0f 1f 44 00 00       	nopl   0x0(%rax,%rax,1)
    5a10:	83 fa 1e             	cmp    $0x1e,%edx
    5a13:	0f 84 6c 17 00 00    	je     7185 <_ZN8DatabaseI6recordE9run_shellEv+0x2765>
    5a19:	48 63 d2             	movslq %edx,%rdx
    5a1c:	83 c0 02             	add    $0x2,%eax
    5a1f:	83 c5 01             	add    $0x1,%ebp
    5a22:	c6 84 14 00 02 00 00 	movb   $0x3d,0x200(%rsp,%rdx,1)
    5a29:	3d 
    5a2a:	89 84 24 28 02 00 00 	mov    %eax,0x228(%rsp)
    5a31:	e9 c3 fe ff ff       	jmpq   58f9 <_ZN8DatabaseI6recordE9run_shellEv+0xed9>
    5a36:	4c 8b 7c 24 10       	mov    0x10(%rsp),%r15
    5a3b:	0f 1f 44 00 00       	nopl   0x0(%rax,%rax,1)
    5a40:	c6 84 24 f0 01 00 00 	movb   $0x0,0x1f0(%rsp)
    5a47:	00 
    5a48:	e9 cf f3 ff ff       	jmpq   4e1c <_ZN8DatabaseI6recordE9run_shellEv+0x3fc>
    5a4d:	0f 1f 00             	nopl   (%rax)
    5a50:	ba 01 00 00 00       	mov    $0x1,%edx
    5a55:	31 c0                	xor    %eax,%eax
    5a57:	eb c0                	jmp    5a19 <_ZN8DatabaseI6recordE9run_shellEv+0xff9>
    5a59:	48 8b 84 24 f8 01 00 	mov    0x1f8(%rsp),%rax
    5a60:	00 
    5a61:	48 63 d5             	movslq %ebp,%rdx
    5a64:	4c 89 fe             	mov    %r15,%rsi
    5a67:	83 c5 01             	add    $0x1,%ebp
    5a6a:	48 8b 3c d0          	mov    (%rax,%rdx,8),%rdi
    5a6e:	e8 8d b2 ff ff       	callq  d00 <strcpy@plt>
    5a73:	48 8b 4c 24 18       	mov    0x18(%rsp),%rcx
    5a78:	66 0f ef c0          	pxor   %xmm0,%xmm0
    5a7c:	41 ba 45 4f 00 00    	mov    $0x4f45,%r10d
    5a82:	83 fd 28             	cmp    $0x28,%ebp
    5a85:	89 ac 24 20 02 00 00 	mov    %ebp,0x220(%rsp)
    5a8c:	66 44 89 94 24 00 02 	mov    %r10w,0x200(%rsp)
    5a93:	00 00 
    5a95:	0f 11 41 42          	movups %xmm0,0x42(%rcx)
    5a99:	48 c7 41 52 00 00 00 	movq   $0x0,0x52(%rcx)
    5aa0:	00 
    5aa1:	c7 41 5a 00 00 00 00 	movl   $0x0,0x5a(%rcx)
    5aa8:	c6 41 5e 00          	movb   $0x0,0x5e(%rcx)
    5aac:	c6 84 24 02 02 00 00 	movb   $0x46,0x202(%rsp)
    5ab3:	46 
    5ab4:	c7 84 24 28 02 00 00 	movl   $0x3,0x228(%rsp)
    5abb:	03 00 00 00 
    5abf:	0f 85 10 f5 ff ff    	jne    4fd5 <_ZN8DatabaseI6recordE9run_shellEv+0x5b5>
    5ac5:	e9 b8 f9 ff ff       	jmpq   5482 <_ZN8DatabaseI6recordE9run_shellEv+0xa62>
    5aca:	66 0f 1f 44 00 00    	nopw   0x0(%rax,%rax,1)
    5ad0:	48 8d 3d 99 25 00 00 	lea    0x2599(%rip),%rdi        # 8070 <_IO_stdin_used+0x570>
    5ad7:	b9 05 00 00 00       	mov    $0x5,%ecx
    5adc:	48 89 d6             	mov    %rdx,%rsi
    5adf:	f3 a6                	repz cmpsb %es:(%rdi),%ds:(%rsi)
    5ae1:	0f 97 c0             	seta   %al
    5ae4:	1c 00                	sbb    $0x0,%al
    5ae6:	84 c0                	test   %al,%al
    5ae8:	0f 85 d0 00 00 00    	jne    5bbe <_ZN8DatabaseI6recordE9run_shellEv+0x119e>
    5aee:	48 8b 04 24          	mov    (%rsp),%rax
    5af2:	48 8d 3d 75 25 00 00 	lea    0x2575(%rip),%rdi        # 806e <_IO_stdin_used+0x56e>
    5af9:	b9 02 00 00 00       	mov    $0x2,%ecx
    5afe:	c7 84 24 dc 01 00 00 	movl   $0x1,0x1dc(%rsp)
    5b05:	01 00 00 00 
    5b09:	48 8b 70 08          	mov    0x8(%rax),%rsi
    5b0d:	f3 a6                	repz cmpsb %es:(%rdi),%ds:(%rsi)
    5b0f:	0f 97 c0             	seta   %al
    5b12:	1c 00                	sbb    $0x0,%al
    5b14:	84 c0                	test   %al,%al
    5b16:	0f 85 24 ff ff ff    	jne    5a40 <_ZN8DatabaseI6recordE9run_shellEv+0x1020>
    5b1c:	b8 01 00 00 00       	mov    $0x1,%eax
    5b21:	48 8b 5c 24 28       	mov    0x28(%rsp),%rbx
    5b26:	c6 84 24 f0 01 00 00 	movb   $0x1,0x1f0(%rsp)
    5b2d:	01 
    5b2e:	48 c7 43 34 00 00 00 	movq   $0x0,0x34(%rbx)
    5b35:	00 
    5b36:	83 f8 01             	cmp    $0x1,%eax
    5b39:	0f 85 d6 f2 ff ff    	jne    4e15 <_ZN8DatabaseI6recordE9run_shellEv+0x3f5>
    5b3f:	8b 84 24 24 02 00 00 	mov    0x224(%rsp),%eax
    5b46:	4c 8b a4 24 f8 01 00 	mov    0x1f8(%rsp),%r12
    5b4d:	00 
    5b4e:	85 c0                	test   %eax,%eax
    5b50:	7e 24                	jle    5b76 <_ZN8DatabaseI6recordE9run_shellEv+0x1156>
    5b52:	83 e8 01             	sub    $0x1,%eax
    5b55:	4c 89 e3             	mov    %r12,%rbx
    5b58:	49 8d 6c c4 08       	lea    0x8(%r12,%rax,8),%rbp
    5b5d:	0f 1f 00             	nopl   (%rax)
    5b60:	48 8b 3b             	mov    (%rbx),%rdi
    5b63:	48 85 ff             	test   %rdi,%rdi
    5b66:	74 05                	je     5b6d <_ZN8DatabaseI6recordE9run_shellEv+0x114d>
    5b68:	e8 03 b2 ff ff       	callq  d70 <_ZdaPv@plt>
    5b6d:	48 83 c3 08          	add    $0x8,%rbx
    5b71:	48 39 eb             	cmp    %rbp,%rbx
    5b74:	75 ea                	jne    5b60 <_ZN8DatabaseI6recordE9run_shellEv+0x1140>
    5b76:	4d 85 e4             	test   %r12,%r12
    5b79:	74 08                	je     5b83 <_ZN8DatabaseI6recordE9run_shellEv+0x1163>
    5b7b:	4c 89 e7             	mov    %r12,%rdi
    5b7e:	e8 ed b1 ff ff       	callq  d70 <_ZdaPv@plt>
    5b83:	48 8b bc 24 c0 01 00 	mov    0x1c0(%rsp),%rdi
    5b8a:	00 
    5b8b:	48 85 ff             	test   %rdi,%rdi
    5b8e:	74 05                	je     5b95 <_ZN8DatabaseI6recordE9run_shellEv+0x1175>
    5b90:	e8 db b1 ff ff       	callq  d70 <_ZdaPv@plt>
    5b95:	48 8b 84 24 78 10 00 	mov    0x1078(%rsp),%rax
    5b9c:	00 
    5b9d:	64 48 33 04 25 28 00 	xor    %fs:0x28,%rax
    5ba4:	00 00 
    5ba6:	0f 85 cb 15 00 00    	jne    7177 <_ZN8DatabaseI6recordE9run_shellEv+0x2757>
    5bac:	48 81 c4 88 10 00 00 	add    $0x1088,%rsp
    5bb3:	5b                   	pop    %rbx
    5bb4:	5d                   	pop    %rbp
    5bb5:	41 5c                	pop    %r12
    5bb7:	41 5d                	pop    %r13
    5bb9:	41 5e                	pop    %r14
    5bbb:	41 5f                	pop    %r15
    5bbd:	c3                   	retq   
    5bbe:	48 8d 3d b0 24 00 00 	lea    0x24b0(%rip),%rdi        # 8075 <_IO_stdin_used+0x575>
    5bc5:	b9 05 00 00 00       	mov    $0x5,%ecx
    5bca:	48 89 d6             	mov    %rdx,%rsi
    5bcd:	f3 a6                	repz cmpsb %es:(%rdi),%ds:(%rsi)
    5bcf:	0f 97 c0             	seta   %al
    5bd2:	1c 00                	sbb    $0x0,%al
    5bd4:	84 c0                	test   %al,%al
    5bd6:	75 38                	jne    5c10 <_ZN8DatabaseI6recordE9run_shellEv+0x11f0>
    5bd8:	48 8b 04 24          	mov    (%rsp),%rax
    5bdc:	48 8d 3d 8b 24 00 00 	lea    0x248b(%rip),%rdi        # 806e <_IO_stdin_used+0x56e>
    5be3:	b9 02 00 00 00       	mov    $0x2,%ecx
    5be8:	c7 84 24 dc 01 00 00 	movl   $0x2,0x1dc(%rsp)
    5bef:	02 00 00 00 
    5bf3:	48 8b 70 08          	mov    0x8(%rax),%rsi
    5bf7:	f3 a6                	repz cmpsb %es:(%rdi),%ds:(%rsi)
    5bf9:	0f 97 c0             	seta   %al
    5bfc:	1c 00                	sbb    $0x0,%al
    5bfe:	84 c0                	test   %al,%al
    5c00:	0f 85 3a fe ff ff    	jne    5a40 <_ZN8DatabaseI6recordE9run_shellEv+0x1020>
    5c06:	b8 02 00 00 00       	mov    $0x2,%eax
    5c0b:	e9 11 ff ff ff       	jmpq   5b21 <_ZN8DatabaseI6recordE9run_shellEv+0x1101>
    5c10:	48 8d 3d 63 24 00 00 	lea    0x2463(%rip),%rdi        # 807a <_IO_stdin_used+0x57a>
    5c17:	b9 07 00 00 00       	mov    $0x7,%ecx
    5c1c:	48 89 d6             	mov    %rdx,%rsi
    5c1f:	f3 a6                	repz cmpsb %es:(%rdi),%ds:(%rsi)
    5c21:	0f 97 c0             	seta   %al
    5c24:	1c 00                	sbb    $0x0,%al
    5c26:	84 c0                	test   %al,%al
    5c28:	0f 85 a1 02 00 00    	jne    5ecf <_ZN8DatabaseI6recordE9run_shellEv+0x14af>
    5c2e:	48 8b 04 24          	mov    (%rsp),%rax
    5c32:	48 8d 3d 18 24 00 00 	lea    0x2418(%rip),%rdi        # 8051 <_IO_stdin_used+0x551>
    5c39:	b9 06 00 00 00       	mov    $0x6,%ecx
    5c3e:	c7 84 24 dc 01 00 00 	movl   $0x5,0x1dc(%rsp)
    5c45:	05 00 00 00 
    5c49:	48 8b 70 08          	mov    0x8(%rax),%rsi
    5c4d:	b8 08 00 00 00       	mov    $0x8,%eax
    5c52:	f3 a6                	repz cmpsb %es:(%rdi),%ds:(%rsi)
    5c54:	0f 97 c2             	seta   %dl
    5c57:	80 da 00             	sbb    $0x0,%dl
    5c5a:	84 d2                	test   %dl,%dl
    5c5c:	0f 84 3b 0d 00 00    	je     699d <_ZN8DatabaseI6recordE9run_shellEv+0x1f7d>
    5c62:	48 8b 0c 24          	mov    (%rsp),%rcx
    5c66:	48 8d 3d 01 24 00 00 	lea    0x2401(%rip),%rdi        # 806e <_IO_stdin_used+0x56e>
    5c6d:	48 8b 34 01          	mov    (%rcx,%rax,1),%rsi
    5c71:	b9 02 00 00 00       	mov    $0x2,%ecx
    5c76:	e9 e8 fc ff ff       	jmpq   5963 <_ZN8DatabaseI6recordE9run_shellEv+0xf43>
    5c7b:	44 89 f0             	mov    %r14d,%eax
    5c7e:	c7 44 24 10 00 00 00 	movl   $0x0,0x10(%rsp)
    5c85:	00 
    5c86:	83 c0 02             	add    $0x2,%eax
    5c89:	89 44 24 40          	mov    %eax,0x40(%rsp)
    5c8d:	48 8b 04 24          	mov    (%rsp),%rax
    5c91:	4e 8d 64 00 08       	lea    0x8(%rax,%r8,1),%r12
    5c96:	49 8b 2c 24          	mov    (%r12),%rbp
    5c9a:	8b 44 24 10          	mov    0x10(%rsp),%eax
    5c9e:	b9 04 00 00 00       	mov    $0x4,%ecx
    5ca3:	4c 89 ef             	mov    %r13,%rdi
    5ca6:	48 89 ee             	mov    %rbp,%rsi
    5ca9:	89 44 24 30          	mov    %eax,0x30(%rsp)
    5cad:	f3 a6                	repz cmpsb %es:(%rdi),%ds:(%rsi)
    5caf:	0f 97 c0             	seta   %al
    5cb2:	1c 00                	sbb    $0x0,%al
    5cb4:	84 c0                	test   %al,%al
    5cb6:	0f 84 ee 01 00 00    	je     5eaa <_ZN8DatabaseI6recordE9run_shellEv+0x148a>
    5cbc:	4c 8b 74 24 08       	mov    0x8(%rsp),%r14
    5cc1:	eb 1c                	jmp    5cdf <_ZN8DatabaseI6recordE9run_shellEv+0x12bf>
    5cc3:	0f 1f 44 00 00       	nopl   0x0(%rax,%rax,1)
    5cc8:	4c 89 f7             	mov    %r14,%rdi
    5ccb:	48 89 ee             	mov    %rbp,%rsi
    5cce:	49 83 c6 28          	add    $0x28,%r14
    5cd2:	e8 a9 b0 ff ff       	callq  d80 <strcmp@plt>
    5cd7:	85 c0                	test   %eax,%eax
    5cd9:	0f 84 cb 01 00 00    	je     5eaa <_ZN8DatabaseI6recordE9run_shellEv+0x148a>
    5cdf:	b9 04 00 00 00       	mov    $0x4,%ecx
    5ce4:	4c 89 f6             	mov    %r14,%rsi
    5ce7:	4c 89 ef             	mov    %r13,%rdi
    5cea:	f3 a6                	repz cmpsb %es:(%rdi),%ds:(%rsi)
    5cec:	0f 97 c0             	seta   %al
    5cef:	1c 00                	sbb    $0x0,%al
    5cf1:	84 c0                	test   %al,%al
    5cf3:	75 d3                	jne    5cc8 <_ZN8DatabaseI6recordE9run_shellEv+0x12a8>
    5cf5:	4d 8b 74 24 08       	mov    0x8(%r12),%r14
    5cfa:	b9 04 00 00 00       	mov    $0x4,%ecx
    5cff:	4c 89 ef             	mov    %r13,%rdi
    5d02:	4c 89 f6             	mov    %r14,%rsi
    5d05:	f3 a6                	repz cmpsb %es:(%rdi),%ds:(%rsi)
    5d07:	0f 97 c0             	seta   %al
    5d0a:	1c 00                	sbb    $0x0,%al
    5d0c:	84 c0                	test   %al,%al
    5d0e:	0f 84 96 01 00 00    	je     5eaa <_ZN8DatabaseI6recordE9run_shellEv+0x148a>
    5d14:	49 8b 74 24 10       	mov    0x10(%r12),%rsi
    5d19:	b9 04 00 00 00       	mov    $0x4,%ecx
    5d1e:	4c 89 ef             	mov    %r13,%rdi
    5d21:	48 89 74 24 38       	mov    %rsi,0x38(%rsp)
    5d26:	f3 a6                	repz cmpsb %es:(%rdi),%ds:(%rsi)
    5d28:	0f 97 c0             	seta   %al
    5d2b:	1c 00                	sbb    $0x0,%al
    5d2d:	84 c0                	test   %al,%al
    5d2f:	0f 84 75 01 00 00    	je     5eaa <_ZN8DatabaseI6recordE9run_shellEv+0x148a>
    5d35:	48 8b 54 24 08       	mov    0x8(%rsp),%rdx
    5d3a:	4c 89 64 24 48       	mov    %r12,0x48(%rsp)
    5d3f:	49 89 d4             	mov    %rdx,%r12
    5d42:	eb 17                	jmp    5d5b <_ZN8DatabaseI6recordE9run_shellEv+0x133b>
    5d44:	4c 89 e7             	mov    %r12,%rdi
    5d47:	48 89 ee             	mov    %rbp,%rsi
    5d4a:	49 83 c4 28          	add    $0x28,%r12
    5d4e:	e8 2d b0 ff ff       	callq  d80 <strcmp@plt>
    5d53:	85 c0                	test   %eax,%eax
    5d55:	0f 84 4f 01 00 00    	je     5eaa <_ZN8DatabaseI6recordE9run_shellEv+0x148a>
    5d5b:	b9 04 00 00 00       	mov    $0x4,%ecx
    5d60:	4c 89 e6             	mov    %r12,%rsi
    5d63:	4c 89 ef             	mov    %r13,%rdi
    5d66:	f3 a6                	repz cmpsb %es:(%rdi),%ds:(%rsi)
    5d68:	0f 97 c0             	seta   %al
    5d6b:	1c 00                	sbb    $0x0,%al
    5d6d:	84 c0                	test   %al,%al
    5d6f:	75 d3                	jne    5d44 <_ZN8DatabaseI6recordE9run_shellEv+0x1324>
    5d71:	48 8d 3d 1f 23 00 00 	lea    0x231f(%rip),%rdi        # 8097 <_IO_stdin_used+0x597>
    5d78:	b9 05 00 00 00       	mov    $0x5,%ecx
    5d7d:	48 89 ee             	mov    %rbp,%rsi
    5d80:	4c 8b 64 24 48       	mov    0x48(%rsp),%r12
    5d85:	f3 a6                	repz cmpsb %es:(%rdi),%ds:(%rsi)
    5d87:	0f 97 c0             	seta   %al
    5d8a:	1c 00                	sbb    $0x0,%al
    5d8c:	84 c0                	test   %al,%al
    5d8e:	0f 84 ba 0f 00 00    	je     6d4e <_ZN8DatabaseI6recordE9run_shellEv+0x232e>
    5d94:	48 8d 3d a6 22 00 00 	lea    0x22a6(%rip),%rdi        # 8041 <_IO_stdin_used+0x541>
    5d9b:	b9 06 00 00 00       	mov    $0x6,%ecx
    5da0:	48 89 ee             	mov    %rbp,%rsi
    5da3:	f3 a6                	repz cmpsb %es:(%rdi),%ds:(%rsi)
    5da5:	0f 97 c0             	seta   %al
    5da8:	1c 00                	sbb    $0x0,%al
    5daa:	84 c0                	test   %al,%al
    5dac:	0f 84 e0 05 00 00    	je     6392 <_ZN8DatabaseI6recordE9run_shellEv+0x1972>
    5db2:	48 8d 3d 8e 22 00 00 	lea    0x228e(%rip),%rdi        # 8047 <_IO_stdin_used+0x547>
    5db9:	b9 06 00 00 00       	mov    $0x6,%ecx
    5dbe:	48 89 ee             	mov    %rbp,%rsi
    5dc1:	f3 a6                	repz cmpsb %es:(%rdi),%ds:(%rsi)
    5dc3:	0f 97 c0             	seta   %al
    5dc6:	1c 00                	sbb    $0x0,%al
    5dc8:	84 c0                	test   %al,%al
    5dca:	0f 85 da 00 00 00    	jne    5eaa <_ZN8DatabaseI6recordE9run_shellEv+0x148a>
    5dd0:	48 8d 3d 80 22 00 00 	lea    0x2280(%rip),%rdi        # 8057 <_IO_stdin_used+0x557>
    5dd7:	b9 03 00 00 00       	mov    $0x3,%ecx
    5ddc:	4c 89 f6             	mov    %r14,%rsi
    5ddf:	ba 02 00 00 00       	mov    $0x2,%edx
    5de4:	f3 a6                	repz cmpsb %es:(%rdi),%ds:(%rsi)
    5de6:	0f 97 c0             	seta   %al
    5de9:	1c 00                	sbb    $0x0,%al
    5deb:	84 c0                	test   %al,%al
    5ded:	0f 84 93 00 00 00    	je     5e86 <_ZN8DatabaseI6recordE9run_shellEv+0x1466>
    5df3:	48 8d 3d 60 22 00 00 	lea    0x2260(%rip),%rdi        # 805a <_IO_stdin_used+0x55a>
    5dfa:	b9 03 00 00 00       	mov    $0x3,%ecx
    5dff:	4c 89 f6             	mov    %r14,%rsi
    5e02:	ba 05 00 00 00       	mov    $0x5,%edx
    5e07:	f3 a6                	repz cmpsb %es:(%rdi),%ds:(%rsi)
    5e09:	0f 97 c0             	seta   %al
    5e0c:	1c 00                	sbb    $0x0,%al
    5e0e:	84 c0                	test   %al,%al
    5e10:	74 74                	je     5e86 <_ZN8DatabaseI6recordE9run_shellEv+0x1466>
    5e12:	48 8d 35 44 22 00 00 	lea    0x2244(%rip),%rsi        # 805d <_IO_stdin_used+0x55d>
    5e19:	4c 89 f7             	mov    %r14,%rdi
    5e1c:	e8 5f af ff ff       	callq  d80 <strcmp@plt>
    5e21:	85 c0                	test   %eax,%eax
    5e23:	0f 84 eb 12 00 00    	je     7114 <_ZN8DatabaseI6recordE9run_shellEv+0x26f4>
    5e29:	48 8d 35 28 22 00 00 	lea    0x2228(%rip),%rsi        # 8058 <_IO_stdin_used+0x558>
    5e30:	4c 89 f7             	mov    %r14,%rdi
    5e33:	e8 48 af ff ff       	callq  d80 <strcmp@plt>
    5e38:	85 c0                	test   %eax,%eax
    5e3a:	0f 84 2a 1c 00 00    	je     7a6a <_ZN8DatabaseI6recordE9run_shellEv+0x304a>
    5e40:	48 8d 35 19 22 00 00 	lea    0x2219(%rip),%rsi        # 8060 <_IO_stdin_used+0x560>
    5e47:	4c 89 f7             	mov    %r14,%rdi
    5e4a:	e8 31 af ff ff       	callq  d80 <strcmp@plt>
    5e4f:	85 c0                	test   %eax,%eax
    5e51:	0f 84 09 1c 00 00    	je     7a60 <_ZN8DatabaseI6recordE9run_shellEv+0x3040>
    5e57:	48 8d 35 fd 21 00 00 	lea    0x21fd(%rip),%rsi        # 805b <_IO_stdin_used+0x55b>
    5e5e:	4c 89 f7             	mov    %r14,%rdi
    5e61:	e8 1a af ff ff       	callq  d80 <strcmp@plt>
    5e66:	85 c0                	test   %eax,%eax
    5e68:	ba 01 00 00 00       	mov    $0x1,%edx
    5e6d:	74 17                	je     5e86 <_ZN8DatabaseI6recordE9run_shellEv+0x1466>
    5e6f:	48 8d 35 ec 21 00 00 	lea    0x21ec(%rip),%rsi        # 8062 <_IO_stdin_used+0x562>
    5e76:	4c 89 f7             	mov    %r14,%rdi
    5e79:	e8 02 af ff ff       	callq  d80 <strcmp@plt>
    5e7e:	83 f8 01             	cmp    $0x1,%eax
    5e81:	19 d2                	sbb    %edx,%edx
    5e83:	83 e2 07             	and    $0x7,%edx
    5e86:	48 8b 7c 24 38       	mov    0x38(%rsp),%rdi
    5e8b:	89 94 24 e8 01 00 00 	mov    %edx,0x1e8(%rsp)
    5e92:	31 f6                	xor    %esi,%esi
    5e94:	ba 0a 00 00 00       	mov    $0xa,%edx
    5e99:	e8 f2 ae ff ff       	callq  d90 <strtol@plt>
    5e9e:	89 84 24 d8 01 00 00 	mov    %eax,0x1d8(%rsp)
    5ea5:	e9 be 05 00 00       	jmpq   6468 <_ZN8DatabaseI6recordE9run_shellEv+0x1a48>
    5eaa:	44 8b 44 24 10       	mov    0x10(%rsp),%r8d
    5eaf:	45 85 c0             	test   %r8d,%r8d
    5eb2:	0f 84 88 fb ff ff    	je     5a40 <_ZN8DatabaseI6recordE9run_shellEv+0x1020>
    5eb8:	8b 44 24 40          	mov    0x40(%rsp),%eax
    5ebc:	03 44 24 30          	add    0x30(%rsp),%eax
    5ec0:	48 8b 0c 24          	mov    (%rsp),%rcx
    5ec4:	48 98                	cltq   
    5ec6:	48 8b 14 c1          	mov    (%rcx,%rax,8),%rdx
    5eca:	e9 85 fa ff ff       	jmpq   5954 <_ZN8DatabaseI6recordE9run_shellEv+0xf34>
    5ecf:	48 8d 3d ab 21 00 00 	lea    0x21ab(%rip),%rdi        # 8081 <_IO_stdin_used+0x581>
    5ed6:	b9 07 00 00 00       	mov    $0x7,%ecx
    5edb:	48 89 d6             	mov    %rdx,%rsi
    5ede:	f3 a6                	repz cmpsb %es:(%rdi),%ds:(%rsi)
    5ee0:	0f 97 c0             	seta   %al
    5ee3:	1c 00                	sbb    $0x0,%al
    5ee5:	84 c0                	test   %al,%al
    5ee7:	0f 85 53 fb ff ff    	jne    5a40 <_ZN8DatabaseI6recordE9run_shellEv+0x1020>
    5eed:	48 8b 04 24          	mov    (%rsp),%rax
    5ef1:	48 8d 3d 90 21 00 00 	lea    0x2190(%rip),%rdi        # 8088 <_IO_stdin_used+0x588>
    5ef8:	b9 02 00 00 00       	mov    $0x2,%ecx
    5efd:	c7 84 24 dc 01 00 00 	movl   $0x4,0x1dc(%rsp)
    5f04:	04 00 00 00 
    5f08:	48 8b 70 08          	mov    0x8(%rax),%rsi
    5f0c:	f3 a6                	repz cmpsb %es:(%rdi),%ds:(%rsi)
    5f0e:	0f 97 c0             	seta   %al
    5f11:	1c 00                	sbb    $0x0,%al
    5f13:	84 c0                	test   %al,%al
    5f15:	0f 85 25 fb ff ff    	jne    5a40 <_ZN8DatabaseI6recordE9run_shellEv+0x1020>
    5f1b:	48 c7 44 24 08 00 00 	movq   $0x0,0x8(%rsp)
    5f22:	00 00 
    5f24:	48 8b 44 24 08       	mov    0x8(%rsp),%rax
    5f29:	48 8b 0c 24          	mov    (%rsp),%rcx
    5f2d:	4c 89 ef             	mov    %r13,%rdi
    5f30:	48 8b 6c c1 10       	mov    0x10(%rcx,%rax,8),%rbp
    5f35:	b9 04 00 00 00       	mov    $0x4,%ecx
    5f3a:	41 89 c4             	mov    %eax,%r12d
    5f3d:	48 89 ee             	mov    %rbp,%rsi
    5f40:	f3 a6                	repz cmpsb %es:(%rdi),%ds:(%rsi)
    5f42:	0f 97 c0             	seta   %al
    5f45:	1c 00                	sbb    $0x0,%al
    5f47:	84 c0                	test   %al,%al
    5f49:	0f 84 b6 01 00 00    	je     6105 <_ZN8DatabaseI6recordE9run_shellEv+0x16e5>
    5f4f:	48 8b 44 24 18       	mov    0x18(%rsp),%rax
    5f54:	4c 8d b0 1c 05 00 00 	lea    0x51c(%rax),%r14
    5f5b:	eb 17                	jmp    5f74 <_ZN8DatabaseI6recordE9run_shellEv+0x1554>
    5f5d:	4c 89 f7             	mov    %r14,%rdi
    5f60:	48 89 ee             	mov    %rbp,%rsi
    5f63:	49 83 c6 28          	add    $0x28,%r14
    5f67:	e8 14 ae ff ff       	callq  d80 <strcmp@plt>
    5f6c:	85 c0                	test   %eax,%eax
    5f6e:	0f 84 91 01 00 00    	je     6105 <_ZN8DatabaseI6recordE9run_shellEv+0x16e5>
    5f74:	b9 04 00 00 00       	mov    $0x4,%ecx
    5f79:	4c 89 f6             	mov    %r14,%rsi
    5f7c:	4c 89 ef             	mov    %r13,%rdi
    5f7f:	f3 a6                	repz cmpsb %es:(%rdi),%ds:(%rsi)
    5f81:	0f 97 c0             	seta   %al
    5f84:	1c 00                	sbb    $0x0,%al
    5f86:	84 c0                	test   %al,%al
    5f88:	75 d3                	jne    5f5d <_ZN8DatabaseI6recordE9run_shellEv+0x153d>
    5f8a:	48 83 7c 24 08 00    	cmpq   $0x0,0x8(%rsp)
    5f90:	0f 84 1e 09 00 00    	je     68b4 <_ZN8DatabaseI6recordE9run_shellEv+0x1e94>
    5f96:	41 83 fc 02          	cmp    $0x2,%r12d
    5f9a:	0f 84 3b 11 00 00    	je     70db <_ZN8DatabaseI6recordE9run_shellEv+0x26bb>
    5fa0:	41 83 fc 04          	cmp    $0x4,%r12d
    5fa4:	0f 84 59 0d 00 00    	je     6d03 <_ZN8DatabaseI6recordE9run_shellEv+0x22e3>
    5faa:	48 8d 3d 9e 20 00 00 	lea    0x209e(%rip),%rdi        # 804f <_IO_stdin_used+0x54f>
    5fb1:	b9 02 00 00 00       	mov    $0x2,%ecx
    5fb6:	48 89 ee             	mov    %rbp,%rsi
    5fb9:	f3 a6                	repz cmpsb %es:(%rdi),%ds:(%rsi)
    5fbb:	0f 97 c0             	seta   %al
    5fbe:	1c 00                	sbb    $0x0,%al
    5fc0:	84 c0                	test   %al,%al
    5fc2:	0f 85 78 fa ff ff    	jne    5a40 <_ZN8DatabaseI6recordE9run_shellEv+0x1020>
    5fc8:	48 83 44 24 08 01    	addq   $0x1,0x8(%rsp)
    5fce:	e9 51 ff ff ff       	jmpq   5f24 <_ZN8DatabaseI6recordE9run_shellEv+0x1504>
    5fd3:	83 f8 03             	cmp    $0x3,%eax
    5fd6:	0f 85 5a fb ff ff    	jne    5b36 <_ZN8DatabaseI6recordE9run_shellEv+0x1116>
    5fdc:	44 8b ac 24 e0 01 00 	mov    0x1e0(%rsp),%r13d
    5fe3:	00 
    5fe4:	45 85 ed             	test   %r13d,%r13d
    5fe7:	0f 84 0e 0b 00 00    	je     6afb <_ZN8DatabaseI6recordE9run_shellEv+0x20db>
    5fed:	41 83 fd 07          	cmp    $0x7,%r13d
    5ff1:	0f 84 04 0b 00 00    	je     6afb <_ZN8DatabaseI6recordE9run_shellEv+0x20db>
    5ff7:	4c 8d 63 18          	lea    0x18(%rbx),%r12
    5ffb:	48 63 9c 24 cc 01 00 	movslq 0x1cc(%rsp),%rbx
    6002:	00 
    6003:	8b ac 24 c8 01 00 00 	mov    0x1c8(%rsp),%ebp
    600a:	48 89 df             	mov    %rbx,%rdi
    600d:	49 89 de             	mov    %rbx,%r14
    6010:	48 89 1c 24          	mov    %rbx,(%rsp)
    6014:	e8 47 ac ff ff       	callq  c60 <_Znam@plt>
    6019:	48 8b 14 24          	mov    (%rsp),%rdx
    601d:	31 f6                	xor    %esi,%esi
    601f:	48 89 c7             	mov    %rax,%rdi
    6022:	48 89 c3             	mov    %rax,%rbx
    6025:	48 89 44 24 50       	mov    %rax,0x50(%rsp)
    602a:	89 6c 24 58          	mov    %ebp,0x58(%rsp)
    602e:	44 89 74 24 5c       	mov    %r14d,0x5c(%rsp)
    6033:	e8 68 ac ff ff       	callq  ca0 <memset@plt>
    6038:	48 8b b4 24 c0 01 00 	mov    0x1c0(%rsp),%rsi
    603f:	00 
    6040:	48 63 d5             	movslq %ebp,%rdx
    6043:	48 89 df             	mov    %rbx,%rdi
    6046:	e8 95 ac ff ff       	callq  ce0 <memcpy@plt>
    604b:	48 8b 84 24 d0 01 00 	mov    0x1d0(%rsp),%rax
    6052:	00 
    6053:	41 83 fd 01          	cmp    $0x1,%r13d
    6057:	c7 44 24 6c 03 00 00 	movl   $0x3,0x6c(%rsp)
    605e:	00 
    605f:	44 89 6c 24 70       	mov    %r13d,0x70(%rsp)
    6064:	c6 84 24 80 00 00 00 	movb   $0x1,0x80(%rsp)
    606b:	01 
    606c:	48 c7 84 24 90 00 00 	movq   $0x0,0x90(%rsp)
    6073:	00 00 00 00 00 
    6078:	48 c7 84 24 88 00 00 	movq   $0x0,0x88(%rsp)
    607f:	00 00 00 00 00 
    6084:	48 89 44 24 60       	mov    %rax,0x60(%rsp)
    6089:	8b 84 24 d8 01 00 00 	mov    0x1d8(%rsp),%eax
    6090:	89 44 24 68          	mov    %eax,0x68(%rsp)
    6094:	8b 84 24 e4 01 00 00 	mov    0x1e4(%rsp),%eax
    609b:	89 44 24 74          	mov    %eax,0x74(%rsp)
    609f:	8b 84 24 e8 01 00 00 	mov    0x1e8(%rsp),%eax
    60a6:	89 44 24 78          	mov    %eax,0x78(%rsp)
    60aa:	8b 84 24 ec 01 00 00 	mov    0x1ec(%rsp),%eax
    60b1:	89 44 24 7c          	mov    %eax,0x7c(%rsp)
    60b5:	48 8b 44 24 28       	mov    0x28(%rsp),%rax
    60ba:	48 8b 40 28          	mov    0x28(%rax),%rax
    60be:	0f 84 16 0e 00 00    	je     6eda <_ZN8DatabaseI6recordE9run_shellEv+0x24ba>
    60c4:	48 8b 70 08          	mov    0x8(%rax),%rsi
    60c8:	48 8d 54 24 50       	lea    0x50(%rsp),%rdx
    60cd:	4c 89 e7             	mov    %r12,%rdi
    60d0:	e8 cb d3 ff ff       	callq  34a0 <_ZN6db_avlI9list_nodeI6recordEE9search_gtEP8avl_nodeIS2_ERKS0_I7commandE>
    60d5:	48 8b 7c 24 50       	mov    0x50(%rsp),%rdi
    60da:	48 c7 84 24 88 00 00 	movq   $0x0,0x88(%rsp)
    60e1:	00 00 00 00 00 
    60e6:	48 c7 84 24 90 00 00 	movq   $0x0,0x90(%rsp)
    60ed:	00 00 00 00 00 
    60f2:	48 85 ff             	test   %rdi,%rdi
    60f5:	0f 84 1a ed ff ff    	je     4e15 <_ZN8DatabaseI6recordE9run_shellEv+0x3f5>
    60fb:	e8 70 ac ff ff       	callq  d70 <_ZdaPv@plt>
    6100:	e9 10 ed ff ff       	jmpq   4e15 <_ZN8DatabaseI6recordE9run_shellEv+0x3f5>
    6105:	45 85 e4             	test   %r12d,%r12d
    6108:	0f 84 32 f9 ff ff    	je     5a40 <_ZN8DatabaseI6recordE9run_shellEv+0x1020>
    610e:	41 8d 44 24 02       	lea    0x2(%r12),%eax
    6113:	4c 8b 14 24          	mov    (%rsp),%r10
    6117:	48 8d 3d 6c 1f 00 00 	lea    0x1f6c(%rip),%rdi        # 808a <_IO_stdin_used+0x58a>
    611e:	b9 02 00 00 00       	mov    $0x2,%ecx
    6123:	48 98                	cltq   
    6125:	49 8b 34 c2          	mov    (%r10,%rax,8),%rsi
    6129:	48 8d 14 c5 00 00 00 	lea    0x0(,%rax,8),%rdx
    6130:	00 
    6131:	f3 a6                	repz cmpsb %es:(%rdi),%ds:(%rsi)
    6133:	0f 97 c0             	seta   %al
    6136:	1c 00                	sbb    $0x0,%al
    6138:	84 c0                	test   %al,%al
    613a:	0f 85 00 f9 ff ff    	jne    5a40 <_ZN8DatabaseI6recordE9run_shellEv+0x1020>
    6140:	49 8b 7c 12 08       	mov    0x8(%r10,%rdx,1),%rdi
    6145:	48 8d 35 22 1f 00 00 	lea    0x1f22(%rip),%rsi        # 806e <_IO_stdin_used+0x56e>
    614c:	e8 2f ac ff ff       	callq  d80 <strcmp@plt>
    6151:	85 c0                	test   %eax,%eax
    6153:	0f 85 e7 f8 ff ff    	jne    5a40 <_ZN8DatabaseI6recordE9run_shellEv+0x1020>
    6159:	48 8b 44 24 28       	mov    0x28(%rsp),%rax
    615e:	c6 84 24 f0 01 00 00 	movb   $0x1,0x1f0(%rsp)
    6165:	01 
    6166:	48 c7 40 34 00 00 00 	movq   $0x0,0x34(%rax)
    616d:	00 
    616e:	48 8b 44 24 28       	mov    0x28(%rsp),%rax
    6173:	4c 8b ac 24 d0 01 00 	mov    0x1d0(%rsp),%r13
    617a:	00 
    617b:	ba ff ff ff ff       	mov    $0xffffffff,%edx
    6180:	4c 8b a4 24 c0 01 00 	mov    0x1c0(%rsp),%r12
    6187:	00 
    6188:	89 d3                	mov    %edx,%ebx
    618a:	48 8b 68 28          	mov    0x28(%rax),%rbp
    618e:	8b 84 24 d8 01 00 00 	mov    0x1d8(%rsp),%eax
    6195:	44 89 6c 24 10       	mov    %r13d,0x10(%rsp)
    619a:	89 04 24             	mov    %eax,(%rsp)
    619d:	31 c0                	xor    %eax,%eax
    619f:	85 d2                	test   %edx,%edx
    61a1:	0f 9f c0             	setg   %al
    61a4:	48 8b 6c c5 08       	mov    0x8(%rbp,%rax,8),%rbp
    61a9:	48 85 ed             	test   %rbp,%rbp
    61ac:	0f 84 6d 0d 00 00    	je     6f1f <_ZN8DatabaseI6recordE9run_shellEv+0x24ff>
    61b2:	4c 8b 75 00          	mov    0x0(%rbp),%r14
    61b6:	4c 89 e7             	mov    %r12,%rdi
    61b9:	49 8b 36             	mov    (%r14),%rsi
    61bc:	e8 bf ab ff ff       	callq  d80 <strcmp@plt>
    61c1:	83 f8 00             	cmp    $0x0,%eax
    61c4:	ba 01 00 00 00       	mov    $0x1,%edx
    61c9:	7f d2                	jg     619d <_ZN8DatabaseI6recordE9run_shellEv+0x177d>
    61cb:	0f 85 c1 06 00 00    	jne    6892 <_ZN8DatabaseI6recordE9run_shellEv+0x1e72>
    61d1:	8b 44 24 10          	mov    0x10(%rsp),%eax
    61d5:	41 2b 46 10          	sub    0x10(%r14),%eax
    61d9:	83 f8 00             	cmp    $0x0,%eax
    61dc:	7f bf                	jg     619d <_ZN8DatabaseI6recordE9run_shellEv+0x177d>
    61de:	0f 85 ae 06 00 00    	jne    6892 <_ZN8DatabaseI6recordE9run_shellEv+0x1e72>
    61e4:	8b 14 24             	mov    (%rsp),%edx
    61e7:	41 2b 56 18          	sub    0x18(%r14),%edx
    61eb:	0f 84 24 ec ff ff    	je     4e15 <_ZN8DatabaseI6recordE9run_shellEv+0x3f5>
    61f1:	eb aa                	jmp    619d <_ZN8DatabaseI6recordE9run_shellEv+0x177d>
    61f3:	0f 1f 44 00 00       	nopl   0x0(%rax,%rax,1)
    61f8:	f7 d0                	not    %eax
    61fa:	c1 e8 1f             	shr    $0x1f,%eax
    61fd:	85 c9                	test   %ecx,%ecx
    61ff:	8d 58 01             	lea    0x1(%rax),%ebx
    6202:	74 31                	je     6235 <_ZN8DatabaseI6recordE9run_shellEv+0x1815>
    6204:	49 8b 56 10          	mov    0x10(%r14),%rdx
    6208:	48 2b 94 24 d0 01 00 	sub    0x1d0(%rsp),%rdx
    620f:	00 
    6210:	83 f9 06             	cmp    $0x6,%ecx
    6213:	0f 87 87 0e 00 00    	ja     70a0 <_ZN8DatabaseI6recordE9run_shellEv+0x2680>
    6219:	48 8d 35 6c 1f 00 00 	lea    0x1f6c(%rip),%rsi        # 818c <_IO_stdin_used+0x68c>
    6220:	48 63 0c 8e          	movslq (%rsi,%rcx,4),%rcx
    6224:	48 01 f1             	add    %rsi,%rcx
    6227:	ff e1                	jmpq   *%rcx
    6229:	48 89 d3             	mov    %rdx,%rbx
    622c:	48 f7 d3             	not    %rbx
    622f:	48 c1 eb 3f          	shr    $0x3f,%rbx
    6233:	01 c3                	add    %eax,%ebx
    6235:	83 fb 02             	cmp    $0x2,%ebx
    6238:	0f 84 71 02 00 00    	je     64af <_ZN8DatabaseI6recordE9run_shellEv+0x1a8f>
    623e:	85 ed                	test   %ebp,%ebp
    6240:	8d 43 01             	lea    0x1(%rbx),%eax
    6243:	74 36                	je     627b <_ZN8DatabaseI6recordE9run_shellEv+0x185b>
    6245:	4c 8b bc 24 c0 01 00 	mov    0x1c0(%rsp),%r15
    624c:	00 
    624d:	4d 8b 26             	mov    (%r14),%r12
    6250:	4c 89 fe             	mov    %r15,%rsi
    6253:	4c 89 e7             	mov    %r12,%rdi
    6256:	e8 25 ab ff ff       	callq  d80 <strcmp@plt>
    625b:	83 fd 07             	cmp    $0x7,%ebp
    625e:	0f 87 97 0a 00 00    	ja     6cfb <_ZN8DatabaseI6recordE9run_shellEv+0x22db>
    6264:	48 8d 0d 3d 1f 00 00 	lea    0x1f3d(%rip),%rcx        # 81a8 <_IO_stdin_used+0x6a8>
    626b:	48 63 14 a9          	movslq (%rcx,%rbp,4),%rdx
    626f:	48 01 ca             	add    %rcx,%rdx
    6272:	ff e2                	jmpq   *%rdx
    6274:	f7 d0                	not    %eax
    6276:	c1 e8 1f             	shr    $0x1f,%eax
    6279:	01 d8                	add    %ebx,%eax
    627b:	83 f8 03             	cmp    $0x3,%eax
    627e:	0f 84 39 02 00 00    	je     64bd <_ZN8DatabaseI6recordE9run_shellEv+0x1a9d>
    6284:	83 f8 02             	cmp    $0x2,%eax
    6287:	0f 84 ea 06 00 00    	je     6977 <_ZN8DatabaseI6recordE9run_shellEv+0x1f57>
    628d:	4c 8b 74 24 38       	mov    0x38(%rsp),%r14
    6292:	4d 85 f6             	test   %r14,%r14
    6295:	0f 85 16 f7 ff ff    	jne    59b1 <_ZN8DatabaseI6recordE9run_shellEv+0xf91>
    629b:	48 8b 5c 24 28       	mov    0x28(%rsp),%rbx
    62a0:	4c 8b 7c 24 40       	mov    0x40(%rsp),%r15
    62a5:	8b 84 24 dc 01 00 00 	mov    0x1dc(%rsp),%eax
    62ac:	48 8b 53 28          	mov    0x28(%rbx),%rdx
    62b0:	48 8b 52 08          	mov    0x8(%rdx),%rdx
    62b4:	48 89 53 18          	mov    %rdx,0x18(%rbx)
    62b8:	e9 79 f8 ff ff       	jmpq   5b36 <_ZN8DatabaseI6recordE9run_shellEv+0x1116>
    62bd:	31 db                	xor    %ebx,%ebx
    62bf:	48 85 d2             	test   %rdx,%rdx
    62c2:	0f 9e c3             	setle  %bl
    62c5:	01 c3                	add    %eax,%ebx
    62c7:	e9 69 ff ff ff       	jmpq   6235 <_ZN8DatabaseI6recordE9run_shellEv+0x1815>
    62cc:	85 c0                	test   %eax,%eax
    62ce:	0f 94 c0             	sete   %al
    62d1:	0f b6 c0             	movzbl %al,%eax
    62d4:	01 d8                	add    %ebx,%eax
    62d6:	eb a3                	jmp    627b <_ZN8DatabaseI6recordE9run_shellEv+0x185b>
    62d8:	85 c0                	test   %eax,%eax
    62da:	0f 95 c0             	setne  %al
    62dd:	0f b6 c0             	movzbl %al,%eax
    62e0:	01 d8                	add    %ebx,%eax
    62e2:	eb 97                	jmp    627b <_ZN8DatabaseI6recordE9run_shellEv+0x185b>
    62e4:	4c 89 fe             	mov    %r15,%rsi
    62e7:	4c 89 e7             	mov    %r12,%rdi
    62ea:	e8 21 b0 ff ff       	callq  1310 <_Z4likePKcS0_>
    62ef:	0f b6 c0             	movzbl %al,%eax
    62f2:	01 d8                	add    %ebx,%eax
    62f4:	eb 85                	jmp    627b <_ZN8DatabaseI6recordE9run_shellEv+0x185b>
    62f6:	85 c0                	test   %eax,%eax
    62f8:	0f 9e c0             	setle  %al
    62fb:	0f b6 c0             	movzbl %al,%eax
    62fe:	01 d8                	add    %ebx,%eax
    6300:	e9 76 ff ff ff       	jmpq   627b <_ZN8DatabaseI6recordE9run_shellEv+0x185b>
    6305:	85 c0                	test   %eax,%eax
    6307:	0f 9f c0             	setg   %al
    630a:	0f b6 c0             	movzbl %al,%eax
    630d:	01 d8                	add    %ebx,%eax
    630f:	e9 67 ff ff ff       	jmpq   627b <_ZN8DatabaseI6recordE9run_shellEv+0x185b>
    6314:	31 db                	xor    %ebx,%ebx
    6316:	48 85 d2             	test   %rdx,%rdx
    6319:	0f 9f c3             	setg   %bl
    631c:	01 c3                	add    %eax,%ebx
    631e:	e9 12 ff ff ff       	jmpq   6235 <_ZN8DatabaseI6recordE9run_shellEv+0x1815>
    6323:	48 c1 ea 3f          	shr    $0x3f,%rdx
    6327:	8d 1c 10             	lea    (%rax,%rdx,1),%ebx
    632a:	e9 06 ff ff ff       	jmpq   6235 <_ZN8DatabaseI6recordE9run_shellEv+0x1815>
    632f:	85 c0                	test   %eax,%eax
    6331:	0f 95 c0             	setne  %al
    6334:	0f b6 c0             	movzbl %al,%eax
    6337:	e9 c1 fe ff ff       	jmpq   61fd <_ZN8DatabaseI6recordE9run_shellEv+0x17dd>
    633c:	85 c0                	test   %eax,%eax
    633e:	0f 94 c0             	sete   %al
    6341:	0f b6 c0             	movzbl %al,%eax
    6344:	e9 b4 fe ff ff       	jmpq   61fd <_ZN8DatabaseI6recordE9run_shellEv+0x17dd>
    6349:	31 db                	xor    %ebx,%ebx
    634b:	48 85 d2             	test   %rdx,%rdx
    634e:	0f 95 c3             	setne  %bl
    6351:	01 c3                	add    %eax,%ebx
    6353:	e9 dd fe ff ff       	jmpq   6235 <_ZN8DatabaseI6recordE9run_shellEv+0x1815>
    6358:	31 db                	xor    %ebx,%ebx
    635a:	48 85 d2             	test   %rdx,%rdx
    635d:	0f 94 c3             	sete   %bl
    6360:	01 c3                	add    %eax,%ebx
    6362:	e9 ce fe ff ff       	jmpq   6235 <_ZN8DatabaseI6recordE9run_shellEv+0x1815>
    6367:	48 8b 43 28          	mov    0x28(%rbx),%rax
    636b:	48 8b 40 08          	mov    0x8(%rax),%rax
    636f:	48 89 43 18          	mov    %rax,0x18(%rbx)
    6373:	e9 9d ea ff ff       	jmpq   4e15 <_ZN8DatabaseI6recordE9run_shellEv+0x3f5>
    6378:	85 c0                	test   %eax,%eax
    637a:	0f 9e c0             	setle  %al
    637d:	0f b6 c0             	movzbl %al,%eax
    6380:	e9 78 fe ff ff       	jmpq   61fd <_ZN8DatabaseI6recordE9run_shellEv+0x17dd>
    6385:	85 c0                	test   %eax,%eax
    6387:	0f 9f c0             	setg   %al
    638a:	0f b6 c0             	movzbl %al,%eax
    638d:	e9 6b fe ff ff       	jmpq   61fd <_ZN8DatabaseI6recordE9run_shellEv+0x17dd>
    6392:	48 8d 3d be 1c 00 00 	lea    0x1cbe(%rip),%rdi        # 8057 <_IO_stdin_used+0x557>
    6399:	b9 03 00 00 00       	mov    $0x3,%ecx
    639e:	4c 89 f6             	mov    %r14,%rsi
    63a1:	ba 02 00 00 00       	mov    $0x2,%edx
    63a6:	f3 a6                	repz cmpsb %es:(%rdi),%ds:(%rsi)
    63a8:	0f 97 c0             	seta   %al
    63ab:	1c 00                	sbb    $0x0,%al
    63ad:	84 c0                	test   %al,%al
    63af:	0f 84 93 00 00 00    	je     6448 <_ZN8DatabaseI6recordE9run_shellEv+0x1a28>
    63b5:	48 8d 3d 9e 1c 00 00 	lea    0x1c9e(%rip),%rdi        # 805a <_IO_stdin_used+0x55a>
    63bc:	b9 03 00 00 00       	mov    $0x3,%ecx
    63c1:	4c 89 f6             	mov    %r14,%rsi
    63c4:	ba 05 00 00 00       	mov    $0x5,%edx
    63c9:	f3 a6                	repz cmpsb %es:(%rdi),%ds:(%rsi)
    63cb:	0f 97 c0             	seta   %al
    63ce:	1c 00                	sbb    $0x0,%al
    63d0:	84 c0                	test   %al,%al
    63d2:	74 74                	je     6448 <_ZN8DatabaseI6recordE9run_shellEv+0x1a28>
    63d4:	48 8d 35 82 1c 00 00 	lea    0x1c82(%rip),%rsi        # 805d <_IO_stdin_used+0x55d>
    63db:	4c 89 f7             	mov    %r14,%rdi
    63de:	e8 9d a9 ff ff       	callq  d80 <strcmp@plt>
    63e3:	85 c0                	test   %eax,%eax
    63e5:	0f 84 d9 15 00 00    	je     79c4 <_ZN8DatabaseI6recordE9run_shellEv+0x2fa4>
    63eb:	48 8d 35 66 1c 00 00 	lea    0x1c66(%rip),%rsi        # 8058 <_IO_stdin_used+0x558>
    63f2:	4c 89 f7             	mov    %r14,%rdi
    63f5:	e8 86 a9 ff ff       	callq  d80 <strcmp@plt>
    63fa:	85 c0                	test   %eax,%eax
    63fc:	0f 84 d6 15 00 00    	je     79d8 <_ZN8DatabaseI6recordE9run_shellEv+0x2fb8>
    6402:	48 8d 35 57 1c 00 00 	lea    0x1c57(%rip),%rsi        # 8060 <_IO_stdin_used+0x560>
    6409:	4c 89 f7             	mov    %r14,%rdi
    640c:	e8 6f a9 ff ff       	callq  d80 <strcmp@plt>
    6411:	85 c0                	test   %eax,%eax
    6413:	0f 84 b5 15 00 00    	je     79ce <_ZN8DatabaseI6recordE9run_shellEv+0x2fae>
    6419:	48 8d 35 3b 1c 00 00 	lea    0x1c3b(%rip),%rsi        # 805b <_IO_stdin_used+0x55b>
    6420:	4c 89 f7             	mov    %r14,%rdi
    6423:	e8 58 a9 ff ff       	callq  d80 <strcmp@plt>
    6428:	85 c0                	test   %eax,%eax
    642a:	ba 01 00 00 00       	mov    $0x1,%edx
    642f:	74 17                	je     6448 <_ZN8DatabaseI6recordE9run_shellEv+0x1a28>
    6431:	48 8d 35 2a 1c 00 00 	lea    0x1c2a(%rip),%rsi        # 8062 <_IO_stdin_used+0x562>
    6438:	4c 89 f7             	mov    %r14,%rdi
    643b:	e8 40 a9 ff ff       	callq  d80 <strcmp@plt>
    6440:	83 f8 01             	cmp    $0x1,%eax
    6443:	19 d2                	sbb    %edx,%edx
    6445:	83 e2 07             	and    $0x7,%edx
    6448:	48 8b 7c 24 38       	mov    0x38(%rsp),%rdi
    644d:	31 f6                	xor    %esi,%esi
    644f:	89 94 24 e4 01 00 00 	mov    %edx,0x1e4(%rsp)
    6456:	e8 75 a8 ff ff       	callq  cd0 <strtod@plt>
    645b:	f2 48 0f 2c c0       	cvttsd2si %xmm0,%rax
    6460:	48 89 84 24 d0 01 00 	mov    %rax,0x1d0(%rsp)
    6467:	00 
    6468:	49 8b 54 24 18       	mov    0x18(%r12),%rdx
    646d:	8b 44 24 10          	mov    0x10(%rsp),%eax
    6471:	48 8d 3d ef 1b 00 00 	lea    0x1bef(%rip),%rdi        # 8067 <_IO_stdin_used+0x567>
    6478:	b9 04 00 00 00       	mov    $0x4,%ecx
    647d:	48 89 d6             	mov    %rdx,%rsi
    6480:	83 c0 03             	add    $0x3,%eax
    6483:	f3 a6                	repz cmpsb %es:(%rdi),%ds:(%rsi)
    6485:	89 44 24 30          	mov    %eax,0x30(%rsp)
    6489:	0f 97 c0             	seta   %al
    648c:	1c 00                	sbb    $0x0,%al
    648e:	84 c0                	test   %al,%al
    6490:	0f 85 8a 08 00 00    	jne    6d20 <_ZN8DatabaseI6recordE9run_shellEv+0x2300>
    6496:	c7 84 24 ec 01 00 00 	movl   $0x1,0x1ec(%rsp)
    649d:	01 00 00 00 
    64a1:	83 44 24 10 04       	addl   $0x4,0x10(%rsp)
    64a6:	49 83 c4 20          	add    $0x20,%r12
    64aa:	e9 e7 f7 ff ff       	jmpq   5c96 <_ZN8DatabaseI6recordE9run_shellEv+0x1276>
    64af:	83 bc 24 ec 01 00 00 	cmpl   $0x2,0x1ec(%rsp)
    64b6:	02 
    64b7:	0f 85 81 fd ff ff    	jne    623e <_ZN8DatabaseI6recordE9run_shellEv+0x181e>
    64bd:	48 8b 44 24 28       	mov    0x28(%rsp),%rax
    64c2:	4c 8d ac 24 a0 00 00 	lea    0xa0(%rsp),%r13
    64c9:	00 
    64ca:	4c 8d bc 24 90 0b 00 	lea    0xb90(%rsp),%r15
    64d1:	00 
    64d2:	31 ed                	xor    %ebp,%ebp
    64d4:	be ff ff ff ff       	mov    $0xffffffff,%esi
    64d9:	4c 89 6c 24 10       	mov    %r13,0x10(%rsp)
    64de:	4c 89 7c 24 30       	mov    %r15,0x30(%rsp)
    64e3:	48 8b 50 28          	mov    0x28(%rax),%rdx
    64e7:	48 8b 5a 08          	mov    0x8(%rdx),%rbx
    64eb:	48 89 58 18          	mov    %rbx,0x18(%rax)
    64ef:	49 89 dd             	mov    %rbx,%r13
    64f2:	4c 89 f3             	mov    %r14,%rbx
    64f5:	49 89 d6             	mov    %rdx,%r14
    64f8:	4c 63 e5             	movslq %ebp,%r12
    64fb:	48 89 dd             	mov    %rbx,%rbp
    64fe:	4c 89 e0             	mov    %r12,%rax
    6501:	4d 89 f4             	mov    %r14,%r12
    6504:	49 89 c6             	mov    %rax,%r14
    6507:	eb 1f                	jmp    6528 <_ZN8DatabaseI6recordE9run_shellEv+0x1b08>
    6509:	0f 1f 80 00 00 00 00 	nopl   0x0(%rax)
    6510:	b8 01 00 00 00       	mov    $0x1,%eax
    6515:	be 01 00 00 00       	mov    $0x1,%esi
    651a:	48 98                	cltq   
    651c:	4d 89 ec             	mov    %r13,%r12
    651f:	49 83 c6 01          	add    $0x1,%r14
    6523:	4d 8b 6c c5 08       	mov    0x8(%r13,%rax,8),%r13
    6528:	48 8b 5c 24 10       	mov    0x10(%rsp),%rbx
    652d:	85 f6                	test   %esi,%esi
    652f:	44 89 74 24 08       	mov    %r14d,0x8(%rsp)
    6534:	0f 9f 04 24          	setg   (%rsp)
    6538:	0f b6 04 24          	movzbl (%rsp),%eax
    653c:	4d 85 ed             	test   %r13,%r13
    653f:	45 8d 7e 01          	lea    0x1(%r14),%r15d
    6543:	4e 89 24 f3          	mov    %r12,(%rbx,%r14,8)
    6547:	48 8b 5c 24 30       	mov    0x30(%rsp),%rbx
    654c:	42 88 04 33          	mov    %al,(%rbx,%r14,1)
    6550:	0f 84 e9 02 00 00    	je     683f <_ZN8DatabaseI6recordE9run_shellEv+0x1e1f>
    6556:	49 8b 5d 00          	mov    0x0(%r13),%rbx
    655a:	48 8b 7d 00          	mov    0x0(%rbp),%rdi
    655e:	48 8b 33             	mov    (%rbx),%rsi
    6561:	e8 1a a8 ff ff       	callq  d80 <strcmp@plt>
    6566:	83 f8 00             	cmp    $0x0,%eax
    6569:	7f a5                	jg     6510 <_ZN8DatabaseI6recordE9run_shellEv+0x1af0>
    656b:	0f 85 74 02 00 00    	jne    67e5 <_ZN8DatabaseI6recordE9run_shellEv+0x1dc5>
    6571:	48 8b 75 10          	mov    0x10(%rbp),%rsi
    6575:	2b 73 10             	sub    0x10(%rbx),%esi
    6578:	83 fe 00             	cmp    $0x0,%esi
    657b:	7f 93                	jg     6510 <_ZN8DatabaseI6recordE9run_shellEv+0x1af0>
    657d:	0f 85 4e 0b 00 00    	jne    70d1 <_ZN8DatabaseI6recordE9run_shellEv+0x26b1>
    6583:	44 89 f8             	mov    %r15d,%eax
    6586:	49 89 df             	mov    %rbx,%r15
    6589:	48 89 eb             	mov    %rbp,%rbx
    658c:	8b 73 18             	mov    0x18(%rbx),%esi
    658f:	41 2b 77 18          	sub    0x18(%r15),%esi
    6593:	48 63 e8             	movslq %eax,%rbp
    6596:	83 fe 00             	cmp    $0x0,%esi
    6599:	0f 85 12 14 00 00    	jne    79b1 <_ZN8DatabaseI6recordE9run_shellEv+0x2f91>
    659f:	49 89 de             	mov    %rbx,%r14
    65a2:	4c 89 eb             	mov    %r13,%rbx
    65a5:	4c 89 e2             	mov    %r12,%rdx
    65a8:	48 8b 73 10          	mov    0x10(%rbx),%rsi
    65ac:	4c 8b 6c 24 10       	mov    0x10(%rsp),%r13
    65b1:	4c 8b 7c 24 30       	mov    0x30(%rsp),%r15
    65b6:	0f b6 3c 24          	movzbl (%rsp),%edi
    65ba:	48 85 f6             	test   %rsi,%rsi
    65bd:	0f 84 f5 0a 00 00    	je     70b8 <_ZN8DatabaseI6recordE9run_shellEv+0x2698>
    65c3:	48 8b 46 08          	mov    0x8(%rsi),%rax
    65c7:	8b 4c 24 08          	mov    0x8(%rsp),%ecx
    65cb:	4c 8b 43 08          	mov    0x8(%rbx),%r8
    65cf:	48 85 c0             	test   %rax,%rax
    65d2:	44 8d 61 02          	lea    0x2(%rcx),%r12d
    65d6:	8b 4b 18             	mov    0x18(%rbx),%ecx
    65d9:	0f 84 fb 06 00 00    	je     6cda <_ZN8DatabaseI6recordE9run_shellEv+0x22ba>
    65df:	8b 7c 24 08          	mov    0x8(%rsp),%edi
    65e3:	4c 8d 94 24 8f 0b 00 	lea    0xb8f(%rsp),%r10
    65ea:	00 
    65eb:	8d 57 03             	lea    0x3(%rdi),%edx
    65ee:	49 63 fc             	movslq %r12d,%rdi
    65f1:	48 63 d2             	movslq %edx,%rdx
    65f4:	48 29 d7             	sub    %rdx,%rdi
    65f7:	4d 8d 5c fd 00       	lea    0x0(%r13,%rdi,8),%r11
    65fc:	48 89 f7             	mov    %rsi,%rdi
    65ff:	eb 06                	jmp    6607 <_ZN8DatabaseI6recordE9run_shellEv+0x1be7>
    6601:	48 89 c7             	mov    %rax,%rdi
    6604:	4c 89 c8             	mov    %r9,%rax
    6607:	4c 8b 48 08          	mov    0x8(%rax),%r9
    660b:	41 c6 04 12 00       	movb   $0x0,(%r10,%rdx,1)
    6610:	41 89 d4             	mov    %edx,%r12d
    6613:	49 89 3c d3          	mov    %rdi,(%r11,%rdx,8)
    6617:	48 83 c2 01          	add    $0x1,%rdx
    661b:	4d 85 c9             	test   %r9,%r9
    661e:	75 e1                	jne    6601 <_ZN8DatabaseI6recordE9run_shellEv+0x1be1>
    6620:	48 8b 50 10          	mov    0x10(%rax),%rdx
    6624:	4c 89 40 08          	mov    %r8,0x8(%rax)
    6628:	48 89 57 08          	mov    %rdx,0x8(%rdi)
    662c:	89 48 18             	mov    %ecx,0x18(%rax)
    662f:	48 63 4c 24 08       	movslq 0x8(%rsp),%rcx
    6634:	48 89 70 10          	mov    %rsi,0x10(%rax)
    6638:	0f b6 b4 0c 90 0b 00 	movzbl 0xb90(%rsp,%rcx,1),%esi
    663f:	00 
    6640:	48 8b 94 cc a0 00 00 	mov    0xa0(%rsp,%rcx,8),%rdx
    6647:	00 
    6648:	c6 84 2c 90 0b 00 00 	movb   $0x1,0xb90(%rsp,%rbp,1)
    664f:	01 
    6650:	48 89 84 ec a0 00 00 	mov    %rax,0xa0(%rsp,%rbp,8)
    6657:	00 
    6658:	48 89 44 f2 08       	mov    %rax,0x8(%rdx,%rsi,8)
    665d:	be 20 00 00 00       	mov    $0x20,%esi
    6662:	41 83 ec 01          	sub    $0x1,%r12d
    6666:	48 89 df             	mov    %rbx,%rdi
    6669:	e8 c2 a6 ff ff       	callq  d30 <_ZdlPvm@plt>
    666e:	49 63 f4             	movslq %r12d,%rsi
    6671:	45 89 e4             	mov    %r12d,%r12d
    6674:	49 89 f1             	mov    %rsi,%r9
    6677:	4d 29 e1             	sub    %r12,%r9
    667a:	eb 1c                	jmp    6698 <_ZN8DatabaseI6recordE9run_shellEv+0x1c78>
    667c:	83 c2 01             	add    $0x1,%edx
    667f:	83 fa 01             	cmp    $0x1,%edx
    6682:	89 50 18             	mov    %edx,0x18(%rax)
    6685:	0f 84 da 00 00 00    	je     6765 <_ZN8DatabaseI6recordE9run_shellEv+0x1d45>
    668b:	83 fa 02             	cmp    $0x2,%edx
    668e:	0f 84 85 00 00 00    	je     6719 <_ZN8DatabaseI6recordE9run_shellEv+0x1cf9>
    6694:	48 83 ee 01          	sub    $0x1,%rsi
    6698:	49 39 f1             	cmp    %rsi,%r9
    669b:	0f 84 c4 00 00 00    	je     6765 <_ZN8DatabaseI6recordE9run_shellEv+0x1d45>
    66a1:	41 80 3c 37 00       	cmpb   $0x0,(%r15,%rsi,1)
    66a6:	49 8b 44 f5 00       	mov    0x0(%r13,%rsi,8),%rax
    66ab:	8b 50 18             	mov    0x18(%rax),%edx
    66ae:	74 cc                	je     667c <_ZN8DatabaseI6recordE9run_shellEv+0x1c5c>
    66b0:	83 ea 01             	sub    $0x1,%edx
    66b3:	83 fa ff             	cmp    $0xffffffff,%edx
    66b6:	89 50 18             	mov    %edx,0x18(%rax)
    66b9:	0f 84 a6 00 00 00    	je     6765 <_ZN8DatabaseI6recordE9run_shellEv+0x1d45>
    66bf:	83 fa fe             	cmp    $0xfffffffe,%edx
    66c2:	75 d0                	jne    6694 <_ZN8DatabaseI6recordE9run_shellEv+0x1c74>
    66c4:	48 8b 50 08          	mov    0x8(%rax),%rdx
    66c8:	8d 7e ff             	lea    -0x1(%rsi),%edi
    66cb:	48 63 ff             	movslq %edi,%rdi
    66ce:	44 8b 42 18          	mov    0x18(%rdx),%r8d
    66d2:	4c 8b 94 fc a0 00 00 	mov    0xa0(%rsp,%rdi,8),%r10
    66d9:	00 
    66da:	48 8b 4a 10          	mov    0x10(%rdx),%rcx
    66de:	0f b6 bc 3c 90 0b 00 	movzbl 0xb90(%rsp,%rdi,1),%edi
    66e5:	00 
    66e6:	41 83 f8 01          	cmp    $0x1,%r8d
    66ea:	0f 84 01 01 00 00    	je     67f1 <_ZN8DatabaseI6recordE9run_shellEv+0x1dd1>
    66f0:	45 85 c0             	test   %r8d,%r8d
    66f3:	48 89 48 08          	mov    %rcx,0x8(%rax)
    66f7:	48 89 42 10          	mov    %rax,0x10(%rdx)
    66fb:	49 89 54 fa 08       	mov    %rdx,0x8(%r10,%rdi,8)
    6700:	0f 84 98 12 00 00    	je     799e <_ZN8DatabaseI6recordE9run_shellEv+0x2f7e>
    6706:	c7 40 18 00 00 00 00 	movl   $0x0,0x18(%rax)
    670d:	c7 42 18 00 00 00 00 	movl   $0x0,0x18(%rdx)
    6714:	e9 7b ff ff ff       	jmpq   6694 <_ZN8DatabaseI6recordE9run_shellEv+0x1c74>
    6719:	48 8b 50 10          	mov    0x10(%rax),%rdx
    671d:	8d 7e ff             	lea    -0x1(%rsi),%edi
    6720:	48 63 ff             	movslq %edi,%rdi
    6723:	44 8b 42 18          	mov    0x18(%rdx),%r8d
    6727:	4c 8b 94 fc a0 00 00 	mov    0xa0(%rsp,%rdi,8),%r10
    672e:	00 
    672f:	48 8b 4a 08          	mov    0x8(%rdx),%rcx
    6733:	0f b6 bc 3c 90 0b 00 	movzbl 0xb90(%rsp,%rdi,1),%edi
    673a:	00 
    673b:	41 83 f8 ff          	cmp    $0xffffffff,%r8d
    673f:	0f 84 07 01 00 00    	je     684c <_ZN8DatabaseI6recordE9run_shellEv+0x1e2c>
    6745:	45 85 c0             	test   %r8d,%r8d
    6748:	48 89 48 10          	mov    %rcx,0x10(%rax)
    674c:	48 89 42 08          	mov    %rax,0x8(%rdx)
    6750:	49 89 54 fa 08       	mov    %rdx,0x8(%r10,%rdi,8)
    6755:	75 af                	jne    6706 <_ZN8DatabaseI6recordE9run_shellEv+0x1ce6>
    6757:	c7 42 18 ff ff ff ff 	movl   $0xffffffff,0x18(%rdx)
    675e:	c7 40 18 01 00 00 00 	movl   $0x1,0x18(%rax)
    6765:	48 8b 5c 24 28       	mov    0x28(%rsp),%rbx
    676a:	48 8b 43 28          	mov    0x28(%rbx),%rax
    676e:	83 6b 30 01          	subl   $0x1,0x30(%rbx)
    6772:	48 8b 40 08          	mov    0x8(%rax),%rax
    6776:	48 89 43 18          	mov    %rax,0x18(%rbx)
    677a:	48 89 d8             	mov    %rbx,%rax
    677d:	48 83 38 00          	cmpq   $0x0,(%rax)
    6781:	0f 84 06 fb ff ff    	je     628d <_ZN8DatabaseI6recordE9run_shellEv+0x186d>
    6787:	49 8b 56 28          	mov    0x28(%r14),%rdx
    678b:	49 8b 46 20          	mov    0x20(%r14),%rax
    678f:	48 85 d2             	test   %rdx,%rdx
    6792:	0f 84 0f 01 00 00    	je     68a7 <_ZN8DatabaseI6recordE9run_shellEv+0x1e87>
    6798:	48 89 42 20          	mov    %rax,0x20(%rdx)
    679c:	49 8b 46 20          	mov    0x20(%r14),%rax
    67a0:	48 85 c0             	test   %rax,%rax
    67a3:	0f 84 f0 00 00 00    	je     6899 <_ZN8DatabaseI6recordE9run_shellEv+0x1e79>
    67a9:	48 89 50 28          	mov    %rdx,0x28(%rax)
    67ad:	48 8b 44 24 28       	mov    0x28(%rsp),%rax
    67b2:	49 8b 3e             	mov    (%r14),%rdi
    67b5:	83 68 10 01          	subl   $0x1,0x10(%rax)
    67b9:	49 c7 46 20 00 00 00 	movq   $0x0,0x20(%r14)
    67c0:	00 
    67c1:	49 c7 46 28 00 00 00 	movq   $0x0,0x28(%r14)
    67c8:	00 
    67c9:	48 85 ff             	test   %rdi,%rdi
    67cc:	74 05                	je     67d3 <_ZN8DatabaseI6recordE9run_shellEv+0x1db3>
    67ce:	e8 9d a5 ff ff       	callq  d70 <_ZdaPv@plt>
    67d3:	be 30 00 00 00       	mov    $0x30,%esi
    67d8:	4c 89 f7             	mov    %r14,%rdi
    67db:	e8 50 a5 ff ff       	callq  d30 <_ZdlPvm@plt>
    67e0:	e9 a8 fa ff ff       	jmpq   628d <_ZN8DatabaseI6recordE9run_shellEv+0x186d>
    67e5:	31 c0                	xor    %eax,%eax
    67e7:	be ff ff ff ff       	mov    $0xffffffff,%esi
    67ec:	e9 29 fd ff ff       	jmpq   651a <_ZN8DatabaseI6recordE9run_shellEv+0x1afa>
    67f1:	4c 8b 41 08          	mov    0x8(%rcx),%r8
    67f5:	4c 89 42 10          	mov    %r8,0x10(%rdx)
    67f9:	4c 8b 41 10          	mov    0x10(%rcx),%r8
    67fd:	48 89 51 08          	mov    %rdx,0x8(%rcx)
    6801:	4c 89 40 08          	mov    %r8,0x8(%rax)
    6805:	44 8b 41 18          	mov    0x18(%rcx),%r8d
    6809:	48 89 41 10          	mov    %rax,0x10(%rcx)
    680d:	41 83 f8 ff          	cmp    $0xffffffff,%r8d
    6811:	0f 84 e0 08 00 00    	je     70f7 <_ZN8DatabaseI6recordE9run_shellEv+0x26d7>
    6817:	45 85 c0             	test   %r8d,%r8d
    681a:	0f 84 6a 01 00 00    	je     698a <_ZN8DatabaseI6recordE9run_shellEv+0x1f6a>
    6820:	c7 42 18 ff ff ff ff 	movl   $0xffffffff,0x18(%rdx)
    6827:	c7 40 18 00 00 00 00 	movl   $0x0,0x18(%rax)
    682e:	c7 41 18 00 00 00 00 	movl   $0x0,0x18(%rcx)
    6835:	49 89 4c fa 08       	mov    %rcx,0x8(%r10,%rdi,8)
    683a:	e9 55 fe ff ff       	jmpq   6694 <_ZN8DatabaseI6recordE9run_shellEv+0x1c74>
    683f:	49 89 ee             	mov    %rbp,%r14
    6842:	48 8b 44 24 28       	mov    0x28(%rsp),%rax
    6847:	e9 31 ff ff ff       	jmpq   677d <_ZN8DatabaseI6recordE9run_shellEv+0x1d5d>
    684c:	4c 8b 59 10          	mov    0x10(%rcx),%r11
    6850:	4c 89 5a 08          	mov    %r11,0x8(%rdx)
    6854:	4c 8b 59 08          	mov    0x8(%rcx),%r11
    6858:	48 89 51 10          	mov    %rdx,0x10(%rcx)
    685c:	4c 89 58 10          	mov    %r11,0x10(%rax)
    6860:	44 8b 59 18          	mov    0x18(%rcx),%r11d
    6864:	48 89 41 08          	mov    %rax,0x8(%rcx)
    6868:	41 83 fb 01          	cmp    $0x1,%r11d
    686c:	0f 84 36 08 00 00    	je     70a8 <_ZN8DatabaseI6recordE9run_shellEv+0x2688>
    6872:	45 85 db             	test   %r11d,%r11d
    6875:	0f 84 0f 01 00 00    	je     698a <_ZN8DatabaseI6recordE9run_shellEv+0x1f6a>
    687b:	c7 42 18 01 00 00 00 	movl   $0x1,0x18(%rdx)
    6882:	c7 40 18 00 00 00 00 	movl   $0x0,0x18(%rax)
    6889:	eb a3                	jmp    682e <_ZN8DatabaseI6recordE9run_shellEv+0x1e0e>
    688b:	31 ed                	xor    %ebp,%ebp
    688d:	e9 d4 e6 ff ff       	jmpq   4f66 <_ZN8DatabaseI6recordE9run_shellEv+0x546>
    6892:	89 da                	mov    %ebx,%edx
    6894:	e9 04 f9 ff ff       	jmpq   619d <_ZN8DatabaseI6recordE9run_shellEv+0x177d>
    6899:	48 8b 44 24 28       	mov    0x28(%rsp),%rax
    689e:	48 89 50 08          	mov    %rdx,0x8(%rax)
    68a2:	e9 0b ff ff ff       	jmpq   67b2 <_ZN8DatabaseI6recordE9run_shellEv+0x1d92>
    68a7:	48 8b 5c 24 28       	mov    0x28(%rsp),%rbx
    68ac:	48 89 03             	mov    %rax,(%rbx)
    68af:	e9 ec fe ff ff       	jmpq   67a0 <_ZN8DatabaseI6recordE9run_shellEv+0x1d80>
    68b4:	48 89 ef             	mov    %rbp,%rdi
    68b7:	e8 d4 a3 ff ff       	callq  c90 <strlen@plt>
    68bc:	44 8b a4 24 cc 01 00 	mov    0x1cc(%rsp),%r12d
    68c3:	00 
    68c4:	83 c0 01             	add    $0x1,%eax
    68c7:	4c 8b b4 24 c0 01 00 	mov    0x1c0(%rsp),%r14
    68ce:	00 
    68cf:	89 c2                	mov    %eax,%edx
    68d1:	89 84 24 c8 01 00 00 	mov    %eax,0x1c8(%rsp)
    68d8:	44 29 e2             	sub    %r12d,%edx
    68db:	85 d2                	test   %edx,%edx
    68dd:	0f 8e 84 00 00 00    	jle    6967 <_ZN8DatabaseI6recordE9run_shellEv+0x1f47>
    68e3:	41 81 fc c8 00 00 00 	cmp    $0xc8,%r12d
    68ea:	b8 0a 00 00 00       	mov    $0xa,%eax
    68ef:	7e 15                	jle    6906 <_ZN8DatabaseI6recordE9run_shellEv+0x1ee6>
    68f1:	66 0f ef c0          	pxor   %xmm0,%xmm0
    68f5:	f2 41 0f 2a c4       	cvtsi2sd %r12d,%xmm0
    68fa:	f2 0f 59 05 a6 1a 00 	mulsd  0x1aa6(%rip),%xmm0        # 83a8 <_ZZ4likePKcS0_E19__PRETTY_FUNCTION__+0x28>
    6901:	00 
    6902:	f2 0f 2c c0          	cvttsd2si %xmm0,%eax
    6906:	39 c2                	cmp    %eax,%edx
    6908:	0f 4d c2             	cmovge %edx,%eax
    690b:	44 01 e0             	add    %r12d,%eax
    690e:	48 63 c8             	movslq %eax,%rcx
    6911:	89 44 24 10          	mov    %eax,0x10(%rsp)
    6915:	48 89 cf             	mov    %rcx,%rdi
    6918:	48 89 4c 24 30       	mov    %rcx,0x30(%rsp)
    691d:	e8 3e a3 ff ff       	callq  c60 <_Znam@plt>
    6922:	48 8b 54 24 30       	mov    0x30(%rsp),%rdx
    6927:	31 f6                	xor    %esi,%esi
    6929:	48 89 c7             	mov    %rax,%rdi
    692c:	e8 6f a3 ff ff       	callq  ca0 <memset@plt>
    6931:	4c 89 f6             	mov    %r14,%rsi
    6934:	49 63 d4             	movslq %r12d,%rdx
    6937:	48 89 c7             	mov    %rax,%rdi
    693a:	48 89 44 24 30       	mov    %rax,0x30(%rsp)
    693f:	e8 9c a3 ff ff       	callq  ce0 <memcpy@plt>
    6944:	4c 89 f7             	mov    %r14,%rdi
    6947:	e8 24 a4 ff ff       	callq  d70 <_ZdaPv@plt>
    694c:	48 8b 4c 24 30       	mov    0x30(%rsp),%rcx
    6951:	8b 44 24 10          	mov    0x10(%rsp),%eax
    6955:	48 89 8c 24 c0 01 00 	mov    %rcx,0x1c0(%rsp)
    695c:	00 
    695d:	89 84 24 cc 01 00 00 	mov    %eax,0x1cc(%rsp)
    6964:	49 89 ce             	mov    %rcx,%r14
    6967:	48 89 ee             	mov    %rbp,%rsi
    696a:	4c 89 f7             	mov    %r14,%rdi
    696d:	e8 8e a3 ff ff       	callq  d00 <strcpy@plt>
    6972:	e9 51 f6 ff ff       	jmpq   5fc8 <_ZN8DatabaseI6recordE9run_shellEv+0x15a8>
    6977:	83 bc 24 ec 01 00 00 	cmpl   $0x2,0x1ec(%rsp)
    697e:	02 
    697f:	0f 85 08 f9 ff ff    	jne    628d <_ZN8DatabaseI6recordE9run_shellEv+0x186d>
    6985:	e9 33 fb ff ff       	jmpq   64bd <_ZN8DatabaseI6recordE9run_shellEv+0x1a9d>
    698a:	c7 40 18 00 00 00 00 	movl   $0x0,0x18(%rax)
    6991:	c7 42 18 00 00 00 00 	movl   $0x0,0x18(%rdx)
    6998:	e9 91 fe ff ff       	jmpq   682e <_ZN8DatabaseI6recordE9run_shellEv+0x1e0e>
    699d:	48 8b 04 24          	mov    (%rsp),%rax
    69a1:	c7 44 24 10 00 00 00 	movl   $0x0,0x10(%rsp)
    69a8:	00 
    69a9:	4c 8d 70 10          	lea    0x10(%rax),%r14
    69ad:	4d 8b 26             	mov    (%r14),%r12
    69b0:	8b 44 24 10          	mov    0x10(%rsp),%eax
    69b4:	b9 04 00 00 00       	mov    $0x4,%ecx
    69b9:	4c 89 ef             	mov    %r13,%rdi
    69bc:	4c 89 e6             	mov    %r12,%rsi
    69bf:	89 44 24 38          	mov    %eax,0x38(%rsp)
    69c3:	f3 a6                	repz cmpsb %es:(%rdi),%ds:(%rsi)
    69c5:	0f 97 c0             	seta   %al
    69c8:	1c 00                	sbb    $0x0,%al
    69ca:	84 c0                	test   %al,%al
    69cc:	0f 84 0b 01 00 00    	je     6add <_ZN8DatabaseI6recordE9run_shellEv+0x20bd>
    69d2:	48 8b 44 24 18       	mov    0x18(%rsp),%rax
    69d7:	48 83 c0 6c          	add    $0x6c,%rax
    69db:	48 89 44 24 30       	mov    %rax,0x30(%rsp)
    69e0:	48 89 c5             	mov    %rax,%rbp
    69e3:	eb 1a                	jmp    69ff <_ZN8DatabaseI6recordE9run_shellEv+0x1fdf>
    69e5:	0f 1f 00             	nopl   (%rax)
    69e8:	48 89 ef             	mov    %rbp,%rdi
    69eb:	4c 89 e6             	mov    %r12,%rsi
    69ee:	48 83 c5 28          	add    $0x28,%rbp
    69f2:	e8 89 a3 ff ff       	callq  d80 <strcmp@plt>
    69f7:	85 c0                	test   %eax,%eax
    69f9:	0f 84 de 00 00 00    	je     6add <_ZN8DatabaseI6recordE9run_shellEv+0x20bd>
    69ff:	b9 04 00 00 00       	mov    $0x4,%ecx
    6a04:	48 89 ee             	mov    %rbp,%rsi
    6a07:	4c 89 ef             	mov    %r13,%rdi
    6a0a:	f3 a6                	repz cmpsb %es:(%rdi),%ds:(%rsi)
    6a0c:	0f 97 c0             	seta   %al
    6a0f:	1c 00                	sbb    $0x0,%al
    6a11:	84 c0                	test   %al,%al
    6a13:	75 d3                	jne    69e8 <_ZN8DatabaseI6recordE9run_shellEv+0x1fc8>
    6a15:	49 8b 6e 08          	mov    0x8(%r14),%rbp
    6a19:	b9 04 00 00 00       	mov    $0x4,%ecx
    6a1e:	4c 89 ef             	mov    %r13,%rdi
    6a21:	48 89 ee             	mov    %rbp,%rsi
    6a24:	f3 a6                	repz cmpsb %es:(%rdi),%ds:(%rsi)
    6a26:	0f 97 c0             	seta   %al
    6a29:	1c 00                	sbb    $0x0,%al
    6a2b:	84 c0                	test   %al,%al
    6a2d:	0f 84 aa 00 00 00    	je     6add <_ZN8DatabaseI6recordE9run_shellEv+0x20bd>
    6a33:	49 8b 76 10          	mov    0x10(%r14),%rsi
    6a37:	b9 04 00 00 00       	mov    $0x4,%ecx
    6a3c:	4c 89 ef             	mov    %r13,%rdi
    6a3f:	48 89 74 24 08       	mov    %rsi,0x8(%rsp)
    6a44:	f3 a6                	repz cmpsb %es:(%rdi),%ds:(%rsi)
    6a46:	0f 97 c0             	seta   %al
    6a49:	1c 00                	sbb    $0x0,%al
    6a4b:	84 c0                	test   %al,%al
    6a4d:	75 1c                	jne    6a6b <_ZN8DatabaseI6recordE9run_shellEv+0x204b>
    6a4f:	e9 89 00 00 00       	jmpq   6add <_ZN8DatabaseI6recordE9run_shellEv+0x20bd>
    6a54:	48 8b 7c 24 30       	mov    0x30(%rsp),%rdi
    6a59:	4c 89 e6             	mov    %r12,%rsi
    6a5c:	e8 1f a3 ff ff       	callq  d80 <strcmp@plt>
    6a61:	48 83 44 24 30 28    	addq   $0x28,0x30(%rsp)
    6a67:	85 c0                	test   %eax,%eax
    6a69:	74 72                	je     6add <_ZN8DatabaseI6recordE9run_shellEv+0x20bd>
    6a6b:	48 8b 74 24 30       	mov    0x30(%rsp),%rsi
    6a70:	b9 04 00 00 00       	mov    $0x4,%ecx
    6a75:	4c 89 ef             	mov    %r13,%rdi
    6a78:	f3 a6                	repz cmpsb %es:(%rdi),%ds:(%rsi)
    6a7a:	0f 97 c0             	seta   %al
    6a7d:	1c 00                	sbb    $0x0,%al
    6a7f:	84 c0                	test   %al,%al
    6a81:	75 d1                	jne    6a54 <_ZN8DatabaseI6recordE9run_shellEv+0x2034>
    6a83:	48 8d 3d 0d 16 00 00 	lea    0x160d(%rip),%rdi        # 8097 <_IO_stdin_used+0x597>
    6a8a:	b9 05 00 00 00       	mov    $0x5,%ecx
    6a8f:	4c 89 e6             	mov    %r12,%rsi
    6a92:	f3 a6                	repz cmpsb %es:(%rdi),%ds:(%rsi)
    6a94:	0f 97 c0             	seta   %al
    6a97:	1c 00                	sbb    $0x0,%al
    6a99:	84 c0                	test   %al,%al
    6a9b:	0f 84 90 0b 00 00    	je     7631 <_ZN8DatabaseI6recordE9run_shellEv+0x2c11>
    6aa1:	48 8d 3d 99 15 00 00 	lea    0x1599(%rip),%rdi        # 8041 <_IO_stdin_used+0x541>
    6aa8:	b9 06 00 00 00       	mov    $0x6,%ecx
    6aad:	4c 89 e6             	mov    %r12,%rsi
    6ab0:	f3 a6                	repz cmpsb %es:(%rdi),%ds:(%rsi)
    6ab2:	0f 97 c0             	seta   %al
    6ab5:	1c 00                	sbb    $0x0,%al
    6ab7:	84 c0                	test   %al,%al
    6ab9:	0f 84 90 0a 00 00    	je     754f <_ZN8DatabaseI6recordE9run_shellEv+0x2b2f>
    6abf:	48 8d 3d 81 15 00 00 	lea    0x1581(%rip),%rdi        # 8047 <_IO_stdin_used+0x547>
    6ac6:	b9 06 00 00 00       	mov    $0x6,%ecx
    6acb:	4c 89 e6             	mov    %r12,%rsi
    6ace:	f3 a6                	repz cmpsb %es:(%rdi),%ds:(%rsi)
    6ad0:	0f 97 c0             	seta   %al
    6ad3:	1c 00                	sbb    $0x0,%al
    6ad5:	84 c0                	test   %al,%al
    6ad7:	0f 84 11 09 00 00    	je     73ee <_ZN8DatabaseI6recordE9run_shellEv+0x29ce>
    6add:	8b 7c 24 10          	mov    0x10(%rsp),%edi
    6ae1:	85 ff                	test   %edi,%edi
    6ae3:	0f 84 57 ef ff ff    	je     5a40 <_ZN8DatabaseI6recordE9run_shellEv+0x1020>
    6ae9:	8b 44 24 38          	mov    0x38(%rsp),%eax
    6aed:	83 c0 02             	add    $0x2,%eax
    6af0:	48 98                	cltq   
    6af2:	48 c1 e0 03          	shl    $0x3,%rax
    6af6:	e9 67 f1 ff ff       	jmpq   5c62 <_ZN8DatabaseI6recordE9run_shellEv+0x1242>
    6afb:	48 8b 44 24 28       	mov    0x28(%rsp),%rax
    6b00:	48 8b 18             	mov    (%rax),%rbx
    6b03:	48 85 db             	test   %rbx,%rbx
    6b06:	0f 84 09 e3 ff ff    	je     4e15 <_ZN8DatabaseI6recordE9run_shellEv+0x3f5>
    6b0c:	8b ac 24 e8 01 00 00 	mov    0x1e8(%rsp),%ebp
    6b13:	44 8b a4 24 e4 01 00 	mov    0x1e4(%rsp),%r12d
    6b1a:	00 
    6b1b:	4c 8d 35 c2 16 00 00 	lea    0x16c2(%rip),%r14        # 81e4 <_IO_stdin_used+0x6e4>
    6b22:	42 8d 44 2d 00       	lea    0x0(%rbp,%r13,1),%eax
    6b27:	44 01 e0             	add    %r12d,%eax
    6b2a:	89 04 24             	mov    %eax,(%rsp)
    6b2d:	8b 04 24             	mov    (%rsp),%eax
    6b30:	85 c0                	test   %eax,%eax
    6b32:	0f 84 53 01 00 00    	je     6c8b <_ZN8DatabaseI6recordE9run_shellEv+0x226b>
    6b38:	85 ed                	test   %ebp,%ebp
    6b3a:	b8 01 00 00 00       	mov    $0x1,%eax
    6b3f:	74 2a                	je     6b6b <_ZN8DatabaseI6recordE9run_shellEv+0x214b>
    6b41:	8b 43 18             	mov    0x18(%rbx),%eax
    6b44:	2b 84 24 d8 01 00 00 	sub    0x1d8(%rsp),%eax
    6b4b:	83 fd 06             	cmp    $0x6,%ebp
    6b4e:	0f 87 90 08 00 00    	ja     73e4 <_ZN8DatabaseI6recordE9run_shellEv+0x29c4>
    6b54:	48 8d 0d 6d 16 00 00 	lea    0x166d(%rip),%rcx        # 81c8 <_IO_stdin_used+0x6c8>
    6b5b:	89 ea                	mov    %ebp,%edx
    6b5d:	48 63 14 91          	movslq (%rcx,%rdx,4),%rdx
    6b61:	48 01 ca             	add    %rcx,%rdx
    6b64:	ff e2                	jmpq   *%rdx
    6b66:	f7 d0                	not    %eax
    6b68:	c1 e8 1f             	shr    $0x1f,%eax
    6b6b:	45 85 e4             	test   %r12d,%r12d
    6b6e:	8d 50 01             	lea    0x1(%rax),%edx
    6b71:	74 2b                	je     6b9e <_ZN8DatabaseI6recordE9run_shellEv+0x217e>
    6b73:	48 8b 53 10          	mov    0x10(%rbx),%rdx
    6b77:	48 2b 94 24 d0 01 00 	sub    0x1d0(%rsp),%rdx
    6b7e:	00 
    6b7f:	41 83 fc 06          	cmp    $0x6,%r12d
    6b83:	0f 87 49 01 00 00    	ja     6cd2 <_ZN8DatabaseI6recordE9run_shellEv+0x22b2>
    6b89:	44 89 e1             	mov    %r12d,%ecx
    6b8c:	49 63 0c 8e          	movslq (%r14,%rcx,4),%rcx
    6b90:	4c 01 f1             	add    %r14,%rcx
    6b93:	ff e1                	jmpq   *%rcx
    6b95:	48 f7 d2             	not    %rdx
    6b98:	48 c1 ea 3f          	shr    $0x3f,%rdx
    6b9c:	01 c2                	add    %eax,%edx
    6b9e:	83 fa 02             	cmp    $0x2,%edx
    6ba1:	0f 84 1b 01 00 00    	je     6cc2 <_ZN8DatabaseI6recordE9run_shellEv+0x22a2>
    6ba7:	45 85 ed             	test   %r13d,%r13d
    6baa:	8d 42 01             	lea    0x1(%rdx),%eax
    6bad:	89 54 24 30          	mov    %edx,0x30(%rsp)
    6bb1:	0f 84 c0 00 00 00    	je     6c77 <_ZN8DatabaseI6recordE9run_shellEv+0x2257>
    6bb7:	4c 8b 8c 24 c0 01 00 	mov    0x1c0(%rsp),%r9
    6bbe:	00 
    6bbf:	4c 8b 03             	mov    (%rbx),%r8
    6bc2:	4c 89 ce             	mov    %r9,%rsi
    6bc5:	4c 89 c7             	mov    %r8,%rdi
    6bc8:	4c 89 4c 24 10       	mov    %r9,0x10(%rsp)
    6bcd:	4c 89 44 24 08       	mov    %r8,0x8(%rsp)
    6bd2:	e8 a9 a1 ff ff       	callq  d80 <strcmp@plt>
    6bd7:	41 83 fd 07          	cmp    $0x7,%r13d
    6bdb:	8b 54 24 30          	mov    0x30(%rsp),%edx
    6bdf:	0f 87 f7 07 00 00    	ja     73dc <_ZN8DatabaseI6recordE9run_shellEv+0x29bc>
    6be5:	48 8d 35 14 16 00 00 	lea    0x1614(%rip),%rsi        # 8200 <_IO_stdin_used+0x700>
    6bec:	44 89 e9             	mov    %r13d,%ecx
    6bef:	4c 8b 44 24 08       	mov    0x8(%rsp),%r8
    6bf4:	4c 8b 4c 24 10       	mov    0x10(%rsp),%r9
    6bf9:	48 63 0c 8e          	movslq (%rsi,%rcx,4),%rcx
    6bfd:	48 01 f1             	add    %rsi,%rcx
    6c00:	ff e1                	jmpq   *%rcx
    6c02:	48 85 d2             	test   %rdx,%rdx
    6c05:	0f 95 c2             	setne  %dl
    6c08:	0f b6 d2             	movzbl %dl,%edx
    6c0b:	01 c2                	add    %eax,%edx
    6c0d:	eb 8f                	jmp    6b9e <_ZN8DatabaseI6recordE9run_shellEv+0x217e>
    6c0f:	48 85 d2             	test   %rdx,%rdx
    6c12:	0f 94 c2             	sete   %dl
    6c15:	0f b6 d2             	movzbl %dl,%edx
    6c18:	01 c2                	add    %eax,%edx
    6c1a:	eb 82                	jmp    6b9e <_ZN8DatabaseI6recordE9run_shellEv+0x217e>
    6c1c:	85 c0                	test   %eax,%eax
    6c1e:	0f 94 c0             	sete   %al
    6c21:	0f b6 c0             	movzbl %al,%eax
    6c24:	e9 42 ff ff ff       	jmpq   6b6b <_ZN8DatabaseI6recordE9run_shellEv+0x214b>
    6c29:	85 c0                	test   %eax,%eax
    6c2b:	0f 95 c0             	setne  %al
    6c2e:	0f b6 c0             	movzbl %al,%eax
    6c31:	e9 35 ff ff ff       	jmpq   6b6b <_ZN8DatabaseI6recordE9run_shellEv+0x214b>
    6c36:	48 85 d2             	test   %rdx,%rdx
    6c39:	0f 9e c2             	setle  %dl
    6c3c:	0f b6 d2             	movzbl %dl,%edx
    6c3f:	01 c2                	add    %eax,%edx
    6c41:	e9 58 ff ff ff       	jmpq   6b9e <_ZN8DatabaseI6recordE9run_shellEv+0x217e>
    6c46:	48 85 d2             	test   %rdx,%rdx
    6c49:	0f 9f c2             	setg   %dl
    6c4c:	0f b6 d2             	movzbl %dl,%edx
    6c4f:	01 c2                	add    %eax,%edx
    6c51:	e9 48 ff ff ff       	jmpq   6b9e <_ZN8DatabaseI6recordE9run_shellEv+0x217e>
    6c56:	85 c0                	test   %eax,%eax
    6c58:	0f 9e c0             	setle  %al
    6c5b:	0f b6 c0             	movzbl %al,%eax
    6c5e:	e9 08 ff ff ff       	jmpq   6b6b <_ZN8DatabaseI6recordE9run_shellEv+0x214b>
    6c63:	85 c0                	test   %eax,%eax
    6c65:	0f 9f c0             	setg   %al
    6c68:	0f b6 c0             	movzbl %al,%eax
    6c6b:	e9 fb fe ff ff       	jmpq   6b6b <_ZN8DatabaseI6recordE9run_shellEv+0x214b>
    6c70:	f7 d0                	not    %eax
    6c72:	c1 e8 1f             	shr    $0x1f,%eax
    6c75:	01 d0                	add    %edx,%eax
    6c77:	83 f8 03             	cmp    $0x3,%eax
    6c7a:	74 0f                	je     6c8b <_ZN8DatabaseI6recordE9run_shellEv+0x226b>
    6c7c:	83 f8 02             	cmp    $0x2,%eax
    6c7f:	75 28                	jne    6ca9 <_ZN8DatabaseI6recordE9run_shellEv+0x2289>
    6c81:	83 bc 24 ec 01 00 00 	cmpl   $0x2,0x1ec(%rsp)
    6c88:	02 
    6c89:	75 1e                	jne    6ca9 <_ZN8DatabaseI6recordE9run_shellEv+0x2289>
    6c8b:	48 8b 4b 10          	mov    0x10(%rbx),%rcx
    6c8f:	44 8b 43 18          	mov    0x18(%rbx),%r8d
    6c93:	48 8d 35 bb 0e 00 00 	lea    0xebb(%rip),%rsi        # 7b55 <_IO_stdin_used+0x55>
    6c9a:	48 8b 13             	mov    (%rbx),%rdx
    6c9d:	bf 01 00 00 00       	mov    $0x1,%edi
    6ca2:	31 c0                	xor    %eax,%eax
    6ca4:	e8 a7 9f ff ff       	callq  c50 <__printf_chk@plt>
    6ca9:	48 8b 5b 20          	mov    0x20(%rbx),%rbx
    6cad:	48 85 db             	test   %rbx,%rbx
    6cb0:	0f 85 77 fe ff ff    	jne    6b2d <_ZN8DatabaseI6recordE9run_shellEv+0x210d>
    6cb6:	8b 84 24 dc 01 00 00 	mov    0x1dc(%rsp),%eax
    6cbd:	e9 74 ee ff ff       	jmpq   5b36 <_ZN8DatabaseI6recordE9run_shellEv+0x1116>
    6cc2:	83 bc 24 ec 01 00 00 	cmpl   $0x2,0x1ec(%rsp)
    6cc9:	02 
    6cca:	0f 85 d7 fe ff ff    	jne    6ba7 <_ZN8DatabaseI6recordE9run_shellEv+0x2187>
    6cd0:	eb b9                	jmp    6c8b <_ZN8DatabaseI6recordE9run_shellEv+0x226b>
    6cd2:	8d 50 01             	lea    0x1(%rax),%edx
    6cd5:	e9 c4 fe ff ff       	jmpq   6b9e <_ZN8DatabaseI6recordE9run_shellEv+0x217e>
    6cda:	4c 89 46 08          	mov    %r8,0x8(%rsi)
    6cde:	89 4e 18             	mov    %ecx,0x18(%rsi)
    6ce1:	c6 84 2c 90 0b 00 00 	movb   $0x1,0xb90(%rsp,%rbp,1)
    6ce8:	01 
    6ce9:	48 89 74 fa 08       	mov    %rsi,0x8(%rdx,%rdi,8)
    6cee:	48 89 b4 ec a0 00 00 	mov    %rsi,0xa0(%rsp,%rbp,8)
    6cf5:	00 
    6cf6:	e9 62 f9 ff ff       	jmpq   665d <_ZN8DatabaseI6recordE9run_shellEv+0x1c3d>
    6cfb:	8d 43 01             	lea    0x1(%rbx),%eax
    6cfe:	e9 78 f5 ff ff       	jmpq   627b <_ZN8DatabaseI6recordE9run_shellEv+0x185b>
    6d03:	ba 0a 00 00 00       	mov    $0xa,%edx
    6d08:	31 f6                	xor    %esi,%esi
    6d0a:	48 89 ef             	mov    %rbp,%rdi
    6d0d:	e8 7e a0 ff ff       	callq  d90 <strtol@plt>
    6d12:	89 84 24 d8 01 00 00 	mov    %eax,0x1d8(%rsp)
    6d19:	e9 aa f2 ff ff       	jmpq   5fc8 <_ZN8DatabaseI6recordE9run_shellEv+0x15a8>
    6d1e:	66 90                	xchg   %ax,%ax
    6d20:	48 8d 3d 44 13 00 00 	lea    0x1344(%rip),%rdi        # 806b <_IO_stdin_used+0x56b>
    6d27:	b9 03 00 00 00       	mov    $0x3,%ecx
    6d2c:	48 89 d6             	mov    %rdx,%rsi
    6d2f:	f3 a6                	repz cmpsb %es:(%rdi),%ds:(%rsi)
    6d31:	0f 97 c0             	seta   %al
    6d34:	1c 00                	sbb    $0x0,%al
    6d36:	84 c0                	test   %al,%al
    6d38:	0f 85 7a f1 ff ff    	jne    5eb8 <_ZN8DatabaseI6recordE9run_shellEv+0x1498>
    6d3e:	c7 84 24 ec 01 00 00 	movl   $0x2,0x1ec(%rsp)
    6d45:	02 00 00 00 
    6d49:	e9 53 f7 ff ff       	jmpq   64a1 <_ZN8DatabaseI6recordE9run_shellEv+0x1a81>
    6d4e:	48 8d 3d 02 13 00 00 	lea    0x1302(%rip),%rdi        # 8057 <_IO_stdin_used+0x557>
    6d55:	b9 03 00 00 00       	mov    $0x3,%ecx
    6d5a:	4c 89 f6             	mov    %r14,%rsi
    6d5d:	ba 02 00 00 00       	mov    $0x2,%edx
    6d62:	f3 a6                	repz cmpsb %es:(%rdi),%ds:(%rsi)
    6d64:	0f 97 c0             	seta   %al
    6d67:	1c 00                	sbb    $0x0,%al
    6d69:	84 c0                	test   %al,%al
    6d6b:	0f 84 9b 00 00 00    	je     6e0c <_ZN8DatabaseI6recordE9run_shellEv+0x23ec>
    6d71:	48 8d 3d e2 12 00 00 	lea    0x12e2(%rip),%rdi        # 805a <_IO_stdin_used+0x55a>
    6d78:	b9 03 00 00 00       	mov    $0x3,%ecx
    6d7d:	4c 89 f6             	mov    %r14,%rsi
    6d80:	ba 05 00 00 00       	mov    $0x5,%edx
    6d85:	f3 a6                	repz cmpsb %es:(%rdi),%ds:(%rsi)
    6d87:	0f 97 c0             	seta   %al
    6d8a:	1c 00                	sbb    $0x0,%al
    6d8c:	84 c0                	test   %al,%al
    6d8e:	74 7c                	je     6e0c <_ZN8DatabaseI6recordE9run_shellEv+0x23ec>
    6d90:	48 8d 3d c6 12 00 00 	lea    0x12c6(%rip),%rdi        # 805d <_IO_stdin_used+0x55d>
    6d97:	b9 03 00 00 00       	mov    $0x3,%ecx
    6d9c:	4c 89 f6             	mov    %r14,%rsi
    6d9f:	ba 06 00 00 00       	mov    $0x6,%edx
    6da4:	f3 a6                	repz cmpsb %es:(%rdi),%ds:(%rsi)
    6da6:	0f 97 c0             	seta   %al
    6da9:	1c 00                	sbb    $0x0,%al
    6dab:	84 c0                	test   %al,%al
    6dad:	74 5d                	je     6e0c <_ZN8DatabaseI6recordE9run_shellEv+0x23ec>
    6daf:	48 8d 35 a2 12 00 00 	lea    0x12a2(%rip),%rsi        # 8058 <_IO_stdin_used+0x558>
    6db6:	4c 89 f7             	mov    %r14,%rdi
    6db9:	e8 c2 9f ff ff       	callq  d80 <strcmp@plt>
    6dbe:	85 c0                	test   %eax,%eax
    6dc0:	0f 84 db 09 00 00    	je     77a1 <_ZN8DatabaseI6recordE9run_shellEv+0x2d81>
    6dc6:	48 8d 35 93 12 00 00 	lea    0x1293(%rip),%rsi        # 8060 <_IO_stdin_used+0x560>
    6dcd:	4c 89 f7             	mov    %r14,%rdi
    6dd0:	e8 ab 9f ff ff       	callq  d80 <strcmp@plt>
    6dd5:	85 c0                	test   %eax,%eax
    6dd7:	0f 84 61 0b 00 00    	je     793e <_ZN8DatabaseI6recordE9run_shellEv+0x2f1e>
    6ddd:	48 8d 35 77 12 00 00 	lea    0x1277(%rip),%rsi        # 805b <_IO_stdin_used+0x55b>
    6de4:	4c 89 f7             	mov    %r14,%rdi
    6de7:	e8 94 9f ff ff       	callq  d80 <strcmp@plt>
    6dec:	85 c0                	test   %eax,%eax
    6dee:	ba 01 00 00 00       	mov    $0x1,%edx
    6df3:	74 17                	je     6e0c <_ZN8DatabaseI6recordE9run_shellEv+0x23ec>
    6df5:	48 8d 35 66 12 00 00 	lea    0x1266(%rip),%rsi        # 8062 <_IO_stdin_used+0x562>
    6dfc:	4c 89 f7             	mov    %r14,%rdi
    6dff:	e8 7c 9f ff ff       	callq  d80 <strcmp@plt>
    6e04:	83 f8 01             	cmp    $0x1,%eax
    6e07:	19 d2                	sbb    %edx,%edx
    6e09:	83 e2 07             	and    $0x7,%edx
    6e0c:	48 8b 7c 24 38       	mov    0x38(%rsp),%rdi
    6e11:	89 94 24 e0 01 00 00 	mov    %edx,0x1e0(%rsp)
    6e18:	e8 73 9e ff ff       	callq  c90 <strlen@plt>
    6e1d:	44 8b b4 24 cc 01 00 	mov    0x1cc(%rsp),%r14d
    6e24:	00 
    6e25:	83 c0 01             	add    $0x1,%eax
    6e28:	48 8b ac 24 c0 01 00 	mov    0x1c0(%rsp),%rbp
    6e2f:	00 
    6e30:	89 c2                	mov    %eax,%edx
    6e32:	89 84 24 c8 01 00 00 	mov    %eax,0x1c8(%rsp)
    6e39:	44 29 f2             	sub    %r14d,%edx
    6e3c:	85 d2                	test   %edx,%edx
    6e3e:	0f 8e 84 00 00 00    	jle    6ec8 <_ZN8DatabaseI6recordE9run_shellEv+0x24a8>
    6e44:	41 81 fe c8 00 00 00 	cmp    $0xc8,%r14d
    6e4b:	b8 0a 00 00 00       	mov    $0xa,%eax
    6e50:	7e 15                	jle    6e67 <_ZN8DatabaseI6recordE9run_shellEv+0x2447>
    6e52:	66 0f ef c0          	pxor   %xmm0,%xmm0
    6e56:	f2 41 0f 2a c6       	cvtsi2sd %r14d,%xmm0
    6e5b:	f2 0f 59 05 45 15 00 	mulsd  0x1545(%rip),%xmm0        # 83a8 <_ZZ4likePKcS0_E19__PRETTY_FUNCTION__+0x28>
    6e62:	00 
    6e63:	f2 0f 2c c0          	cvttsd2si %xmm0,%eax
    6e67:	39 c2                	cmp    %eax,%edx
    6e69:	0f 4d c2             	cmovge %edx,%eax
    6e6c:	44 01 f0             	add    %r14d,%eax
    6e6f:	48 63 c8             	movslq %eax,%rcx
    6e72:	89 44 24 30          	mov    %eax,0x30(%rsp)
    6e76:	48 89 cf             	mov    %rcx,%rdi
    6e79:	48 89 4c 24 48       	mov    %rcx,0x48(%rsp)
    6e7e:	e8 dd 9d ff ff       	callq  c60 <_Znam@plt>
    6e83:	48 8b 54 24 48       	mov    0x48(%rsp),%rdx
    6e88:	31 f6                	xor    %esi,%esi
    6e8a:	48 89 c7             	mov    %rax,%rdi
    6e8d:	e8 0e 9e ff ff       	callq  ca0 <memset@plt>
    6e92:	48 89 ee             	mov    %rbp,%rsi
    6e95:	49 63 d6             	movslq %r14d,%rdx
    6e98:	48 89 c7             	mov    %rax,%rdi
    6e9b:	48 89 44 24 48       	mov    %rax,0x48(%rsp)
    6ea0:	e8 3b 9e ff ff       	callq  ce0 <memcpy@plt>
    6ea5:	48 89 ef             	mov    %rbp,%rdi
    6ea8:	e8 c3 9e ff ff       	callq  d70 <_ZdaPv@plt>
    6ead:	48 8b 4c 24 48       	mov    0x48(%rsp),%rcx
    6eb2:	8b 44 24 30          	mov    0x30(%rsp),%eax
    6eb6:	48 89 8c 24 c0 01 00 	mov    %rcx,0x1c0(%rsp)
    6ebd:	00 
    6ebe:	89 84 24 cc 01 00 00 	mov    %eax,0x1cc(%rsp)
    6ec5:	48 89 cd             	mov    %rcx,%rbp
    6ec8:	48 8b 74 24 38       	mov    0x38(%rsp),%rsi
    6ecd:	48 89 ef             	mov    %rbp,%rdi
    6ed0:	e8 2b 9e ff ff       	callq  d00 <strcpy@plt>
    6ed5:	e9 8e f5 ff ff       	jmpq   6468 <_ZN8DatabaseI6recordE9run_shellEv+0x1a48>
    6eda:	48 8b 68 08          	mov    0x8(%rax),%rbp
    6ede:	48 85 ed             	test   %rbp,%rbp
    6ee1:	0f 84 ee f1 ff ff    	je     60d5 <_ZN8DatabaseI6recordE9run_shellEv+0x16b5>
    6ee7:	48 8b 45 00          	mov    0x0(%rbp),%rax
    6eeb:	48 89 df             	mov    %rbx,%rdi
    6eee:	48 8b 30             	mov    (%rax),%rsi
    6ef1:	e8 8a 9e ff ff       	callq  d80 <strcmp@plt>
    6ef6:	83 f8 00             	cmp    $0x0,%eax
    6ef9:	7e 15                	jle    6f10 <_ZN8DatabaseI6recordE9run_shellEv+0x24f0>
    6efb:	48 8b 6d 10          	mov    0x10(%rbp),%rbp
    6eff:	48 85 ed             	test   %rbp,%rbp
    6f02:	75 e3                	jne    6ee7 <_ZN8DatabaseI6recordE9run_shellEv+0x24c7>
    6f04:	e9 cc f1 ff ff       	jmpq   60d5 <_ZN8DatabaseI6recordE9run_shellEv+0x16b5>
    6f09:	0f 1f 80 00 00 00 00 	nopl   0x0(%rax)
    6f10:	48 8b 75 08          	mov    0x8(%rbp),%rsi
    6f14:	0f 84 e5 08 00 00    	je     77ff <_ZN8DatabaseI6recordE9run_shellEv+0x2ddf>
    6f1a:	48 89 f5             	mov    %rsi,%rbp
    6f1d:	eb bf                	jmp    6ede <_ZN8DatabaseI6recordE9run_shellEv+0x24be>
    6f1f:	bf 30 00 00 00       	mov    $0x30,%edi
    6f24:	e8 f7 9d ff ff       	callq  d20 <_Znwm@plt>
    6f29:	48 89 c3             	mov    %rax,%rbx
    6f2c:	48 63 84 24 cc 01 00 	movslq 0x1cc(%rsp),%rax
    6f33:	00 
    6f34:	8b ac 24 c8 01 00 00 	mov    0x1c8(%rsp),%ebp
    6f3b:	48 89 c7             	mov    %rax,%rdi
    6f3e:	49 89 c6             	mov    %rax,%r14
    6f41:	48 89 44 24 08       	mov    %rax,0x8(%rsp)
    6f46:	e8 15 9d ff ff       	callq  c60 <_Znam@plt>
    6f4b:	48 8b 54 24 08       	mov    0x8(%rsp),%rdx
    6f50:	31 f6                	xor    %esi,%esi
    6f52:	44 89 73 0c          	mov    %r14d,0xc(%rbx)
    6f56:	48 89 c7             	mov    %rax,%rdi
    6f59:	49 89 c6             	mov    %rax,%r14
    6f5c:	48 89 03             	mov    %rax,(%rbx)
    6f5f:	89 6b 08             	mov    %ebp,0x8(%rbx)
    6f62:	48 89 44 24 30       	mov    %rax,0x30(%rsp)
    6f67:	e8 34 9d ff ff       	callq  ca0 <memset@plt>
    6f6c:	48 63 d5             	movslq %ebp,%rdx
    6f6f:	4c 89 e6             	mov    %r12,%rsi
    6f72:	4c 89 f7             	mov    %r14,%rdi
    6f75:	e8 66 9d ff ff       	callq  ce0 <memcpy@plt>
    6f7a:	8b 04 24             	mov    (%rsp),%eax
    6f7d:	48 8b 4c 24 28       	mov    0x28(%rsp),%rcx
    6f82:	4c 89 6b 10          	mov    %r13,0x10(%rbx)
    6f86:	48 c7 43 28 00 00 00 	movq   $0x0,0x28(%rbx)
    6f8d:	00 
    6f8e:	48 c7 43 20 00 00 00 	movq   $0x0,0x20(%rbx)
    6f95:	00 
    6f96:	89 43 18             	mov    %eax,0x18(%rbx)
    6f99:	48 8b 41 08          	mov    0x8(%rcx),%rax
    6f9d:	48 85 c0             	test   %rax,%rax
    6fa0:	0f 84 ff 03 00 00    	je     73a5 <_ZN8DatabaseI6recordE9run_shellEv+0x2985>
    6fa6:	48 89 43 28          	mov    %rax,0x28(%rbx)
    6faa:	48 89 58 20          	mov    %rbx,0x20(%rax)
    6fae:	48 89 c8             	mov    %rcx,%rax
    6fb1:	48 89 59 08          	mov    %rbx,0x8(%rcx)
    6fb5:	4c 8b 70 28          	mov    0x28(%rax),%r14
    6fb9:	83 40 10 01          	addl   $0x1,0x10(%rax)
    6fbd:	49 8b 6e 08          	mov    0x8(%r14),%rbp
    6fc1:	48 85 ed             	test   %rbp,%rbp
    6fc4:	0f 84 d0 03 00 00    	je     739a <_ZN8DatabaseI6recordE9run_shellEv+0x297a>
    6fca:	4c 89 7c 24 08       	mov    %r15,0x8(%rsp)
    6fcf:	4c 89 f1             	mov    %r14,%rcx
    6fd2:	49 89 ed             	mov    %rbp,%r13
    6fd5:	45 31 c0             	xor    %r8d,%r8d
    6fd8:	49 89 df             	mov    %rbx,%r15
    6fdb:	eb 26                	jmp    7003 <_ZN8DatabaseI6recordE9run_shellEv+0x25e3>
    6fdd:	49 63 c4             	movslq %r12d,%rax
    6fe0:	41 8d 70 01          	lea    0x1(%r8),%esi
    6fe4:	42 88 94 04 90 0b 00 	mov    %dl,0xb90(%rsp,%r8,1)
    6feb:	00 
    6fec:	49 8b 44 c5 08       	mov    0x8(%r13,%rax,8),%rax
    6ff1:	48 85 c0             	test   %rax,%rax
    6ff4:	0f 84 d8 02 00 00    	je     72d2 <_ZN8DatabaseI6recordE9run_shellEv+0x28b2>
    6ffa:	4d 89 ee             	mov    %r13,%r14
    6ffd:	41 89 f0             	mov    %esi,%r8d
    7000:	49 89 c5             	mov    %rax,%r13
    7003:	49 8b 5d 00          	mov    0x0(%r13),%rbx
    7007:	48 8b 7c 24 30       	mov    0x30(%rsp),%rdi
    700c:	48 89 4c 24 40       	mov    %rcx,0x40(%rsp)
    7011:	44 89 44 24 38       	mov    %r8d,0x38(%rsp)
    7016:	48 8b 33             	mov    (%rbx),%rsi
    7019:	e8 62 9d ff ff       	callq  d80 <strcmp@plt>
    701e:	4c 63 e0             	movslq %eax,%r12
    7021:	4c 63 44 24 38       	movslq 0x38(%rsp),%r8
    7026:	48 8b 4c 24 40       	mov    0x40(%rsp),%rcx
    702b:	41 83 fc 00          	cmp    $0x0,%r12d
    702f:	7e 38                	jle    7069 <_ZN8DatabaseI6recordE9run_shellEv+0x2649>
    7031:	ba 01 00 00 00       	mov    $0x1,%edx
    7036:	41 bc 01 00 00 00    	mov    $0x1,%r12d
    703c:	41 8b 75 18          	mov    0x18(%r13),%esi
    7040:	85 f6                	test   %esi,%esi
    7042:	74 99                	je     6fdd <_ZN8DatabaseI6recordE9run_shellEv+0x25bd>
    7044:	49 63 c4             	movslq %r12d,%rax
    7047:	88 94 24 90 0b 00 00 	mov    %dl,0xb90(%rsp)
    704e:	49 8b 44 c5 08       	mov    0x8(%r13,%rax,8),%rax
    7053:	48 85 c0             	test   %rax,%rax
    7056:	0f 84 78 01 00 00    	je     71d4 <_ZN8DatabaseI6recordE9run_shellEv+0x27b4>
    705c:	4c 89 f1             	mov    %r14,%rcx
    705f:	4c 89 ed             	mov    %r13,%rbp
    7062:	be 01 00 00 00       	mov    $0x1,%esi
    7067:	eb 91                	jmp    6ffa <_ZN8DatabaseI6recordE9run_shellEv+0x25da>
    7069:	0f 85 9b 00 00 00    	jne    710a <_ZN8DatabaseI6recordE9run_shellEv+0x26ea>
    706f:	8b 44 24 10          	mov    0x10(%rsp),%eax
    7073:	2b 43 10             	sub    0x10(%rbx),%eax
    7076:	83 f8 00             	cmp    $0x0,%eax
    7079:	7f b6                	jg     7031 <_ZN8DatabaseI6recordE9run_shellEv+0x2611>
    707b:	0f 85 4c 01 00 00    	jne    71cd <_ZN8DatabaseI6recordE9run_shellEv+0x27ad>
    7081:	8b 04 24             	mov    (%rsp),%eax
    7084:	2b 43 18             	sub    0x18(%rbx),%eax
    7087:	83 f8 00             	cmp    $0x0,%eax
    708a:	0f 84 33 01 00 00    	je     71c3 <_ZN8DatabaseI6recordE9run_shellEv+0x27a3>
    7090:	0f 9f c2             	setg   %dl
    7093:	44 0f b6 e2          	movzbl %dl,%r12d
    7097:	eb a3                	jmp    703c <_ZN8DatabaseI6recordE9run_shellEv+0x261c>
    7099:	0f 1f 80 00 00 00 00 	nopl   0x0(%rax)
    70a0:	8d 58 01             	lea    0x1(%rax),%ebx
    70a3:	e9 8d f1 ff ff       	jmpq   6235 <_ZN8DatabaseI6recordE9run_shellEv+0x1815>
    70a8:	c7 42 18 00 00 00 00 	movl   $0x0,0x18(%rdx)
    70af:	44 89 40 18          	mov    %r8d,0x18(%rax)
    70b3:	e9 76 f7 ff ff       	jmpq   682e <_ZN8DatabaseI6recordE9run_shellEv+0x1e0e>
    70b8:	85 ed                	test   %ebp,%ebp
    70ba:	0f 84 e4 00 00 00    	je     71a4 <_ZN8DatabaseI6recordE9run_shellEv+0x2784>
    70c0:	48 8b 43 08          	mov    0x8(%rbx),%rax
    70c4:	49 89 44 fc 08       	mov    %rax,0x8(%r12,%rdi,8)
    70c9:	41 89 ec             	mov    %ebp,%r12d
    70cc:	e9 8c f5 ff ff       	jmpq   665d <_ZN8DatabaseI6recordE9run_shellEv+0x1c3d>
    70d1:	be ff ff ff ff       	mov    $0xffffffff,%esi
    70d6:	e9 3f f4 ff ff       	jmpq   651a <_ZN8DatabaseI6recordE9run_shellEv+0x1afa>
    70db:	31 f6                	xor    %esi,%esi
    70dd:	48 89 ef             	mov    %rbp,%rdi
    70e0:	e8 eb 9b ff ff       	callq  cd0 <strtod@plt>
    70e5:	f2 48 0f 2c c0       	cvttsd2si %xmm0,%rax
    70ea:	48 89 84 24 d0 01 00 	mov    %rax,0x1d0(%rsp)
    70f1:	00 
    70f2:	e9 d1 ee ff ff       	jmpq   5fc8 <_ZN8DatabaseI6recordE9run_shellEv+0x15a8>
    70f7:	c7 42 18 00 00 00 00 	movl   $0x0,0x18(%rdx)
    70fe:	c7 40 18 01 00 00 00 	movl   $0x1,0x18(%rax)
    7105:	e9 24 f7 ff ff       	jmpq   682e <_ZN8DatabaseI6recordE9run_shellEv+0x1e0e>
    710a:	31 d2                	xor    %edx,%edx
    710c:	45 31 e4             	xor    %r12d,%r12d
    710f:	e9 28 ff ff ff       	jmpq   703c <_ZN8DatabaseI6recordE9run_shellEv+0x261c>
    7114:	ba 06 00 00 00       	mov    $0x6,%edx
    7119:	e9 68 ed ff ff       	jmpq   5e86 <_ZN8DatabaseI6recordE9run_shellEv+0x1466>
    711e:	48 89 c5             	mov    %rax,%rbp
    7121:	31 db                	xor    %ebx,%ebx
    7123:	48 8b 94 24 f8 01 00 	mov    0x1f8(%rsp),%rdx
    712a:	00 
    712b:	39 9c 24 24 02 00 00 	cmp    %ebx,0x224(%rsp)
    7132:	7e 1c                	jle    7150 <_ZN8DatabaseI6recordE9run_shellEv+0x2730>
    7134:	48 8b 3c da          	mov    (%rdx,%rbx,8),%rdi
    7138:	48 85 ff             	test   %rdi,%rdi
    713b:	74 0d                	je     714a <_ZN8DatabaseI6recordE9run_shellEv+0x272a>
    713d:	e8 2e 9c ff ff       	callq  d70 <_ZdaPv@plt>
    7142:	48 8b 94 24 f8 01 00 	mov    0x1f8(%rsp),%rdx
    7149:	00 
    714a:	48 83 c3 01          	add    $0x1,%rbx
    714e:	eb db                	jmp    712b <_ZN8DatabaseI6recordE9run_shellEv+0x270b>
    7150:	48 85 d2             	test   %rdx,%rdx
    7153:	74 08                	je     715d <_ZN8DatabaseI6recordE9run_shellEv+0x273d>
    7155:	48 89 d7             	mov    %rdx,%rdi
    7158:	e8 13 9c ff ff       	callq  d70 <_ZdaPv@plt>
    715d:	48 8b bc 24 c0 01 00 	mov    0x1c0(%rsp),%rdi
    7164:	00 
    7165:	48 85 ff             	test   %rdi,%rdi
    7168:	74 05                	je     716f <_ZN8DatabaseI6recordE9run_shellEv+0x274f>
    716a:	e8 01 9c ff ff       	callq  d70 <_ZdaPv@plt>
    716f:	48 89 ef             	mov    %rbp,%rdi
    7172:	e8 59 9c ff ff       	callq  dd0 <_Unwind_Resume@plt>
    7177:	e8 d4 9b ff ff       	callq  d50 <__stack_chk_fail@plt>
    717c:	83 fa 1e             	cmp    $0x1e,%edx
    717f:	0f 85 5c e7 ff ff    	jne    58e1 <_ZN8DatabaseI6recordE9run_shellEv+0xec1>
    7185:	48 8d 0d 44 11 00 00 	lea    0x1144(%rip),%rcx        # 82d0 <_ZZN10sql_parser7add_smbEcE19__PRETTY_FUNCTION__>
    718c:	48 8d 35 71 0e 00 00 	lea    0xe71(%rip),%rsi        # 8004 <_IO_stdin_used+0x504>
    7193:	48 8d 3d 89 0e 00 00 	lea    0xe89(%rip),%rdi        # 8023 <_IO_stdin_used+0x523>
    719a:	ba 51 00 00 00       	mov    $0x51,%edx
    719f:	e8 0c 9b ff ff       	callq  cb0 <__assert_fail@plt>
    71a4:	48 8d 0d b5 10 00 00 	lea    0x10b5(%rip),%rcx        # 8260 <_ZZN8avl_treeI9list_nodeI6recordEE10avl_deleteEPKS2_E19__PRETTY_FUNCTION__>
    71ab:	48 8d 35 76 09 00 00 	lea    0x976(%rip),%rsi        # 7b28 <_IO_stdin_used+0x28>
    71b2:	48 8d 3d d3 0e 00 00 	lea    0xed3(%rip),%rdi        # 808c <_IO_stdin_used+0x58c>
    71b9:	ba c4 00 00 00       	mov    $0xc4,%edx
    71be:	e8 ed 9a ff ff       	callq  cb0 <__assert_fail@plt>
    71c3:	4c 8b 7c 24 08       	mov    0x8(%rsp),%r15
    71c8:	e9 e9 fa ff ff       	jmpq   6cb6 <_ZN8DatabaseI6recordE9run_shellEv+0x2296>
    71cd:	31 d2                	xor    %edx,%edx
    71cf:	e9 68 fe ff ff       	jmpq   703c <_ZN8DatabaseI6recordE9run_shellEv+0x261c>
    71d4:	4c 89 fb             	mov    %r15,%rbx
    71d7:	4c 8b 7c 24 08       	mov    0x8(%rsp),%r15
    71dc:	4c 89 ed             	mov    %r13,%rbp
    71df:	bf 20 00 00 00       	mov    $0x20,%edi
    71e4:	e8 37 9b ff ff       	callq  d20 <_Znwm@plt>
    71e9:	48 8b 4c 24 28       	mov    0x28(%rsp),%rcx
    71ee:	4b 89 44 e5 08       	mov    %rax,0x8(%r13,%r12,8)
    71f3:	48 89 18             	mov    %rbx,(%rax)
    71f6:	48 c7 40 10 00 00 00 	movq   $0x0,0x10(%rax)
    71fd:	00 
    71fe:	48 c7 40 08 00 00 00 	movq   $0x0,0x8(%rax)
    7205:	00 
    7206:	c7 40 18 00 00 00 00 	movl   $0x0,0x18(%rax)
    720d:	83 41 30 01          	addl   $0x1,0x30(%rcx)
    7211:	48 85 ed             	test   %rbp,%rbp
    7214:	0f 84 9c fa ff ff    	je     6cb6 <_ZN8DatabaseI6recordE9run_shellEv+0x2296>
    721a:	48 39 c5             	cmp    %rax,%rbp
    721d:	0f 84 93 fa ff ff    	je     6cb6 <_ZN8DatabaseI6recordE9run_shellEv+0x2296>
    7223:	4c 8d 84 24 90 0b 00 	lea    0xb90(%rsp),%r8
    722a:	00 
    722b:	48 89 ee             	mov    %rbp,%rsi
    722e:	41 0f b6 08          	movzbl (%r8),%ecx
    7232:	8b 56 18             	mov    0x18(%rsi),%edx
    7235:	8d 7a ff             	lea    -0x1(%rdx),%edi
    7238:	83 c2 01             	add    $0x1,%edx
    723b:	84 c9                	test   %cl,%cl
    723d:	0f 44 d7             	cmove  %edi,%edx
    7240:	49 83 c0 01          	add    $0x1,%r8
    7244:	89 56 18             	mov    %edx,0x18(%rsi)
    7247:	48 8b 74 ce 08       	mov    0x8(%rsi,%rcx,8),%rsi
    724c:	48 39 f0             	cmp    %rsi,%rax
    724f:	75 dd                	jne    722e <_ZN8DatabaseI6recordE9run_shellEv+0x280e>
    7251:	8b 45 18             	mov    0x18(%rbp),%eax
    7254:	83 f8 fe             	cmp    $0xfffffffe,%eax
    7257:	0f 84 e1 00 00 00    	je     733e <_ZN8DatabaseI6recordE9run_shellEv+0x291e>
    725d:	83 f8 02             	cmp    $0x2,%eax
    7260:	0f 85 50 fa ff ff    	jne    6cb6 <_ZN8DatabaseI6recordE9run_shellEv+0x2296>
    7266:	48 8b 45 10          	mov    0x10(%rbp),%rax
    726a:	8b 48 18             	mov    0x18(%rax),%ecx
    726d:	83 f9 01             	cmp    $0x1,%ecx
    7270:	0f 84 ac 00 00 00    	je     7322 <_ZN8DatabaseI6recordE9run_shellEv+0x2902>
    7276:	83 f9 ff             	cmp    $0xffffffff,%ecx
    7279:	0f 85 84 00 00 00    	jne    7303 <_ZN8DatabaseI6recordE9run_shellEv+0x28e3>
    727f:	48 8b 50 08          	mov    0x8(%rax),%rdx
    7283:	48 8b 72 10          	mov    0x10(%rdx),%rsi
    7287:	48 89 70 08          	mov    %rsi,0x8(%rax)
    728b:	48 8b 72 08          	mov    0x8(%rdx),%rsi
    728f:	48 89 42 10          	mov    %rax,0x10(%rdx)
    7293:	48 89 75 10          	mov    %rsi,0x10(%rbp)
    7297:	8b 72 18             	mov    0x18(%rdx),%esi
    729a:	48 89 6a 08          	mov    %rbp,0x8(%rdx)
    729e:	83 fe 01             	cmp    $0x1,%esi
    72a1:	74 54                	je     72f7 <_ZN8DatabaseI6recordE9run_shellEv+0x28d7>
    72a3:	85 f6                	test   %esi,%esi
    72a5:	75 40                	jne    72e7 <_ZN8DatabaseI6recordE9run_shellEv+0x28c7>
    72a7:	c7 45 18 00 00 00 00 	movl   $0x0,0x18(%rbp)
    72ae:	c7 40 18 00 00 00 00 	movl   $0x0,0x18(%rax)
    72b5:	c7 42 18 00 00 00 00 	movl   $0x0,0x18(%rdx)
    72bc:	48 89 d0             	mov    %rdx,%rax
    72bf:	31 d2                	xor    %edx,%edx
    72c1:	49 39 6e 08          	cmp    %rbp,0x8(%r14)
    72c5:	0f 95 c2             	setne  %dl
    72c8:	49 89 44 d6 08       	mov    %rax,0x8(%r14,%rdx,8)
    72cd:	e9 e4 f9 ff ff       	jmpq   6cb6 <_ZN8DatabaseI6recordE9run_shellEv+0x2296>
    72d2:	4c 89 fb             	mov    %r15,%rbx
    72d5:	49 89 ce             	mov    %rcx,%r14
    72d8:	4c 8b 7c 24 08       	mov    0x8(%rsp),%r15
    72dd:	e9 fd fe ff ff       	jmpq   71df <_ZN8DatabaseI6recordE9run_shellEv+0x27bf>
    72e2:	e9 37 fe ff ff       	jmpq   711e <_ZN8DatabaseI6recordE9run_shellEv+0x26fe>
    72e7:	c7 40 18 01 00 00 00 	movl   $0x1,0x18(%rax)
    72ee:	c7 45 18 00 00 00 00 	movl   $0x0,0x18(%rbp)
    72f5:	eb be                	jmp    72b5 <_ZN8DatabaseI6recordE9run_shellEv+0x2895>
    72f7:	c7 40 18 00 00 00 00 	movl   $0x0,0x18(%rax)
    72fe:	89 4d 18             	mov    %ecx,0x18(%rbp)
    7301:	eb b2                	jmp    72b5 <_ZN8DatabaseI6recordE9run_shellEv+0x2895>
    7303:	48 8d 0d f6 0f 00 00 	lea    0xff6(%rip),%rcx        # 8300 <_ZZN8avl_treeI9list_nodeI6recordEE9avl_probeEPS2_E19__PRETTY_FUNCTION__>
    730a:	48 8d 35 17 08 00 00 	lea    0x817(%rip),%rsi        # 7b28 <_IO_stdin_used+0x28>
    7311:	48 8d 3d 2c 08 00 00 	lea    0x82c(%rip),%rdi        # 7b44 <_IO_stdin_used+0x44>
    7318:	ba f8 01 00 00       	mov    $0x1f8,%edx
    731d:	e8 8e 99 ff ff       	callq  cb0 <__assert_fail@plt>
    7322:	48 8b 50 08          	mov    0x8(%rax),%rdx
    7326:	48 89 55 10          	mov    %rdx,0x10(%rbp)
    732a:	48 89 68 08          	mov    %rbp,0x8(%rax)
    732e:	c7 45 18 00 00 00 00 	movl   $0x0,0x18(%rbp)
    7335:	c7 40 18 00 00 00 00 	movl   $0x0,0x18(%rax)
    733c:	eb 81                	jmp    72bf <_ZN8DatabaseI6recordE9run_shellEv+0x289f>
    733e:	48 8b 45 08          	mov    0x8(%rbp),%rax
    7342:	8b 50 18             	mov    0x18(%rax),%edx
    7345:	83 fa ff             	cmp    $0xffffffff,%edx
    7348:	0f 84 31 06 00 00    	je     797f <_ZN8DatabaseI6recordE9run_shellEv+0x2f5f>
    734e:	83 ea 01             	sub    $0x1,%edx
    7351:	0f 85 09 06 00 00    	jne    7960 <_ZN8DatabaseI6recordE9run_shellEv+0x2f40>
    7357:	48 8b 50 10          	mov    0x10(%rax),%rdx
    735b:	48 8b 4a 08          	mov    0x8(%rdx),%rcx
    735f:	48 89 48 10          	mov    %rcx,0x10(%rax)
    7363:	48 8b 4a 10          	mov    0x10(%rdx),%rcx
    7367:	48 89 42 08          	mov    %rax,0x8(%rdx)
    736b:	48 89 4d 08          	mov    %rcx,0x8(%rbp)
    736f:	8b 4a 18             	mov    0x18(%rdx),%ecx
    7372:	48 89 6a 10          	mov    %rbp,0x10(%rdx)
    7376:	83 f9 ff             	cmp    $0xffffffff,%ecx
    7379:	0f 84 ce 05 00 00    	je     794d <_ZN8DatabaseI6recordE9run_shellEv+0x2f2d>
    737f:	85 c9                	test   %ecx,%ecx
    7381:	0f 84 20 ff ff ff    	je     72a7 <_ZN8DatabaseI6recordE9run_shellEv+0x2887>
    7387:	c7 40 18 ff ff ff ff 	movl   $0xffffffff,0x18(%rax)
    738e:	c7 45 18 00 00 00 00 	movl   $0x0,0x18(%rbp)
    7395:	e9 1b ff ff ff       	jmpq   72b5 <_ZN8DatabaseI6recordE9run_shellEv+0x2895>
    739a:	4d 89 f5             	mov    %r14,%r13
    739d:	45 31 e4             	xor    %r12d,%r12d
    73a0:	e9 3a fe ff ff       	jmpq   71df <_ZN8DatabaseI6recordE9run_shellEv+0x27bf>
    73a5:	48 8b 44 24 28       	mov    0x28(%rsp),%rax
    73aa:	48 89 18             	mov    %rbx,(%rax)
    73ad:	48 89 58 08          	mov    %rbx,0x8(%rax)
    73b1:	e9 ff fb ff ff       	jmpq   6fb5 <_ZN8DatabaseI6recordE9run_shellEv+0x2595>
    73b6:	48 89 df             	mov    %rbx,%rdi
    73b9:	be 30 00 00 00       	mov    $0x30,%esi
    73be:	48 89 c5             	mov    %rax,%rbp
    73c1:	31 db                	xor    %ebx,%ebx
    73c3:	e8 68 99 ff ff       	callq  d30 <_ZdlPvm@plt>
    73c8:	e9 56 fd ff ff       	jmpq   7123 <_ZN8DatabaseI6recordE9run_shellEv+0x2703>
    73cd:	85 c0                	test   %eax,%eax
    73cf:	0f 94 c0             	sete   %al
    73d2:	0f b6 c0             	movzbl %al,%eax
    73d5:	01 d0                	add    %edx,%eax
    73d7:	e9 9b f8 ff ff       	jmpq   6c77 <_ZN8DatabaseI6recordE9run_shellEv+0x2257>
    73dc:	8d 42 01             	lea    0x1(%rdx),%eax
    73df:	e9 93 f8 ff ff       	jmpq   6c77 <_ZN8DatabaseI6recordE9run_shellEv+0x2257>
    73e4:	b8 01 00 00 00       	mov    $0x1,%eax
    73e9:	e9 7d f7 ff ff       	jmpq   6b6b <_ZN8DatabaseI6recordE9run_shellEv+0x214b>
    73ee:	48 8d 35 62 0c 00 00 	lea    0xc62(%rip),%rsi        # 8057 <_IO_stdin_used+0x557>
    73f5:	48 89 ef             	mov    %rbp,%rdi
    73f8:	e8 83 99 ff ff       	callq  d80 <strcmp@plt>
    73fd:	85 c0                	test   %eax,%eax
    73ff:	0f 84 40 01 00 00    	je     7545 <_ZN8DatabaseI6recordE9run_shellEv+0x2b25>
    7405:	48 8d 35 4e 0c 00 00 	lea    0xc4e(%rip),%rsi        # 805a <_IO_stdin_used+0x55a>
    740c:	48 89 ef             	mov    %rbp,%rdi
    740f:	e8 6c 99 ff ff       	callq  d80 <strcmp@plt>
    7414:	85 c0                	test   %eax,%eax
    7416:	0f 84 1f 01 00 00    	je     753b <_ZN8DatabaseI6recordE9run_shellEv+0x2b1b>
    741c:	48 8d 35 3a 0c 00 00 	lea    0xc3a(%rip),%rsi        # 805d <_IO_stdin_used+0x55d>
    7423:	48 89 ef             	mov    %rbp,%rdi
    7426:	e8 55 99 ff ff       	callq  d80 <strcmp@plt>
    742b:	85 c0                	test   %eax,%eax
    742d:	0f 84 fe 00 00 00    	je     7531 <_ZN8DatabaseI6recordE9run_shellEv+0x2b11>
    7433:	48 8d 35 1e 0c 00 00 	lea    0xc1e(%rip),%rsi        # 8058 <_IO_stdin_used+0x558>
    743a:	48 89 ef             	mov    %rbp,%rdi
    743d:	e8 3e 99 ff ff       	callq  d80 <strcmp@plt>
    7442:	85 c0                	test   %eax,%eax
    7444:	0f 84 dd 00 00 00    	je     7527 <_ZN8DatabaseI6recordE9run_shellEv+0x2b07>
    744a:	48 8d 35 0f 0c 00 00 	lea    0xc0f(%rip),%rsi        # 8060 <_IO_stdin_used+0x560>
    7451:	48 89 ef             	mov    %rbp,%rdi
    7454:	e8 27 99 ff ff       	callq  d80 <strcmp@plt>
    7459:	85 c0                	test   %eax,%eax
    745b:	0f 84 bc 00 00 00    	je     751d <_ZN8DatabaseI6recordE9run_shellEv+0x2afd>
    7461:	48 8d 35 f3 0b 00 00 	lea    0xbf3(%rip),%rsi        # 805b <_IO_stdin_used+0x55b>
    7468:	48 89 ef             	mov    %rbp,%rdi
    746b:	e8 10 99 ff ff       	callq  d80 <strcmp@plt>
    7470:	85 c0                	test   %eax,%eax
    7472:	ba 01 00 00 00       	mov    $0x1,%edx
    7477:	74 17                	je     7490 <_ZN8DatabaseI6recordE9run_shellEv+0x2a70>
    7479:	48 8d 35 e2 0b 00 00 	lea    0xbe2(%rip),%rsi        # 8062 <_IO_stdin_used+0x562>
    7480:	48 89 ef             	mov    %rbp,%rdi
    7483:	e8 f8 98 ff ff       	callq  d80 <strcmp@plt>
    7488:	83 f8 01             	cmp    $0x1,%eax
    748b:	19 d2                	sbb    %edx,%edx
    748d:	83 e2 07             	and    $0x7,%edx
    7490:	48 8b 7c 24 08       	mov    0x8(%rsp),%rdi
    7495:	89 94 24 e8 01 00 00 	mov    %edx,0x1e8(%rsp)
    749c:	31 f6                	xor    %esi,%esi
    749e:	ba 0a 00 00 00       	mov    $0xa,%edx
    74a3:	e8 e8 98 ff ff       	callq  d90 <strtol@plt>
    74a8:	89 84 24 d8 01 00 00 	mov    %eax,0x1d8(%rsp)
    74af:	8b 44 24 10          	mov    0x10(%rsp),%eax
    74b3:	48 8d 3d ad 0b 00 00 	lea    0xbad(%rip),%rdi        # 8067 <_IO_stdin_used+0x567>
    74ba:	b9 04 00 00 00       	mov    $0x4,%ecx
    74bf:	83 c0 03             	add    $0x3,%eax
    74c2:	89 44 24 38          	mov    %eax,0x38(%rsp)
    74c6:	49 8b 46 18          	mov    0x18(%r14),%rax
    74ca:	48 89 c6             	mov    %rax,%rsi
    74cd:	f3 a6                	repz cmpsb %es:(%rdi),%ds:(%rsi)
    74cf:	0f 97 c2             	seta   %dl
    74d2:	80 da 00             	sbb    $0x0,%dl
    74d5:	84 d2                	test   %dl,%dl
    74d7:	75 19                	jne    74f2 <_ZN8DatabaseI6recordE9run_shellEv+0x2ad2>
    74d9:	c7 84 24 ec 01 00 00 	movl   $0x1,0x1ec(%rsp)
    74e0:	01 00 00 00 
    74e4:	83 44 24 10 04       	addl   $0x4,0x10(%rsp)
    74e9:	49 83 c6 20          	add    $0x20,%r14
    74ed:	e9 bb f4 ff ff       	jmpq   69ad <_ZN8DatabaseI6recordE9run_shellEv+0x1f8d>
    74f2:	48 8d 3d 72 0b 00 00 	lea    0xb72(%rip),%rdi        # 806b <_IO_stdin_used+0x56b>
    74f9:	48 89 c6             	mov    %rax,%rsi
    74fc:	b9 03 00 00 00       	mov    $0x3,%ecx
    7501:	f3 a6                	repz cmpsb %es:(%rdi),%ds:(%rsi)
    7503:	0f 97 c0             	seta   %al
    7506:	1c 00                	sbb    $0x0,%al
    7508:	84 c0                	test   %al,%al
    750a:	0f 85 d9 f5 ff ff    	jne    6ae9 <_ZN8DatabaseI6recordE9run_shellEv+0x20c9>
    7510:	c7 84 24 ec 01 00 00 	movl   $0x2,0x1ec(%rsp)
    7517:	02 00 00 00 
    751b:	eb c7                	jmp    74e4 <_ZN8DatabaseI6recordE9run_shellEv+0x2ac4>
    751d:	ba 03 00 00 00       	mov    $0x3,%edx
    7522:	e9 69 ff ff ff       	jmpq   7490 <_ZN8DatabaseI6recordE9run_shellEv+0x2a70>
    7527:	ba 04 00 00 00       	mov    $0x4,%edx
    752c:	e9 5f ff ff ff       	jmpq   7490 <_ZN8DatabaseI6recordE9run_shellEv+0x2a70>
    7531:	ba 06 00 00 00       	mov    $0x6,%edx
    7536:	e9 55 ff ff ff       	jmpq   7490 <_ZN8DatabaseI6recordE9run_shellEv+0x2a70>
    753b:	ba 05 00 00 00       	mov    $0x5,%edx
    7540:	e9 4b ff ff ff       	jmpq   7490 <_ZN8DatabaseI6recordE9run_shellEv+0x2a70>
    7545:	ba 02 00 00 00       	mov    $0x2,%edx
    754a:	e9 41 ff ff ff       	jmpq   7490 <_ZN8DatabaseI6recordE9run_shellEv+0x2a70>
    754f:	48 8d 35 01 0b 00 00 	lea    0xb01(%rip),%rsi        # 8057 <_IO_stdin_used+0x557>
    7556:	48 89 ef             	mov    %rbp,%rdi
    7559:	e8 22 98 ff ff       	callq  d80 <strcmp@plt>
    755e:	85 c0                	test   %eax,%eax
    7560:	0f 84 c4 00 00 00    	je     762a <_ZN8DatabaseI6recordE9run_shellEv+0x2c0a>
    7566:	48 8d 35 ed 0a 00 00 	lea    0xaed(%rip),%rsi        # 805a <_IO_stdin_used+0x55a>
    756d:	48 89 ef             	mov    %rbp,%rdi
    7570:	e8 0b 98 ff ff       	callq  d80 <strcmp@plt>
    7575:	85 c0                	test   %eax,%eax
    7577:	0f 84 a6 00 00 00    	je     7623 <_ZN8DatabaseI6recordE9run_shellEv+0x2c03>
    757d:	48 8d 35 d9 0a 00 00 	lea    0xad9(%rip),%rsi        # 805d <_IO_stdin_used+0x55d>
    7584:	48 89 ef             	mov    %rbp,%rdi
    7587:	e8 f4 97 ff ff       	callq  d80 <strcmp@plt>
    758c:	85 c0                	test   %eax,%eax
    758e:	0f 84 88 00 00 00    	je     761c <_ZN8DatabaseI6recordE9run_shellEv+0x2bfc>
    7594:	48 8d 35 bd 0a 00 00 	lea    0xabd(%rip),%rsi        # 8058 <_IO_stdin_used+0x558>
    759b:	48 89 ef             	mov    %rbp,%rdi
    759e:	e8 dd 97 ff ff       	callq  d80 <strcmp@plt>
    75a3:	85 c0                	test   %eax,%eax
    75a5:	74 6e                	je     7615 <_ZN8DatabaseI6recordE9run_shellEv+0x2bf5>
    75a7:	48 8d 35 b2 0a 00 00 	lea    0xab2(%rip),%rsi        # 8060 <_IO_stdin_used+0x560>
    75ae:	48 89 ef             	mov    %rbp,%rdi
    75b1:	e8 ca 97 ff ff       	callq  d80 <strcmp@plt>
    75b6:	85 c0                	test   %eax,%eax
    75b8:	74 54                	je     760e <_ZN8DatabaseI6recordE9run_shellEv+0x2bee>
    75ba:	48 8d 35 9a 0a 00 00 	lea    0xa9a(%rip),%rsi        # 805b <_IO_stdin_used+0x55b>
    75c1:	48 89 ef             	mov    %rbp,%rdi
    75c4:	e8 b7 97 ff ff       	callq  d80 <strcmp@plt>
    75c9:	85 c0                	test   %eax,%eax
    75cb:	ba 01 00 00 00       	mov    $0x1,%edx
    75d0:	74 17                	je     75e9 <_ZN8DatabaseI6recordE9run_shellEv+0x2bc9>
    75d2:	48 8d 35 89 0a 00 00 	lea    0xa89(%rip),%rsi        # 8062 <_IO_stdin_used+0x562>
    75d9:	48 89 ef             	mov    %rbp,%rdi
    75dc:	e8 9f 97 ff ff       	callq  d80 <strcmp@plt>
    75e1:	83 f8 01             	cmp    $0x1,%eax
    75e4:	19 d2                	sbb    %edx,%edx
    75e6:	83 e2 07             	and    $0x7,%edx
    75e9:	48 8b 7c 24 08       	mov    0x8(%rsp),%rdi
    75ee:	31 f6                	xor    %esi,%esi
    75f0:	89 94 24 e4 01 00 00 	mov    %edx,0x1e4(%rsp)
    75f7:	e8 d4 96 ff ff       	callq  cd0 <strtod@plt>
    75fc:	f2 48 0f 2c c0       	cvttsd2si %xmm0,%rax
    7601:	48 89 84 24 d0 01 00 	mov    %rax,0x1d0(%rsp)
    7608:	00 
    7609:	e9 a1 fe ff ff       	jmpq   74af <_ZN8DatabaseI6recordE9run_shellEv+0x2a8f>
    760e:	ba 03 00 00 00       	mov    $0x3,%edx
    7613:	eb d4                	jmp    75e9 <_ZN8DatabaseI6recordE9run_shellEv+0x2bc9>
    7615:	ba 04 00 00 00       	mov    $0x4,%edx
    761a:	eb cd                	jmp    75e9 <_ZN8DatabaseI6recordE9run_shellEv+0x2bc9>
    761c:	ba 06 00 00 00       	mov    $0x6,%edx
    7621:	eb c6                	jmp    75e9 <_ZN8DatabaseI6recordE9run_shellEv+0x2bc9>
    7623:	ba 05 00 00 00       	mov    $0x5,%edx
    7628:	eb bf                	jmp    75e9 <_ZN8DatabaseI6recordE9run_shellEv+0x2bc9>
    762a:	ba 02 00 00 00       	mov    $0x2,%edx
    762f:	eb b8                	jmp    75e9 <_ZN8DatabaseI6recordE9run_shellEv+0x2bc9>
    7631:	48 8d 35 1f 0a 00 00 	lea    0xa1f(%rip),%rsi        # 8057 <_IO_stdin_used+0x557>
    7638:	48 89 ef             	mov    %rbp,%rdi
    763b:	e8 40 97 ff ff       	callq  d80 <strcmp@plt>
    7640:	85 c0                	test   %eax,%eax
    7642:	0f 84 e6 03 00 00    	je     7a2e <_ZN8DatabaseI6recordE9run_shellEv+0x300e>
    7648:	48 8d 35 0b 0a 00 00 	lea    0xa0b(%rip),%rsi        # 805a <_IO_stdin_used+0x55a>
    764f:	48 89 ef             	mov    %rbp,%rdi
    7652:	e8 29 97 ff ff       	callq  d80 <strcmp@plt>
    7657:	85 c0                	test   %eax,%eax
    7659:	0f 84 c5 03 00 00    	je     7a24 <_ZN8DatabaseI6recordE9run_shellEv+0x3004>
    765f:	48 8d 35 f7 09 00 00 	lea    0x9f7(%rip),%rsi        # 805d <_IO_stdin_used+0x55d>
    7666:	48 89 ef             	mov    %rbp,%rdi
    7669:	e8 12 97 ff ff       	callq  d80 <strcmp@plt>
    766e:	85 c0                	test   %eax,%eax
    7670:	0f 84 cc 03 00 00    	je     7a42 <_ZN8DatabaseI6recordE9run_shellEv+0x3022>
    7676:	48 8d 35 db 09 00 00 	lea    0x9db(%rip),%rsi        # 8058 <_IO_stdin_used+0x558>
    767d:	48 89 ef             	mov    %rbp,%rdi
    7680:	e8 fb 96 ff ff       	callq  d80 <strcmp@plt>
    7685:	85 c0                	test   %eax,%eax
    7687:	0f 84 ab 03 00 00    	je     7a38 <_ZN8DatabaseI6recordE9run_shellEv+0x3018>
    768d:	48 8d 35 cc 09 00 00 	lea    0x9cc(%rip),%rsi        # 8060 <_IO_stdin_used+0x560>
    7694:	48 89 ef             	mov    %rbp,%rdi
    7697:	e8 e4 96 ff ff       	callq  d80 <strcmp@plt>
    769c:	85 c0                	test   %eax,%eax
    769e:	0f 84 a8 03 00 00    	je     7a4c <_ZN8DatabaseI6recordE9run_shellEv+0x302c>
    76a4:	48 8d 35 b0 09 00 00 	lea    0x9b0(%rip),%rsi        # 805b <_IO_stdin_used+0x55b>
    76ab:	48 89 ef             	mov    %rbp,%rdi
    76ae:	e8 cd 96 ff ff       	callq  d80 <strcmp@plt>
    76b3:	85 c0                	test   %eax,%eax
    76b5:	ba 01 00 00 00       	mov    $0x1,%edx
    76ba:	74 17                	je     76d3 <_ZN8DatabaseI6recordE9run_shellEv+0x2cb3>
    76bc:	48 8d 35 9f 09 00 00 	lea    0x99f(%rip),%rsi        # 8062 <_IO_stdin_used+0x562>
    76c3:	48 89 ef             	mov    %rbp,%rdi
    76c6:	e8 b5 96 ff ff       	callq  d80 <strcmp@plt>
    76cb:	83 f8 01             	cmp    $0x1,%eax
    76ce:	19 d2                	sbb    %edx,%edx
    76d0:	83 e2 07             	and    $0x7,%edx
    76d3:	48 8b 7c 24 08       	mov    0x8(%rsp),%rdi
    76d8:	31 c0                	xor    %eax,%eax
    76da:	89 94 24 e0 01 00 00 	mov    %edx,0x1e0(%rsp)
    76e1:	48 83 c9 ff          	or     $0xffffffffffffffff,%rcx
    76e5:	44 8b a4 24 cc 01 00 	mov    0x1cc(%rsp),%r12d
    76ec:	00 
    76ed:	f2 ae                	repnz scas %es:(%rdi),%al
    76ef:	48 89 c8             	mov    %rcx,%rax
    76f2:	f7 d0                	not    %eax
    76f4:	89 c2                	mov    %eax,%edx
    76f6:	89 84 24 c8 01 00 00 	mov    %eax,0x1c8(%rsp)
    76fd:	44 29 e2             	sub    %r12d,%edx
    7700:	85 d2                	test   %edx,%edx
    7702:	0f 8e 82 00 00 00    	jle    778a <_ZN8DatabaseI6recordE9run_shellEv+0x2d6a>
    7708:	41 81 fc c8 00 00 00 	cmp    $0xc8,%r12d
    770f:	b8 0a 00 00 00       	mov    $0xa,%eax
    7714:	7e 15                	jle    772b <_ZN8DatabaseI6recordE9run_shellEv+0x2d0b>
    7716:	66 0f ef c0          	pxor   %xmm0,%xmm0
    771a:	f2 41 0f 2a c4       	cvtsi2sd %r12d,%xmm0
    771f:	f2 0f 59 05 81 0c 00 	mulsd  0xc81(%rip),%xmm0        # 83a8 <_ZZ4likePKcS0_E19__PRETTY_FUNCTION__+0x28>
    7726:	00 
    7727:	f2 0f 2c c0          	cvttsd2si %xmm0,%eax
    772b:	39 c2                	cmp    %eax,%edx
    772d:	0f 4d c2             	cmovge %edx,%eax
    7730:	44 01 e0             	add    %r12d,%eax
    7733:	48 63 e8             	movslq %eax,%rbp
    7736:	89 44 24 30          	mov    %eax,0x30(%rsp)
    773a:	48 89 ef             	mov    %rbp,%rdi
    773d:	e8 1e 95 ff ff       	callq  c60 <_Znam@plt>
    7742:	48 89 ea             	mov    %rbp,%rdx
    7745:	31 f6                	xor    %esi,%esi
    7747:	48 89 c7             	mov    %rax,%rdi
    774a:	48 89 44 24 38       	mov    %rax,0x38(%rsp)
    774f:	e8 4c 95 ff ff       	callq  ca0 <memset@plt>
    7754:	48 8b ac 24 c0 01 00 	mov    0x1c0(%rsp),%rbp
    775b:	00 
    775c:	49 63 d4             	movslq %r12d,%rdx
    775f:	4c 8b 64 24 38       	mov    0x38(%rsp),%r12
    7764:	48 89 ee             	mov    %rbp,%rsi
    7767:	4c 89 e7             	mov    %r12,%rdi
    776a:	e8 71 95 ff ff       	callq  ce0 <memcpy@plt>
    776f:	48 89 ef             	mov    %rbp,%rdi
    7772:	e8 f9 95 ff ff       	callq  d70 <_ZdaPv@plt>
    7777:	8b 44 24 30          	mov    0x30(%rsp),%eax
    777b:	4c 89 a4 24 c0 01 00 	mov    %r12,0x1c0(%rsp)
    7782:	00 
    7783:	89 84 24 cc 01 00 00 	mov    %eax,0x1cc(%rsp)
    778a:	48 8b 74 24 08       	mov    0x8(%rsp),%rsi
    778f:	48 8b bc 24 c0 01 00 	mov    0x1c0(%rsp),%rdi
    7796:	00 
    7797:	e8 64 95 ff ff       	callq  d00 <strcpy@plt>
    779c:	e9 0e fd ff ff       	jmpq   74af <_ZN8DatabaseI6recordE9run_shellEv+0x2a8f>
    77a1:	ba 04 00 00 00       	mov    $0x4,%edx
    77a6:	e9 61 f6 ff ff       	jmpq   6e0c <_ZN8DatabaseI6recordE9run_shellEv+0x23ec>
    77ab:	e9 6e f9 ff ff       	jmpq   711e <_ZN8DatabaseI6recordE9run_shellEv+0x26fe>
    77b0:	4c 89 ce             	mov    %r9,%rsi
    77b3:	4c 89 c7             	mov    %r8,%rdi
    77b6:	89 54 24 08          	mov    %edx,0x8(%rsp)
    77ba:	e8 51 9b ff ff       	callq  1310 <_Z4likePKcS0_>
    77bf:	8b 54 24 08          	mov    0x8(%rsp),%edx
    77c3:	0f b6 c0             	movzbl %al,%eax
    77c6:	01 d0                	add    %edx,%eax
    77c8:	e9 aa f4 ff ff       	jmpq   6c77 <_ZN8DatabaseI6recordE9run_shellEv+0x2257>
    77cd:	85 c0                	test   %eax,%eax
    77cf:	0f 95 c0             	setne  %al
    77d2:	0f b6 c0             	movzbl %al,%eax
    77d5:	01 d0                	add    %edx,%eax
    77d7:	e9 9b f4 ff ff       	jmpq   6c77 <_ZN8DatabaseI6recordE9run_shellEv+0x2257>
    77dc:	85 c0                	test   %eax,%eax
    77de:	0f 9e c0             	setle  %al
    77e1:	0f b6 c0             	movzbl %al,%eax
    77e4:	01 d0                	add    %edx,%eax
    77e6:	e9 8c f4 ff ff       	jmpq   6c77 <_ZN8DatabaseI6recordE9run_shellEv+0x2257>
    77eb:	85 c0                	test   %eax,%eax
    77ed:	0f 9f c0             	setg   %al
    77f0:	0f b6 c0             	movzbl %al,%eax
    77f3:	01 d0                	add    %edx,%eax
    77f5:	e9 7d f4 ff ff       	jmpq   6c77 <_ZN8DatabaseI6recordE9run_shellEv+0x2257>
    77fa:	e9 1f f9 ff ff       	jmpq   711e <_ZN8DatabaseI6recordE9run_shellEv+0x26fe>
    77ff:	48 8d 5c 24 50       	lea    0x50(%rsp),%rbx
    7804:	4c 89 e7             	mov    %r12,%rdi
    7807:	48 89 da             	mov    %rbx,%rdx
    780a:	e8 31 b1 ff ff       	callq  2940 <_ZN6db_avlI9list_nodeI6recordEE9search_eqEP8avl_nodeIS2_ERKS0_I7commandE>
    780f:	48 8b 75 10          	mov    0x10(%rbp),%rsi
    7813:	48 89 da             	mov    %rbx,%rdx
    7816:	4c 89 e7             	mov    %r12,%rdi
    7819:	e8 22 b1 ff ff       	callq  2940 <_ZN6db_avlI9list_nodeI6recordEE9search_eqEP8avl_nodeIS2_ERKS0_I7commandE>
    781e:	8b 54 24 78          	mov    0x78(%rsp),%edx
    7822:	8b 44 24 70          	mov    0x70(%rsp),%eax
    7826:	8b 7c 24 74          	mov    0x74(%rsp),%edi
    782a:	48 8b 75 00          	mov    0x0(%rbp),%rsi
    782e:	01 d0                	add    %edx,%eax
    7830:	01 f8                	add    %edi,%eax
    7832:	74 7a                	je     78ae <_ZN8DatabaseI6recordE9run_shellEv+0x2e8e>
    7834:	85 d2                	test   %edx,%edx
    7836:	b9 01 00 00 00       	mov    $0x1,%ecx
    783b:	74 26                	je     7863 <_ZN8DatabaseI6recordE9run_shellEv+0x2e43>
    783d:	83 ea 01             	sub    $0x1,%edx
    7840:	8b 46 18             	mov    0x18(%rsi),%eax
    7843:	2b 44 24 68          	sub    0x68(%rsp),%eax
    7847:	83 fa 05             	cmp    $0x5,%edx
    784a:	77 17                	ja     7863 <_ZN8DatabaseI6recordE9run_shellEv+0x2e43>
    784c:	48 8d 0d cd 09 00 00 	lea    0x9cd(%rip),%rcx        # 8220 <_IO_stdin_used+0x720>
    7853:	48 63 14 91          	movslq (%rcx,%rdx,4),%rdx
    7857:	48 01 ca             	add    %rcx,%rdx
    785a:	ff e2                	jmpq   *%rdx
    785c:	31 c9                	xor    %ecx,%ecx
    785e:	85 c0                	test   %eax,%eax
    7860:	0f 9e c1             	setle  %cl
    7863:	85 ff                	test   %edi,%edi
    7865:	8d 41 01             	lea    0x1(%rcx),%eax
    7868:	74 2b                	je     7895 <_ZN8DatabaseI6recordE9run_shellEv+0x2e75>
    786a:	83 ef 01             	sub    $0x1,%edi
    786d:	48 8b 56 10          	mov    0x10(%rsi),%rdx
    7871:	48 2b 54 24 60       	sub    0x60(%rsp),%rdx
    7876:	83 ff 05             	cmp    $0x5,%edi
    7879:	77 1a                	ja     7895 <_ZN8DatabaseI6recordE9run_shellEv+0x2e75>
    787b:	4c 8d 05 b6 09 00 00 	lea    0x9b6(%rip),%r8        # 8238 <_IO_stdin_used+0x738>
    7882:	49 63 04 b8          	movslq (%r8,%rdi,4),%rax
    7886:	4c 01 c0             	add    %r8,%rax
    7889:	ff e0                	jmpq   *%rax
    788b:	31 c0                	xor    %eax,%eax
    788d:	48 85 d2             	test   %rdx,%rdx
    7890:	0f 9e c0             	setle  %al
    7893:	01 c8                	add    %ecx,%eax
    7895:	83 f8 02             	cmp    $0x2,%eax
    7898:	74 14                	je     78ae <_ZN8DatabaseI6recordE9run_shellEv+0x2e8e>
    789a:	83 e8 01             	sub    $0x1,%eax
    789d:	0f 85 32 e8 ff ff    	jne    60d5 <_ZN8DatabaseI6recordE9run_shellEv+0x16b5>
    78a3:	83 7c 24 7c 02       	cmpl   $0x2,0x7c(%rsp)
    78a8:	0f 85 27 e8 ff ff    	jne    60d5 <_ZN8DatabaseI6recordE9run_shellEv+0x16b5>
    78ae:	48 8b 4e 10          	mov    0x10(%rsi),%rcx
    78b2:	44 8b 46 18          	mov    0x18(%rsi),%r8d
    78b6:	bf 01 00 00 00       	mov    $0x1,%edi
    78bb:	48 8b 16             	mov    (%rsi),%rdx
    78be:	48 8d 35 90 02 00 00 	lea    0x290(%rip),%rsi        # 7b55 <_IO_stdin_used+0x55>
    78c5:	31 c0                	xor    %eax,%eax
    78c7:	e8 84 93 ff ff       	callq  c50 <__printf_chk@plt>
    78cc:	e9 04 e8 ff ff       	jmpq   60d5 <_ZN8DatabaseI6recordE9run_shellEv+0x16b5>
    78d1:	31 c0                	xor    %eax,%eax
    78d3:	48 85 d2             	test   %rdx,%rdx
    78d6:	0f 9f c0             	setg   %al
    78d9:	01 c8                	add    %ecx,%eax
    78db:	eb b8                	jmp    7895 <_ZN8DatabaseI6recordE9run_shellEv+0x2e75>
    78dd:	48 89 d0             	mov    %rdx,%rax
    78e0:	48 c1 e8 3f          	shr    $0x3f,%rax
    78e4:	01 c8                	add    %ecx,%eax
    78e6:	eb ad                	jmp    7895 <_ZN8DatabaseI6recordE9run_shellEv+0x2e75>
    78e8:	31 c0                	xor    %eax,%eax
    78ea:	48 85 d2             	test   %rdx,%rdx
    78ed:	0f 95 c0             	setne  %al
    78f0:	01 c8                	add    %ecx,%eax
    78f2:	eb a1                	jmp    7895 <_ZN8DatabaseI6recordE9run_shellEv+0x2e75>
    78f4:	48 89 d0             	mov    %rdx,%rax
    78f7:	48 f7 d0             	not    %rax
    78fa:	48 c1 e8 3f          	shr    $0x3f,%rax
    78fe:	01 c8                	add    %ecx,%eax
    7900:	eb 93                	jmp    7895 <_ZN8DatabaseI6recordE9run_shellEv+0x2e75>
    7902:	31 c0                	xor    %eax,%eax
    7904:	48 85 d2             	test   %rdx,%rdx
    7907:	0f 94 c0             	sete   %al
    790a:	01 c8                	add    %ecx,%eax
    790c:	eb 87                	jmp    7895 <_ZN8DatabaseI6recordE9run_shellEv+0x2e75>
    790e:	31 c9                	xor    %ecx,%ecx
    7910:	85 c0                	test   %eax,%eax
    7912:	0f 94 c1             	sete   %cl
    7915:	e9 49 ff ff ff       	jmpq   7863 <_ZN8DatabaseI6recordE9run_shellEv+0x2e43>
    791a:	f7 d0                	not    %eax
    791c:	c1 e8 1f             	shr    $0x1f,%eax
    791f:	89 c1                	mov    %eax,%ecx
    7921:	e9 3d ff ff ff       	jmpq   7863 <_ZN8DatabaseI6recordE9run_shellEv+0x2e43>
    7926:	31 c9                	xor    %ecx,%ecx
    7928:	85 c0                	test   %eax,%eax
    792a:	0f 95 c1             	setne  %cl
    792d:	e9 31 ff ff ff       	jmpq   7863 <_ZN8DatabaseI6recordE9run_shellEv+0x2e43>
    7932:	31 c9                	xor    %ecx,%ecx
    7934:	85 c0                	test   %eax,%eax
    7936:	0f 9f c1             	setg   %cl
    7939:	e9 25 ff ff ff       	jmpq   7863 <_ZN8DatabaseI6recordE9run_shellEv+0x2e43>
    793e:	ba 03 00 00 00       	mov    $0x3,%edx
    7943:	e9 c4 f4 ff ff       	jmpq   6e0c <_ZN8DatabaseI6recordE9run_shellEv+0x23ec>
    7948:	e9 d1 f7 ff ff       	jmpq   711e <_ZN8DatabaseI6recordE9run_shellEv+0x26fe>
    794d:	c7 40 18 00 00 00 00 	movl   $0x0,0x18(%rax)
    7954:	c7 45 18 01 00 00 00 	movl   $0x1,0x18(%rbp)
    795b:	e9 55 f9 ff ff       	jmpq   72b5 <_ZN8DatabaseI6recordE9run_shellEv+0x2895>
    7960:	48 8d 0d 99 09 00 00 	lea    0x999(%rip),%rcx        # 8300 <_ZZN8avl_treeI9list_nodeI6recordEE9avl_probeEPS2_E19__PRETTY_FUNCTION__>
    7967:	48 8d 35 ba 01 00 00 	lea    0x1ba(%rip),%rsi        # 7b28 <_IO_stdin_used+0x28>
    796e:	48 8d 3d be 01 00 00 	lea    0x1be(%rip),%rdi        # 7b33 <_IO_stdin_used+0x33>
    7975:	ba d9 01 00 00       	mov    $0x1d9,%edx
    797a:	e8 31 93 ff ff       	callq  cb0 <__assert_fail@plt>
    797f:	48 8b 50 10          	mov    0x10(%rax),%rdx
    7983:	48 89 55 08          	mov    %rdx,0x8(%rbp)
    7987:	48 89 68 10          	mov    %rbp,0x10(%rax)
    798b:	c7 45 18 00 00 00 00 	movl   $0x0,0x18(%rbp)
    7992:	c7 40 18 00 00 00 00 	movl   $0x0,0x18(%rax)
    7999:	e9 21 f9 ff ff       	jmpq   72bf <_ZN8DatabaseI6recordE9run_shellEv+0x289f>
    799e:	c7 42 18 01 00 00 00 	movl   $0x1,0x18(%rdx)
    79a5:	c7 40 18 ff ff ff ff 	movl   $0xffffffff,0x18(%rax)
    79ac:	e9 b4 ed ff ff       	jmpq   6765 <_ZN8DatabaseI6recordE9run_shellEv+0x1d45>
    79b1:	0f 9f c0             	setg   %al
    79b4:	4d 89 ee             	mov    %r13,%r14
    79b7:	0f b6 c0             	movzbl %al,%eax
    79ba:	4d 8b 6c c5 08       	mov    0x8(%r13,%rax,8),%r13
    79bf:	e9 34 eb ff ff       	jmpq   64f8 <_ZN8DatabaseI6recordE9run_shellEv+0x1ad8>
    79c4:	ba 06 00 00 00       	mov    $0x6,%edx
    79c9:	e9 7a ea ff ff       	jmpq   6448 <_ZN8DatabaseI6recordE9run_shellEv+0x1a28>
    79ce:	ba 03 00 00 00       	mov    $0x3,%edx
    79d3:	e9 70 ea ff ff       	jmpq   6448 <_ZN8DatabaseI6recordE9run_shellEv+0x1a28>
    79d8:	ba 04 00 00 00       	mov    $0x4,%edx
    79dd:	e9 66 ea ff ff       	jmpq   6448 <_ZN8DatabaseI6recordE9run_shellEv+0x1a28>
    79e2:	b8 01 00 00 00       	mov    $0x1,%eax
    79e7:	e9 11 e8 ff ff       	jmpq   61fd <_ZN8DatabaseI6recordE9run_shellEv+0x17dd>
    79ec:	48 8b 7c 24 50       	mov    0x50(%rsp),%rdi
    79f1:	48 89 c5             	mov    %rax,%rbp
    79f4:	48 c7 84 24 88 00 00 	movq   $0x0,0x88(%rsp)
    79fb:	00 00 00 00 00 
    7a00:	48 c7 84 24 90 00 00 	movq   $0x0,0x90(%rsp)
    7a07:	00 00 00 00 00 
    7a0c:	48 85 ff             	test   %rdi,%rdi
    7a0f:	0f 84 0c f7 ff ff    	je     7121 <_ZN8DatabaseI6recordE9run_shellEv+0x2701>
    7a15:	e8 56 93 ff ff       	callq  d70 <_ZdaPv@plt>
    7a1a:	e9 02 f7 ff ff       	jmpq   7121 <_ZN8DatabaseI6recordE9run_shellEv+0x2701>
    7a1f:	e9 fa f6 ff ff       	jmpq   711e <_ZN8DatabaseI6recordE9run_shellEv+0x26fe>
    7a24:	ba 05 00 00 00       	mov    $0x5,%edx
    7a29:	e9 a5 fc ff ff       	jmpq   76d3 <_ZN8DatabaseI6recordE9run_shellEv+0x2cb3>
    7a2e:	ba 02 00 00 00       	mov    $0x2,%edx
    7a33:	e9 9b fc ff ff       	jmpq   76d3 <_ZN8DatabaseI6recordE9run_shellEv+0x2cb3>
    7a38:	ba 04 00 00 00       	mov    $0x4,%edx
    7a3d:	e9 91 fc ff ff       	jmpq   76d3 <_ZN8DatabaseI6recordE9run_shellEv+0x2cb3>
    7a42:	ba 06 00 00 00       	mov    $0x6,%edx
    7a47:	e9 87 fc ff ff       	jmpq   76d3 <_ZN8DatabaseI6recordE9run_shellEv+0x2cb3>
    7a4c:	ba 03 00 00 00       	mov    $0x3,%edx
    7a51:	e9 7d fc ff ff       	jmpq   76d3 <_ZN8DatabaseI6recordE9run_shellEv+0x2cb3>
    7a56:	e9 c3 f6 ff ff       	jmpq   711e <_ZN8DatabaseI6recordE9run_shellEv+0x26fe>
    7a5b:	e9 be f6 ff ff       	jmpq   711e <_ZN8DatabaseI6recordE9run_shellEv+0x26fe>
    7a60:	ba 03 00 00 00       	mov    $0x3,%edx
    7a65:	e9 1c e4 ff ff       	jmpq   5e86 <_ZN8DatabaseI6recordE9run_shellEv+0x1466>
    7a6a:	ba 04 00 00 00       	mov    $0x4,%edx
    7a6f:	e9 12 e4 ff ff       	jmpq   5e86 <_ZN8DatabaseI6recordE9run_shellEv+0x1466>
    7a74:	66 2e 0f 1f 84 00 00 	nopw   %cs:0x0(%rax,%rax,1)
    7a7b:	00 00 00 
    7a7e:	66 90                	xchg   %ax,%ax

0000000000007a80 <__libc_csu_init>:
    7a80:	41 57                	push   %r15
    7a82:	41 56                	push   %r14
    7a84:	49 89 d7             	mov    %rdx,%r15
    7a87:	41 55                	push   %r13
    7a89:	41 54                	push   %r12
    7a8b:	4c 8d 25 3e 12 20 00 	lea    0x20123e(%rip),%r12        # 208cd0 <__frame_dummy_init_array_entry>
    7a92:	55                   	push   %rbp
    7a93:	48 8d 2d 3e 12 20 00 	lea    0x20123e(%rip),%rbp        # 208cd8 <__init_array_end>
    7a9a:	53                   	push   %rbx
    7a9b:	41 89 fd             	mov    %edi,%r13d
    7a9e:	49 89 f6             	mov    %rsi,%r14
    7aa1:	4c 29 e5             	sub    %r12,%rbp
    7aa4:	48 83 ec 08          	sub    $0x8,%rsp
    7aa8:	48 c1 fd 03          	sar    $0x3,%rbp
    7aac:	e8 77 91 ff ff       	callq  c28 <_init>
    7ab1:	48 85 ed             	test   %rbp,%rbp
    7ab4:	74 20                	je     7ad6 <__libc_csu_init+0x56>
    7ab6:	31 db                	xor    %ebx,%ebx
    7ab8:	0f 1f 84 00 00 00 00 	nopl   0x0(%rax,%rax,1)
    7abf:	00 
    7ac0:	4c 89 fa             	mov    %r15,%rdx
    7ac3:	4c 89 f6             	mov    %r14,%rsi
    7ac6:	44 89 ef             	mov    %r13d,%edi
    7ac9:	41 ff 14 dc          	callq  *(%r12,%rbx,8)
    7acd:	48 83 c3 01          	add    $0x1,%rbx
    7ad1:	48 39 dd             	cmp    %rbx,%rbp
    7ad4:	75 ea                	jne    7ac0 <__libc_csu_init+0x40>
    7ad6:	48 83 c4 08          	add    $0x8,%rsp
    7ada:	5b                   	pop    %rbx
    7adb:	5d                   	pop    %rbp
    7adc:	41 5c                	pop    %r12
    7ade:	41 5d                	pop    %r13
    7ae0:	41 5e                	pop    %r14
    7ae2:	41 5f                	pop    %r15
    7ae4:	c3                   	retq   
    7ae5:	90                   	nop
    7ae6:	66 2e 0f 1f 84 00 00 	nopw   %cs:0x0(%rax,%rax,1)
    7aed:	00 00 00 

0000000000007af0 <__libc_csu_fini>:
    7af0:	f3 c3                	repz retq 

Disassembly of section .fini:

0000000000007af4 <_fini>:
    7af4:	48 83 ec 08          	sub    $0x8,%rsp
    7af8:	48 83 c4 08          	add    $0x8,%rsp
    7afc:	c3                   	retq   
